
test.bin:     file format binary


Disassembly of section .data:

0000000000000000 <.data>:
       0:	00000093          	li	ra,0
       4:	00000113          	li	sp,0
       8:	00000193          	li	gp,0
       c:	897431b7          	lui	gp,0x89743
      10:	38d2f297          	auipc	t0,0x38d2f
      14:	a1283197          	auipc	gp,0xa1283
      18:	001100b3          	add	ra,sp,ra
      1c:	43880097          	auipc	ra,0x43880
      20:	e7236193          	ori	gp,t1,-398
      24:	e3351097          	auipc	ra,0xe3351
      28:	5d9e4117          	auipc	sp,0x5d9e4
      2c:	b1df81b7          	lui	gp,0xb1df8
      30:	1f3e9297          	auipc	t0,0x1f3e9
      34:	d750f113          	andi	sp,ra,-651
      38:	48f0c193          	xori	gp,ra,1167
      3c:	8f38c317          	auipc	t1,0x8f38c
      40:	003171b3          	and	gp,sp,gp
      44:	66f16013          	ori	zero,sp,1647
      48:	ada59717          	auipc	a4,0xada59
      4c:	07436117          	auipc	sp,0x7436
      50:	71c0d0b7          	lui	ra,0x71c0d
      54:	001061b3          	or	gp,zero,ra
      58:	9d63a697          	auipc	a3,0x9d63a
      5c:	6cfdf0b7          	lui	ra,0x6cfdf
      60:	3576f113          	andi	sp,a3,855
      64:	b99b0197          	auipc	gp,0xb99b0
      68:	f6010093          	addi	ra,sp,-160 # 0x7435fac
      6c:	0076e333          	or	t1,a3,t2
      70:	005040b3          	xor	ra,zero,t0
      74:	0021f133          	and	sp,gp,sp
      78:	6fc94217          	auipc	tp,0x6fc94
      7c:	1f2c7097          	auipc	ra,0x1f2c7
      80:	252cf1b7          	lui	gp,0x252cf
      84:	66138e63          	beq	t2,ra,0x700
      88:	6780016f          	jal	sp,0x700
      8c:	51c5c137          	lui	sp,0x51c5c
      90:	bb381017          	auipc	zero,0xbb381
      94:	7e8bb717          	auipc	a4,0x7e8bb
      98:	79018293          	addi	t0,gp,1936 # 0x252cf790
      9c:	00210033          	add	zero,sp,sp
      a0:	e16e0137          	lui	sp,0xe16e0
      a4:	6e508313          	addi	t1,ra,1765 # 0x1f2c7761
      a8:	002145b3          	xor	a1,sp,sp
      ac:	ad0f8113          	addi	sp,t6,-1328
      b0:	0030e1b3          	or	gp,ra,gp
      b4:	001100b3          	add	ra,sp,ra
      b8:	2e62c237          	lui	tp,0x2e62c
      bc:	47c10013          	addi	zero,sp,1148 # 0xffffffffe16e047c
      c0:	003160b3          	or	ra,sp,gp
      c4:	b57db1b7          	lui	gp,0xb57db
      c8:	3d700193          	li	gp,983
      cc:	976a91b7          	lui	gp,0x976a9
      d0:	00108133          	add	sp,ra,ra
      d4:	d87d4137          	lui	sp,0xd87d4
      d8:	ea100113          	li	sp,-351
      dc:	54d133b7          	lui	t2,0x54d13
      e0:	1c2e6317          	auipc	t1,0x1c2e6
      e4:	0017f433          	and	s0,a5,ra
      e8:	b63b1397          	auipc	t2,0xb63b1
      ec:	e1b1e093          	ori	ra,gp,-485
      f0:	4edb61b7          	lui	gp,0x4edb6
      f4:	58e0e193          	ori	gp,ra,1422
      f8:	e388a217          	auipc	tp,0xe388a
      fc:	001100b3          	add	ra,sp,ra
     100:	b2710093          	addi	ra,sp,-1241 # 0xffffffffd87d3b27
     104:	ba03c197          	auipc	gp,0xba03c
     108:	498920b7          	lui	ra,0x49892
     10c:	57b48313          	addi	t1,s1,1403
     110:	cd420113          	addi	sp,tp,-812 # 0xffffffffe3889dcc
     114:	eca08213          	addi	tp,ra,-310 # 0x49891eca
     118:	3ee03117          	auipc	sp,0x3ee03
     11c:	00310263          	beq	sp,gp,0x120
     120:	1f5001ef          	jal	gp,0xb14
     124:	617f71b7          	lui	gp,0x617f7
     128:	9008e0b7          	lui	ra,0x9008e
     12c:	002140b3          	xor	ra,sp,sp
     130:	599933b7          	lui	t2,0x59993
     134:	693e2237          	lui	tp,0x693e2
     138:	c56711b7          	lui	gp,0xc5671
     13c:	d8315117          	auipc	sp,0xd8315
     140:	46ebd197          	auipc	gp,0x46ebd
     144:	5bd1f293          	andi	t0,gp,1469
     148:	3f118013          	addi	zero,gp,1009 # 0x46ebd531
     14c:	1c15f197          	auipc	gp,0x1c15f
     150:	de4e1197          	auipc	gp,0xde4e1
     154:	d49d6117          	auipc	sp,0xd49d6
     158:	3b15c7b7          	lui	a5,0x3b15c
     15c:	9dc35097          	auipc	ra,0x9dc35
     160:	6ef08093          	addi	ra,ra,1775 # 0xffffffff9dc3584b
     164:	2597a1b7          	lui	gp,0x2597a
     168:	5acb9237          	lui	tp,0x5acb9
     16c:	40610133          	sub	sp,sp,t1
     170:	001271b3          	and	gp,tp,ra
     174:	3e66d0b7          	lui	ra,0x3e66d
     178:	79af16b7          	lui	a3,0x79af1
     17c:	783961b7          	lui	gp,0x78396
     180:	606c2137          	lui	sp,0x606c2
     184:	3778f1b7          	lui	gp,0x3778f
     188:	74d74097          	auipc	ra,0x74d74
     18c:	2e72ef13          	ori	t5,t0,743
     190:	fa12e193          	ori	gp,t0,-95
     194:	a090c213          	xori	tp,ra,-1527
     198:	4bf21117          	auipc	sp,0x4bf21
     19c:	0030c133          	xor	sp,ra,gp
     1a0:	14a0c237          	lui	tp,0x14a0c
     1a4:	cac9b117          	auipc	sp,0xcac9b
     1a8:	2619d1b7          	lui	gp,0x2619d
     1ac:	00208263          	beq	ra,sp,0x1b0
     1b0:	049000ef          	jal	ra,0x9f8
     1b4:	374ce117          	auipc	sp,0x374ce
     1b8:	00108133          	add	sp,ra,ra
     1bc:	6a0941b7          	lui	gp,0x6a094
     1c0:	a8302e37          	lui	t3,0xa8302
     1c4:	8b45b197          	auipc	gp,0x8b45b
     1c8:	f7487297          	auipc	t0,0xf7487
     1cc:	03836193          	ori	gp,t1,56
     1d0:	002271b3          	and	gp,tp,sp
     1d4:	012c97b7          	lui	a5,0x12c9
     1d8:	0011e1b3          	or	gp,gp,ra
     1dc:	40110133          	sub	sp,sp,ra
     1e0:	002d71b3          	and	gp,s10,sp
     1e4:	2431e093          	ori	ra,gp,579
     1e8:	401180b3          	sub	ra,gp,ra
     1ec:	e5037113          	andi	sp,t1,-432
     1f0:	104c5337          	lui	t1,0x104c5
     1f4:	3460f293          	andi	t0,ra,838
     1f8:	401184b3          	sub	s1,gp,ra
     1fc:	62274097          	auipc	ra,0x62274
     200:	a4661117          	auipc	sp,0xa4661
     204:	00324133          	xor	sp,tp,gp
     208:	4c94f1b7          	lui	gp,0x4c94f
     20c:	5b132097          	auipc	ra,0x5b132
     210:	00118333          	add	t1,gp,ra
     214:	3cb14493          	xori	s1,sp,971
     218:	00510733          	add	a4,sp,t0
     21c:	078efab7          	lui	s5,0x78ef
     220:	002240b3          	xor	ra,tp,sp
     224:	005101b3          	add	gp,sp,t0
     228:	6ac8d097          	auipc	ra,0x6ac8d
     22c:	69a16193          	ori	gp,sp,1690
     230:	dc631417          	auipc	s0,0xdc631
     234:	15320093          	addi	ra,tp,339 # 0x14a0c153
     238:	00210133          	add	sp,sp,sp
     23c:	20363197          	auipc	gp,0x20363
     240:	36060117          	auipc	sp,0x36060
     244:	00008193          	mv	gp,ra
     248:	32118863          	beq	gp,ra,0x578
     24c:	62a57097          	auipc	ra,0x62a57
     250:	220af117          	auipc	sp,0x220af
     254:	36108013          	addi	zero,ra,865 # 0x62a575ad
     258:	e7a410b7          	lui	ra,0xe7a41
     25c:	69217197          	auipc	gp,0x69217
     260:	410101b3          	sub	gp,sp,a6
     264:	13322137          	lui	sp,0x13322
     268:	5ea04117          	auipc	sp,0x5ea04
     26c:	aced33b7          	lui	t2,0xaced3
     270:	0030c0b3          	xor	ra,ra,gp
     274:	30edd597          	auipc	a1,0x30edd
     278:	403381b3          	sub	gp,t2,gp
     27c:	85d1c293          	xori	t0,gp,-1955
     280:	9177f1b7          	lui	gp,0x9177f
     284:	007360b3          	or	ra,t1,t2
     288:	a609b0b7          	lui	ra,0xa609b
     28c:	ec708793          	addi	a5,ra,-313 # 0xffffffffa609aec7
     290:	7b93e093          	ori	ra,t2,1977
     294:	b34b20b7          	lui	ra,0xb34b2
     298:	68208313          	addi	t1,ra,1666 # 0xffffffffb34b2682
     29c:	4377c137          	lui	sp,0x4377c
     2a0:	01126333          	or	t1,tp,a7
     2a4:	a4436113          	ori	sp,t1,-1468
     2a8:	a57160b7          	lui	ra,0xa5716
     2ac:	40318833          	sub	a6,gp,gp
     2b0:	00616233          	or	tp,sp,t1
     2b4:	7618e197          	auipc	gp,0x7618e
     2b8:	0051e133          	or	sp,gp,t0
     2bc:	e1126213          	ori	tp,tp,-495
     2c0:	a3649117          	auipc	sp,0xa3649
     2c4:	0030f133          	and	sp,ra,gp
     2c8:	8e34c237          	lui	tp,0x8e34c
     2cc:	a171e1b7          	lui	gp,0xa171e
     2d0:	16b18393          	addi	t2,gp,363 # 0xffffffffa171e16b
     2d4:	ab47e097          	auipc	ra,0xab47e
     2d8:	00110463          	beq	sp,ra,0x2e0
     2dc:	004007ef          	jal	a5,0x2e0
     2e0:	00110133          	add	sp,sp,ra
     2e4:	de006113          	ori	sp,zero,-544
     2e8:	52a27193          	andi	gp,tp,1322
     2ec:	0051f133          	and	sp,gp,t0
     2f0:	c410a037          	lui	zero,0xc410a
     2f4:	da210137          	lui	sp,0xda210
     2f8:	db3ff117          	auipc	sp,0xdb3ff
     2fc:	44610493          	addi	s1,sp,1094 # 0xffffffffdb3ff73e
     300:	1b704037          	lui	zero,0x1b704
     304:	757c3117          	auipc	sp,0x757c3
     308:	001161b3          	or	gp,sp,ra
     30c:	db5a7137          	lui	sp,0xdb5a7
     310:	92724193          	xori	gp,tp,-1753
     314:	c5f8c0b7          	lui	ra,0xc5f8c
     318:	f49dd717          	auipc	a4,0xf49dd
     31c:	79b7c317          	auipc	t1,0x79b7c
     320:	85fb8297          	auipc	t0,0x85fb8
     324:	232f8237          	lui	tp,0x232f8
     328:	12d0f493          	andi	s1,ra,301
     32c:	330b3137          	lui	sp,0x330b3
     330:	f29d2197          	auipc	gp,0xf29d2
     334:	47b0c113          	xori	sp,ra,1147
     338:	99914793          	xori	a5,sp,-1639
     33c:	00307233          	and	tp,zero,gp
     340:	71f73097          	auipc	ra,0x71f73
     344:	0011f133          	and	sp,gp,ra
     348:	fae1f093          	andi	ra,gp,-82
     34c:	02b1c113          	xori	sp,gp,43
     350:	1c417213          	andi	tp,sp,452
     354:	00ef8897          	auipc	a7,0xef8
     358:	a8ddb1b7          	lui	gp,0xa8ddb
     35c:	224de0b7          	lui	ra,0x224de
     360:	0011f1b3          	and	gp,gp,ra
     364:	787a5197          	auipc	gp,0x787a5
     368:	28120463          	beq	tp,ra,0x5f0
     36c:	284001ef          	jal	gp,0x5f0
     370:	c516c1b7          	lui	gp,0xc516c
     374:	5bedb117          	auipc	sp,0x5bedb
     378:	b941f093          	andi	ra,gp,-1132
     37c:	0070f133          	and	sp,ra,t2
     380:	5c8d51b7          	lui	gp,0x5c8d5
     384:	1ee56097          	auipc	ra,0x1ee56
     388:	0020c033          	xor	zero,ra,sp
     38c:	2272e037          	lui	zero,0x2272e
     390:	3040f313          	andi	t1,ra,772
     394:	9135d117          	auipc	sp,0x9135d
     398:	00424133          	xor	sp,tp,tp
     39c:	00f1e133          	or	sp,gp,a5
     3a0:	b100c193          	xori	gp,ra,-1264
     3a4:	852a5197          	auipc	gp,0x852a5
     3a8:	f0914093          	xori	ra,sp,-247
     3ac:	0041e0b3          	or	ra,gp,tp
     3b0:	00428133          	add	sp,t0,tp
     3b4:	0020f033          	and	zero,ra,sp
     3b8:	40108233          	sub	tp,ra,ra
     3bc:	899b4a17          	auipc	s4,0x899b4
     3c0:	f3449197          	auipc	gp,0xf3449
     3c4:	ac0a3317          	auipc	t1,0xac0a3
     3c8:	00308133          	add	sp,ra,gp
     3cc:	f8c16113          	ori	sp,sp,-116
     3d0:	afb1e493          	ori	s1,gp,-1285
     3d4:	0020f133          	and	sp,ra,sp
     3d8:	93726197          	auipc	gp,0x93726
     3dc:	95610193          	addi	gp,sp,-1706 # 0xffffffff9135ccea
     3e0:	00b080b3          	add	ra,ra,a1
     3e4:	00000097          	auipc	ra,0x0
     3e8:	29008167          	jalr	sp,656(ra) # 0x674
     3ec:	006087b3          	add	a5,ra,t1
     3f0:	a1a16113          	ori	sp,sp,-1510
     3f4:	001141b3          	xor	gp,sp,ra
     3f8:	02c671b7          	lui	gp,0x2c67
     3fc:	6debf037          	lui	zero,0x6debf
     400:	e04b1197          	auipc	gp,0xe04b1
     404:	d56703b7          	lui	t2,0xd5670
     408:	006680b3          	add	ra,a3,t1
     40c:	002cf133          	and	sp,s9,sp
     410:	aa014193          	xori	gp,sp,-1376
     414:	dec58197          	auipc	gp,0xdec58
     418:	1196e113          	ori	sp,a3,281
     41c:	5346f097          	auipc	ra,0x5346f
     420:	2e416193          	ori	gp,sp,740
     424:	386a4097          	auipc	ra,0x386a4
     428:	a057f093          	andi	ra,a5,-1531
     42c:	73c1e137          	lui	sp,0x73c1e
     430:	e64362b7          	lui	t0,0xe6436
     434:	279a6037          	lui	zero,0x279a6
     438:	a2718093          	addi	ra,gp,-1497 # 0xffffffffdec57e3b
     43c:	1e24d1b7          	lui	gp,0x1e24d
     440:	cbd0f197          	auipc	gp,0xcbd0f
     444:	402281b3          	sub	gp,t0,sp
     448:	a4b2b137          	lui	sp,0xa4b2b
     44c:	002160b3          	or	ra,sp,sp
     450:	1f2def17          	auipc	t5,0x1f2de
     454:	4146c337          	lui	t1,0x4146c
     458:	40218033          	sub	zero,gp,sp
     45c:	0a90b097          	auipc	ra,0xa90b
     460:	063b6c37          	lui	s8,0x63b6
     464:	01c05317          	auipc	t1,0x1c05
     468:	599b5137          	lui	sp,0x599b5
     46c:	00000117          	auipc	sp,0x0
     470:	d48101e7          	jalr	gp,-696(sp) # 0x1b4
     474:	d3116093          	ori	ra,sp,-719
     478:	402081b3          	sub	gp,ra,sp
     47c:	004171b3          	and	gp,sp,tp
     480:	0021f233          	and	tp,gp,sp
     484:	3c4c3297          	auipc	t0,0x3c4c3
     488:	007101b3          	add	gp,sp,t2
     48c:	5c9110b7          	lui	ra,0x5c911
     490:	8a5f6117          	auipc	sp,0x8a5f6
     494:	5ce441b7          	lui	gp,0x5ce44
     498:	0010e1b3          	or	gp,ra,ra
     49c:	4abc4097          	auipc	ra,0x4abc4
     4a0:	40308333          	sub	t1,ra,gp
     4a4:	6dbf7113          	andi	sp,t5,1755
     4a8:	941630b7          	lui	ra,0x94163
     4ac:	d6694e37          	lui	t3,0xd6694
     4b0:	41008fb3          	sub	t6,ra,a6
     4b4:	eb35b217          	auipc	tp,0xeb35b
     4b8:	00334333          	xor	t1,t1,gp
     4bc:	1700b097          	auipc	ra,0x1700b
     4c0:	b9ab5197          	auipc	gp,0xb9ab5
     4c4:	bac660b7          	lui	ra,0xbac66
     4c8:	00b3e133          	or	sp,t2,a1
     4cc:	0070c0b3          	xor	ra,ra,t2
     4d0:	7ccc4217          	auipc	tp,0x7ccc4
     4d4:	e590c117          	auipc	sp,0xe590c
     4d8:	0013e3b3          	or	t2,t2,ra
     4dc:	bc0c6137          	lui	sp,0xbc0c6
     4e0:	1a8dd3b7          	lui	t2,0x1a8dd
     4e4:	cd8d2137          	lui	sp,0xcd8d2
     4e8:	c1f670b7          	lui	ra,0xc1f67
     4ec:	56be61b7          	lui	gp,0x56be6
     4f0:	46268063          	beq	a3,sp,0x950
     4f4:	45c0016f          	jal	sp,0x950
     4f8:	149d51b7          	lui	gp,0x149d5
     4fc:	00108333          	add	t1,ra,ra
     500:	e5eed097          	auipc	ra,0xe5eed
     504:	4e1b31b7          	lui	gp,0x4e1b3
     508:	35ac0197          	auipc	gp,0x35ac0
     50c:	002100b3          	add	ra,sp,sp
     510:	6de8e097          	auipc	ra,0x6de8e
     514:	5281c393          	xori	t2,gp,1320
     518:	bb943137          	lui	sp,0xbb943
     51c:	54516113          	ori	sp,sp,1349
     520:	758b6017          	auipc	zero,0x758b6
     524:	25f683b7          	lui	t2,0x25f68
     528:	0010f0b3          	and	ra,ra,ra
     52c:	0031e033          	or	zero,gp,gp
     530:	b115a0b7          	lui	ra,0xb115a
     534:	ccd26197          	auipc	gp,0xccd26
     538:	526271b7          	lui	gp,0x52627
     53c:	b7897117          	auipc	sp,0xb7897
     540:	00f0c233          	xor	tp,ra,a5
     544:	b10dc0b7          	lui	ra,0xb10dc
     548:	000d61b3          	or	gp,s10,zero
     54c:	d0b23197          	auipc	gp,0xd0b23
     550:	19310113          	addi	sp,sp,403 # 0xffffffffb78976cf
     554:	5011f093          	andi	ra,gp,1281
     558:	a4a30d93          	addi	s11,t1,-1462 # 0x1c04eae
     55c:	8f90e097          	auipc	ra,0x8f90e
     560:	0021e1b3          	or	gp,gp,sp
     564:	bf4a9017          	auipc	zero,0xbf4a9
     568:	d60a5317          	auipc	t1,0xd60a5
     56c:	7e19d137          	lui	sp,0x7e19d
     570:	00010093          	mv	ra,sp
     574:	ba2088e3          	beq	ra,sp,0x124
     578:	5451c313          	xori	t1,gp,1349
     57c:	62cc5197          	auipc	gp,0x62cc5
     580:	402100b3          	sub	ra,sp,sp
     584:	3841f193          	andi	gp,gp,900
     588:	59f17393          	andi	t2,sp,1439
     58c:	8849c037          	lui	zero,0x8849c
     590:	54c27293          	andi	t0,tp,1356
     594:	c7a11117          	auipc	sp,0xc7a11
     598:	0f5622b7          	lui	t0,0xf562
     59c:	620fd097          	auipc	ra,0x620fd
     5a0:	0b08c1b7          	lui	gp,0xb08c
     5a4:	82776337          	lui	t1,0x82776
     5a8:	002049b3          	xor	s3,zero,sp
     5ac:	31ac3117          	auipc	sp,0x31ac3
     5b0:	52b1c693          	xori	a3,gp,1323
     5b4:	89d37093          	andi	ra,t1,-1891
     5b8:	d910e113          	ori	sp,ra,-623
     5bc:	75d07097          	auipc	ra,0x75d07
     5c0:	a7eed2b7          	lui	t0,0xa7eed
     5c4:	40108333          	sub	t1,ra,ra
     5c8:	1ae481b7          	lui	gp,0x1ae48
     5cc:	00036133          	or	sp,t1,zero
     5d0:	003183b3          	add	t2,gp,gp
     5d4:	1f50c093          	xori	ra,ra,501
     5d8:	8c80c193          	xori	gp,ra,-1848
     5dc:	886772b7          	lui	t0,0x88677
     5e0:	403000b3          	neg	ra,gp
     5e4:	bfc5e117          	auipc	sp,0xbfc5e
     5e8:	78010463          	beqz	sp,0xd70
     5ec:	784000ef          	jal	ra,0xd70
     5f0:	e2610693          	addi	a3,sp,-474 # 0xffffffffbfc5e40a
     5f4:	bac0c213          	xori	tp,ra,-1108
     5f8:	ff4d4217          	auipc	tp,0xff4d4
     5fc:	d9f66317          	auipc	t1,0xd9f66
     600:	a082e013          	ori	zero,t0,-1528
     604:	6d1880b7          	lui	ra,0x6d188
     608:	6e728f17          	auipc	t5,0x6e728
     60c:	2669d197          	auipc	gp,0x2669d
     610:	002300b3          	add	ra,t1,sp
     614:	74096437          	lui	s0,0x74096
     618:	106e5137          	lui	sp,0x106e5
     61c:	c55f8117          	auipc	sp,0xc55f8
     620:	eb2d3117          	auipc	sp,0xeb2d3
     624:	00300533          	add	a0,zero,gp
     628:	1e92f293          	andi	t0,t0,489
     62c:	00317133          	and	sp,sp,gp
     630:	e15cd0b7          	lui	ra,0xe15cd
     634:	2c8e3317          	auipc	t1,0x2c8e3
     638:	156e7097          	auipc	ra,0x156e7
     63c:	00538133          	add	sp,t2,t0
     640:	402182b3          	sub	t0,gp,sp
     644:	d515d137          	lui	sp,0xd515d
     648:	ac045297          	auipc	t0,0xac045
     64c:	f2aa1137          	lui	sp,0xf2aa1
     650:	f1b17093          	andi	ra,sp,-229
     654:	9c878113          	addi	sp,a5,-1592 # 0x12c89c8
     658:	a0218113          	addi	sp,gp,-1534 # 0x2669d00e
     65c:	58198137          	lui	sp,0x58198
     660:	4296d0b7          	lui	ra,0x4296d
     664:	d02fe417          	auipc	s0,0xd02fe
     668:	a3fd4117          	auipc	sp,0xa3fd4
     66c:	40510a63          	beq	sp,t0,0xa80
     670:	410001ef          	jal	gp,0xa80
     674:	40408033          	sub	zero,ra,tp
     678:	0031eeb3          	or	t4,gp,gp
     67c:	b5edb1b7          	lui	gp,0xb5edb
     680:	2eab7217          	auipc	tp,0x2eab7
     684:	e610e0b7          	lui	ra,0xe610e
     688:	ff61e117          	auipc	sp,0xff61e
     68c:	6cb130b7          	lui	ra,0x6cb13
     690:	c4ff5017          	auipc	zero,0xc4ff5
     694:	d404c0b7          	lui	ra,0xd404c
     698:	00236133          	or	sp,t1,sp
     69c:	6fe07593          	andi	a1,zero,1790
     6a0:	1dafc097          	auipc	ra,0x1dafc
     6a4:	39218113          	addi	sp,gp,914 # 0xffffffffb5edb392
     6a8:	df387097          	auipc	ra,0xdf387
     6ac:	007070b3          	and	ra,zero,t2
     6b0:	40e25197          	auipc	gp,0x40e25
     6b4:	40118133          	sub	sp,gp,ra
     6b8:	f8bc9137          	lui	sp,0xf8bc9
     6bc:	401185b3          	sub	a1,gp,ra
     6c0:	85a42197          	auipc	gp,0x85a42
     6c4:	727b3337          	lui	t1,0x727b3
     6c8:	49616313          	ori	t1,sp,1174
     6cc:	0030c133          	xor	sp,ra,gp
     6d0:	2cba03b7          	lui	t2,0x2cba0
     6d4:	0022e133          	or	sp,t0,sp
     6d8:	7c5a0137          	lui	sp,0x7c5a0
     6dc:	e6a6b197          	auipc	gp,0xe6a6b
     6e0:	1e994137          	lui	sp,0x1e994
     6e4:	bc947097          	auipc	ra,0xbc947
     6e8:	0aa691b7          	lui	gp,0xaa69
     6ec:	d0c98317          	auipc	t1,0xd0c98
     6f0:	00324133          	xor	sp,tp,gp
     6f4:	42caf197          	auipc	gp,0x42caf
     6f8:	00028293          	mv	t0,t0
     6fc:	12528663          	beq	t0,t0,0x828
     700:	0011e1b3          	or	gp,gp,ra
     704:	00218133          	add	sp,gp,sp
     708:	e9c14213          	xori	tp,sp,-356
     70c:	80fb05b7          	lui	a1,0x80fb0
     710:	e1b201b7          	lui	gp,0xe1b20
     714:	71337113          	andi	sp,t1,1811
     718:	00214233          	xor	tp,sp,sp
     71c:	0001f0b3          	and	ra,gp,zero
     720:	00b1e0b3          	or	ra,gp,a1
     724:	22091217          	auipc	tp,0x22091
     728:	b9336193          	ori	gp,t1,-1133
     72c:	0d677197          	auipc	gp,0xd677
     730:	002140b3          	xor	ra,sp,sp
     734:	7a50f313          	andi	t1,ra,1957
     738:	4f7bd497          	auipc	s1,0x4f7bd
     73c:	762500b7          	lui	ra,0x76250
     740:	ea210093          	addi	ra,sp,-350 # 0x1e993ea2
     744:	21a351b7          	lui	gp,0x21a35
     748:	2b164117          	auipc	sp,0x2b164
     74c:	f8d16093          	ori	ra,sp,-115
     750:	7f5941b7          	lui	gp,0x7f594
     754:	8e210113          	addi	sp,sp,-1822 # 0x2b16402a
     758:	a8aa8113          	addi	sp,s5,-1398 # 0x78eea8a
     75c:	01d10097          	auipc	ra,0x1d10
     760:	0031c133          	xor	sp,gp,gp
     764:	003345b3          	xor	a1,t1,gp
     768:	1ec54113          	xori	sp,a0,492
     76c:	0bcf5797          	auipc	a5,0xbcf5
     770:	0091c233          	xor	tp,gp,s1
     774:	709e91b7          	lui	gp,0x709e9
     778:	0025c133          	xor	sp,a1,sp
     77c:	dde0c613          	xori	a2,ra,-546
     780:	003180b3          	add	ra,gp,gp
     784:	cc757137          	lui	sp,0xcc757
     788:	49717093          	andi	ra,sp,1175
     78c:	c246a2b7          	lui	t0,0xc246a
     790:	d62004e3          	beq	zero,sp,0x4f8
     794:	d65ff1ef          	jal	gp,0x4f8
     798:	55ba3237          	lui	tp,0x55ba3
     79c:	403081b3          	sub	gp,ra,gp
     7a0:	73000113          	li	sp,1840
     7a4:	406180b3          	sub	ra,gp,t1
     7a8:	00210133          	add	sp,sp,sp
     7ac:	e040f093          	andi	ra,ra,-508
     7b0:	9881a1b7          	lui	gp,0x9881a
     7b4:	b22640b7          	lui	ra,0xb2264
     7b8:	7b11e013          	ori	zero,gp,1969
     7bc:	402181b3          	sub	gp,gp,sp
     7c0:	28d1f093          	andi	ra,gp,653
     7c4:	9c5be197          	auipc	gp,0x9c5be
     7c8:	403187b3          	sub	a5,gp,gp
     7cc:	1a6c2a97          	auipc	s5,0x1a6c2
     7d0:	dcd354b7          	lui	s1,0xdcd35
     7d4:	e951e093          	ori	ra,gp,-363
     7d8:	002f0cb3          	add	s9,t5,sp
     7dc:	3dc2f717          	auipc	a4,0x3dc2f
     7e0:	a829f397          	auipc	t2,0xa829f
     7e4:	6110c013          	xori	zero,ra,1553
     7e8:	5631f193          	andi	gp,gp,1379
     7ec:	ccd58217          	auipc	tp,0xccd58
     7f0:	258b20b7          	lui	ra,0x258b2
     7f4:	5e24e137          	lui	sp,0x5e24e
     7f8:	9f5aa097          	auipc	ra,0x9f5aa
     7fc:	1243f137          	lui	sp,0x1243f
     800:	f24130b7          	lui	ra,0xf2413
     804:	2c11b3b7          	lui	t2,0x2c11b
     808:	00217133          	and	sp,sp,sp
     80c:	4c4d4197          	auipc	gp,0x4c4d4
     810:	00774f33          	xor	t5,a4,t2
     814:	72e5d2b7          	lui	t0,0x72e5d
     818:	ded9e0b7          	lui	ra,0xded9e
     81c:	670f61b7          	lui	gp,0x670f6
     820:	00018193          	mv	gp,gp
     824:	863184e3          	beq	gp,gp,0x8c
     828:	185df337          	lui	t1,0x185df
     82c:	2ed0b397          	auipc	t2,0x2ed0b
     830:	a74fc197          	auipc	gp,0xa74fc
     834:	9fb0f113          	andi	sp,ra,-1541
     838:	001160b3          	or	ra,sp,ra
     83c:	c79fd297          	auipc	t0,0xc79fd
     840:	40328133          	sub	sp,t0,gp
     844:	0027c0b3          	xor	ra,a5,sp
     848:	40110333          	sub	t1,sp,ra
     84c:	cd024213          	xori	tp,tp,-816
     850:	40008033          	sub	zero,ra,zero
     854:	0e50e393          	ori	t2,ra,229
     858:	7bc79117          	auipc	sp,0x7bc79
     85c:	001076b3          	and	a3,zero,ra
     860:	e8a08093          	addi	ra,ra,-374 # 0xffffffffded9de8a
     864:	0051e1b3          	or	gp,gp,t0
     868:	969781b7          	lui	gp,0x96978
     86c:	061c4297          	auipc	t0,0x61c4
     870:	16118193          	addi	gp,gp,353 # 0xffffffff96978161
     874:	e6fc9097          	auipc	ra,0xe6fc9
     878:	fc30c113          	xori	sp,ra,-61
     87c:	33a6f197          	auipc	gp,0x33a6f
     880:	258f2137          	lui	sp,0x258f2
     884:	90f1c093          	xori	ra,gp,-1777
     888:	40a10133          	sub	sp,sp,a0
     88c:	0f610093          	addi	ra,sp,246 # 0x258f20f6
     890:	000166b3          	or	a3,sp,zero
     894:	df958117          	auipc	sp,0xdf958
     898:	003161b3          	or	gp,sp,gp
     89c:	07080197          	auipc	gp,0x7080
     8a0:	409100b3          	sub	ra,sp,s1
     8a4:	b880c0b7          	lui	ra,0xb880c
     8a8:	40a210b7          	lui	ra,0x40a21
     8ac:	c2f14113          	xori	sp,sp,-977
     8b0:	b7510213          	addi	tp,sp,-1163 # 0xffffffffdf958409
     8b4:	18418f93          	addi	t6,gp,388 # 0x7080a20
     8b8:	b2300ae3          	beq	zero,gp,0x3ec
     8bc:	b31ff0ef          	jal	ra,0x3ec
     8c0:	002162b3          	or	t0,sp,sp
     8c4:	a7110113          	addi	sp,sp,-1423
     8c8:	4eac2117          	auipc	sp,0x4eac2
     8cc:	a4a51217          	auipc	tp,0xa4a51
     8d0:	98aed0b7          	lui	ra,0x98aed
     8d4:	1c627137          	lui	sp,0x1c627
     8d8:	cd94e237          	lui	tp,0xcd94e
     8dc:	1af1c113          	xori	sp,gp,431
     8e0:	16923097          	auipc	ra,0x16923
     8e4:	4d010113          	addi	sp,sp,1232 # 0x1c6274d0
     8e8:	002175b3          	and	a1,sp,sp
     8ec:	f338e117          	auipc	sp,0xf338e
     8f0:	4eb0f093          	andi	ra,ra,1259
     8f4:	a581e193          	ori	gp,gp,-1448
     8f8:	12d10093          	addi	ra,sp,301 # 0xfffffffff338ea19
     8fc:	0f223317          	auipc	t1,0xf223
     900:	1645b297          	auipc	t0,0x1645b
     904:	4e9cc197          	auipc	gp,0x4e9cc
     908:	56e40137          	lui	sp,0x56e40
     90c:	00300233          	add	tp,zero,gp
     910:	003343b3          	xor	t2,t1,gp
     914:	9fb06713          	ori	a4,zero,-1541
     918:	5f257097          	auipc	ra,0x5f257
     91c:	e4684317          	auipc	t1,0xe4684
     920:	349da197          	auipc	gp,0x349da
     924:	be6eb0b7          	lui	ra,0xbe6eb
     928:	b276b197          	auipc	gp,0xb276b
     92c:	fb81c113          	xori	sp,gp,-72
     930:	0021f133          	and	sp,gp,sp
     934:	d5212097          	auipc	ra,0xd5212
     938:	aa134393          	xori	t2,t1,-1375
     93c:	d94632b7          	lui	t0,0xd9463
     940:	004160b3          	or	ra,sp,tp
     944:	de49f397          	auipc	t2,0xde49f
     948:	00008113          	mv	sp,ra
     94c:	a21102e3          	beq	sp,ra,0x370
     950:	492bd137          	lui	sp,0x492bd
     954:	7eea7117          	auipc	sp,0x7eea7
     958:	88c43197          	auipc	gp,0x88c43
     95c:	ea2d0137          	lui	sp,0xea2d0
     960:	0020e1b3          	or	gp,ra,sp
     964:	b0c14093          	xori	ra,sp,-1268
     968:	56ed6117          	auipc	sp,0x56ed6
     96c:	33118193          	addi	gp,gp,817 # 0xffffffff88c43c89
     970:	0ceff117          	auipc	sp,0xceff
     974:	d0832117          	auipc	sp,0xd0832
     978:	c099b1b7          	lui	gp,0xc099b
     97c:	aa13f193          	andi	gp,t2,-1375
     980:	48b255b7          	lui	a1,0x48b25
     984:	ef0b30b7          	lui	ra,0xef0b3
     988:	9f2ff1b7          	lui	gp,0x9f2ff
     98c:	007180b3          	add	ra,gp,t2
     990:	a4c71197          	auipc	gp,0xa4c71
     994:	003280b3          	add	ra,t0,gp
     998:	75c08093          	addi	ra,ra,1884 # 0xffffffffef0b375c
     99c:	23d14113          	xori	sp,sp,573
     9a0:	0013c2b3          	xor	t0,t2,ra
     9a4:	0c7a50b7          	lui	ra,0xc7a5
     9a8:	14628193          	addi	gp,t0,326 # 0xffffffffd9463146
     9ac:	d90a1117          	auipc	sp,0xd90a1
     9b0:	37db1217          	auipc	tp,0x37db1
     9b4:	bfb18293          	addi	t0,gp,-1029 # 0xffffffffa4c7158b
     9b8:	d7516113          	ori	sp,sp,-651
     9bc:	9bdaf297          	auipc	t0,0x9bdaf
     9c0:	00d0c2b3          	xor	t0,ra,a3
     9c4:	0b9b7037          	lui	zero,0xb9b7
     9c8:	7a9af217          	auipc	tp,0x7a9af
     9cc:	f2516313          	ori	t1,sp,-219
     9d0:	48daa397          	auipc	t2,0x48daa
     9d4:	11408093          	addi	ra,ra,276 # 0xc7a5114
     9d8:	0012c133          	xor	sp,t0,ra
     9dc:	00118133          	add	sp,gp,ra
     9e0:	403580b3          	sub	ra,a1,gp
     9e4:	401c01b3          	sub	gp,s8,ra
     9e8:	13e76237          	lui	tp,0x13e76
     9ec:	25c9f137          	lui	sp,0x25c9f
     9f0:	00010113          	mv	sp,sp
     9f4:	da2102e3          	beq	sp,sp,0x798
     9f8:	31d0f193          	andi	gp,ra,797
     9fc:	3449e0b7          	lui	ra,0x3449e
     a00:	c7804113          	xori	sp,zero,-904
     a04:	001181b3          	add	gp,gp,ra
     a08:	47508013          	addi	zero,ra,1141 # 0x3449e475
     a0c:	004180b3          	add	ra,gp,tp
     a10:	57817093          	andi	ra,sp,1400
     a14:	395b20b7          	lui	ra,0x395b2
     a18:	aa8661b7          	lui	gp,0xaa866
     a1c:	148df137          	lui	sp,0x148df
     a20:	06ac30b7          	lui	ra,0x6ac3
     a24:	65d59197          	auipc	gp,0x65d59
     a28:	017f9317          	auipc	t1,0x17f9
     a2c:	f3fd11b7          	lui	gp,0xf3fd1
     a30:	003101b3          	add	gp,sp,gp
     a34:	00116133          	or	sp,sp,ra
     a38:	21d58097          	auipc	ra,0x21d58
     a3c:	1ad1c793          	xori	a5,gp,429
     a40:	a3aa1097          	auipc	ra,0xa3aa1
     a44:	0015f3b3          	and	t2,a1,ra
     a48:	c3126117          	auipc	sp,0xc3126
     a4c:	002100b3          	add	ra,sp,sp
     a50:	6df00193          	li	gp,1759
     a54:	0030e1b3          	or	gp,ra,gp
     a58:	e93811b7          	lui	gp,0xe9381
     a5c:	cc40f313          	andi	t1,ra,-828
     a60:	77fd1117          	auipc	sp,0x77fd1
     a64:	aa5366b7          	lui	a3,0xaa536
     a68:	006171b3          	and	gp,sp,t1
     a6c:	47e7d137          	lui	sp,0x47e7d
     a70:	0010e1b3          	or	gp,ra,ra
     a74:	eae5d1b7          	lui	gp,0xeae5d
     a78:	00010193          	mv	gp,sp
     a7c:	9e218ce3          	beq	gp,sp,0x474
     a80:	00326133          	or	sp,tp,gp
     a84:	d8eb60b7          	lui	ra,0xd8eb6
     a88:	b7f18313          	addi	t1,gp,-1153 # 0xffffffffeae5cb7f
     a8c:	993f3137          	lui	sp,0x993f3
     a90:	02f09117          	auipc	sp,0x2f09
     a94:	0011f0b3          	and	ra,gp,ra
     a98:	001382b3          	add	t0,t2,ra
     a9c:	0c5e31b7          	lui	gp,0xc5e3
     aa0:	004164b3          	or	s1,sp,tp
     aa4:	817d7097          	auipc	ra,0x817d7
     aa8:	400081b3          	sub	gp,ra,zero
     aac:	68fe4317          	auipc	t1,0x68fe4
     ab0:	00617333          	and	t1,sp,t1
     ab4:	c595c397          	auipc	t2,0xc595c
     ab8:	586ab097          	auipc	ra,0x586ab
     abc:	93d27337          	lui	t1,0x93d27
     ac0:	00118133          	add	sp,gp,ra
     ac4:	63cf2497          	auipc	s1,0x63cf2
     ac8:	367200b7          	lui	ra,0x36720
     acc:	002141b3          	xor	gp,sp,sp
     ad0:	40d103b3          	sub	t2,sp,a3
     ad4:	00327133          	and	sp,tp,gp
     ad8:	2eae5017          	auipc	zero,0x2eae5
     adc:	4df10013          	addi	zero,sp,1247 # 0x2f09f6f
     ae0:	89800337          	lui	t1,0x89800
     ae4:	2de29937          	lui	s2,0x2de29
     ae8:	77d1c013          	xori	zero,gp,1917
     aec:	00520f33          	add	t5,tp,t0
     af0:	8cf26093          	ori	ra,tp,-1841
     af4:	9b916193          	ori	gp,sp,-1607
     af8:	a467c093          	xori	ra,a5,-1466
     afc:	00118033          	add	zero,gp,ra
     b00:	9e6e5237          	lui	tp,0x9e6e5
     b04:	00e0f133          	and	sp,ra,a4
     b08:	07508793          	addi	a5,ra,117 # 0x36720075
     b0c:	00000197          	auipc	gp,0x0
     b10:	db4183e7          	jalr	t2,-588(gp) # 0x8c0
     b14:	9e828117          	auipc	sp,0x9e828
     b18:	9b9cd117          	auipc	sp,0x9b9cd
     b1c:	ce53d097          	auipc	ra,0xce53d
     b20:	0892b237          	lui	tp,0x892b
     b24:	37003197          	auipc	gp,0x37003
     b28:	c0b0f113          	andi	sp,ra,-1013
     b2c:	bef43117          	auipc	sp,0xbef43
     b30:	5d91c093          	xori	ra,gp,1497
     b34:	cec30193          	addi	gp,t1,-788 # 0xffffffff897ffcec
     b38:	5dd0f0b7          	lui	ra,0x5dd0f
     b3c:	00506133          	or	sp,zero,t0
     b40:	1fd17193          	andi	gp,sp,509
     b44:	9d8f80b7          	lui	ra,0x9d8f8
     b48:	25b1c393          	xori	t2,gp,603
     b4c:	4b810193          	addi	gp,sp,1208 # 0xffffffffbef43fe4
     b50:	644c60b7          	lui	ra,0x644c6
     b54:	40208133          	sub	sp,ra,sp
     b58:	b833f0b7          	lui	ra,0xb833f
     b5c:	04ae1097          	auipc	ra,0x4ae1
     b60:	0021e133          	or	sp,gp,sp
     b64:	29ca21b7          	lui	gp,0x29ca2
     b68:	e20180b7          	lui	ra,0xe2018
     b6c:	6a6f9297          	auipc	t0,0x6a6f9
     b70:	a2f1f213          	andi	tp,gp,-1489
     b74:	001180b3          	add	ra,gp,ra
     b78:	40618133          	sub	sp,gp,t1
     b7c:	81ac7197          	auipc	gp,0x81ac7
     b80:	6530c193          	xori	gp,ra,1619
     b84:	193fc397          	auipc	t2,0x193fc
     b88:	ba917313          	andi	t1,sp,-1111
     b8c:	6019d1b7          	lui	gp,0x6019d
     b90:	003180b3          	add	ra,gp,gp
     b94:	8a4040b7          	lui	ra,0x8a404
     b98:	b3330597          	auipc	a1,0xb3330
     b9c:	6850a117          	auipc	sp,0x6850a
     ba0:	403100b3          	sub	ra,sp,gp
     ba4:	9dcea197          	auipc	gp,0x9dcea
     ba8:	0011c0b3          	xor	ra,gp,ra
     bac:	a461f197          	auipc	gp,0xa461f
     bb0:	00710263          	beq	sp,t2,0xbb4
     bb4:	e98ff26f          	jal	tp,0x24c
     bb8:	26a23297          	auipc	t0,0x26a23
     bbc:	406100b3          	sub	ra,sp,t1
     bc0:	1b9b10b7          	lui	ra,0x1b9b1
     bc4:	c3f17313          	andi	t1,sp,-961
     bc8:	8825f137          	lui	sp,0x8825f
     bcc:	007141b3          	xor	gp,sp,t2
     bd0:	f6620097          	auipc	ra,0xf6620
     bd4:	00316333          	or	t1,sp,gp
     bd8:	f7810093          	addi	ra,sp,-136 # 0xffffffff8825ef78
     bdc:	8974a137          	lui	sp,0x8974a
     be0:	003361b3          	or	gp,t1,gp
     be4:	595572b7          	lui	t0,0x59557
     be8:	cec37193          	andi	gp,t1,-788
     bec:	562c9197          	auipc	gp,0x562c9
     bf0:	7e23c093          	xori	ra,t2,2018
     bf4:	49430337          	lui	t1,0x49430
     bf8:	aa348317          	auipc	t1,0xaa348
     bfc:	9533e113          	ori	sp,t2,-1709
     c00:	dc248113          	addi	sp,s1,-574 # 0x63cf2886
     c04:	df3b9137          	lui	sp,0xdf3b9
     c08:	6e90e393          	ori	t2,ra,1769
     c0c:	610f6193          	ori	gp,t5,1552
     c10:	fea8f097          	auipc	ra,0xfea8f
     c14:	e7a3e0b7          	lui	ra,0xe7a3e
     c18:	c1d2a1b7          	lui	gp,0xc1d2a
     c1c:	cb51c113          	xori	sp,gp,-843
     c20:	bc86e317          	auipc	t1,0xbc86e
     c24:	7af16093          	ori	ra,sp,1967
     c28:	fe81c093          	xori	ra,gp,-24
     c2c:	6d493197          	auipc	gp,0x6d493
     c30:	b45fa197          	auipc	gp,0xb45fa
     c34:	e170e113          	ori	sp,ra,-489
     c38:	01e1f0b3          	and	ra,gp,t5
     c3c:	00038113          	mv	sp,t2
     c40:	24710063          	beq	sp,t2,0xe80
     c44:	5576b2b7          	lui	t0,0x5576b
     c48:	a91cd097          	auipc	ra,0xa91cd
     c4c:	00208133          	add	sp,ra,sp
     c50:	003101b3          	add	gp,sp,gp
     c54:	c7f830b7          	lui	ra,0xc7f83
     c58:	93f9f797          	auipc	a5,0x93f9f
     c5c:	844d5137          	lui	sp,0x844d5
     c60:	91068093          	addi	ra,a3,-1776 # 0xffffffffaa535910
     c64:	f72dd037          	lui	zero,0xf72dd
     c68:	00210133          	add	sp,sp,sp
     c6c:	0040f0b3          	and	ra,ra,tp
     c70:	4978a1b7          	lui	gp,0x4978a
     c74:	9d32c313          	xori	t1,t0,-1581
     c78:	c930b197          	auipc	gp,0xc930b
     c7c:	b9ec80b7          	lui	ra,0xb9ec8
     c80:	0041f0b3          	and	ra,gp,tp
     c84:	ded10793          	addi	a5,sp,-531 # 0xffffffff844d4ded
     c88:	768431b7          	lui	gp,0x76843
     c8c:	00f080b3          	add	ra,ra,a5
     c90:	7a811117          	auipc	sp,0x7a811
     c94:	c72bd0b7          	lui	ra,0xc72bd
     c98:	40a100b3          	sub	ra,sp,a0
     c9c:	0270f193          	andi	gp,ra,39
     ca0:	97cc7297          	auipc	t0,0x97cc7
     ca4:	c0608293          	addi	t0,ra,-1018 # 0xffffffffc72bcc06
     ca8:	0001e1b3          	or	gp,gp,zero
     cac:	0011c2b3          	xor	t0,gp,ra
     cb0:	002174b3          	and	s1,sp,sp
     cb4:	06d55197          	auipc	gp,0x6d55
     cb8:	6e2dd017          	auipc	zero,0x6e2dd
     cbc:	eb29c337          	lui	t1,0xeb29c
     cc0:	69b26293          	ori	t0,tp,1691
     cc4:	00610333          	add	t1,sp,t1
     cc8:	406183b3          	sub	t2,gp,t1
     ccc:	84c16393          	ori	t2,sp,-1972
     cd0:	00018213          	mv	tp,gp
     cd4:	36320663          	beq	tp,gp,0x1040
     cd8:	e25de1b7          	lui	gp,0xe25de
     cdc:	1e683197          	auipc	gp,0x1e683
     ce0:	9328d097          	auipc	ra,0x9328d
     ce4:	6a1bf097          	auipc	ra,0x6a1bf
     ce8:	0010c1b3          	xor	gp,ra,ra
     cec:	8d65e097          	auipc	ra,0x8d65e
     cf0:	d3fbd137          	lui	sp,0xd3fbd
     cf4:	9471e113          	ori	sp,gp,-1721
     cf8:	401e01b3          	sub	gp,t3,ra
     cfc:	81008317          	auipc	t1,0x81008
     d00:	00606333          	or	t1,zero,t1
     d04:	2d8621b7          	lui	gp,0x2d862
     d08:	0010c1b3          	xor	gp,ra,ra
     d0c:	00316333          	or	t1,sp,gp
     d10:	955ad197          	auipc	gp,0x955ad
     d14:	76608193          	addi	gp,ra,1894 # 0xffffffff8d65f452
     d18:	8f822137          	lui	sp,0x8f822
     d1c:	b590f113          	andi	sp,ra,-1191
     d20:	8eabd697          	auipc	a3,0x8eabd
     d24:	54e1e113          	ori	sp,gp,1358
     d28:	217ec117          	auipc	sp,0x217ec
     d2c:	a9b10093          	addi	ra,sp,-1381 # 0x217ec7c3
     d30:	c5b0f193          	andi	gp,ra,-933
     d34:	b0b2c137          	lui	sp,0xb0b2c
     d38:	10010093          	addi	ra,sp,256 # 0xffffffffb0b2c100
     d3c:	0031c1b3          	xor	gp,gp,gp
     d40:	0000c1b3          	xor	gp,ra,zero
     d44:	b78fd1b7          	lui	gp,0xb78fd
     d48:	0da8f137          	lui	sp,0xda8f
     d4c:	baa501b7          	lui	gp,0xbaa50
     d50:	f6efd197          	auipc	gp,0xf6efd
     d54:	7393e113          	ori	sp,t2,1849
     d58:	34a18013          	addi	zero,gp,842 # 0xfffffffff6efe09a
     d5c:	8f7e7197          	auipc	gp,0x8f7e7
     d60:	001260b3          	or	ra,tp,ra
     d64:	414951b7          	lui	gp,0x41495
     d68:	00008993          	mv	s3,ra
     d6c:	5a198063          	beq	s3,ra,0x130c
     d70:	403182b3          	sub	t0,gp,gp
     d74:	40118133          	sub	sp,gp,ra
     d78:	0031e1b3          	or	gp,gp,gp
     d7c:	dd4b21b7          	lui	gp,0xdd4b2
     d80:	0030e1b3          	or	gp,ra,gp
     d84:	0031e133          	or	sp,gp,gp
     d88:	38c0f193          	andi	gp,ra,908
     d8c:	f0fac117          	auipc	sp,0xf0fac
     d90:	99f90117          	auipc	sp,0x99f90
     d94:	9d259f37          	lui	t5,0x9d259
     d98:	c2ed7137          	lui	sp,0xc2ed7
     d9c:	29206293          	ori	t0,zero,658
     da0:	401187b3          	sub	a5,gp,ra
     da4:	83084137          	lui	sp,0x83084
     da8:	0c307017          	auipc	zero,0xc307
     dac:	c8705217          	auipc	tp,0xc8705
     db0:	bab801b7          	lui	gp,0xbab80
     db4:	b4867ab7          	lui	s5,0xb4867
     db8:	96c2a537          	lui	a0,0x96c2a
     dbc:	9f40d117          	auipc	sp,0x9f40d
     dc0:	5351c193          	xori	gp,gp,1333
     dc4:	ec20f393          	andi	t2,ra,-318
     dc8:	bd5c7117          	auipc	sp,0xbd5c7
     dcc:	c96c8317          	auipc	t1,0xc96c8
     dd0:	b77f6137          	lui	sp,0xb77f6
     dd4:	94404117          	auipc	sp,0x94404
     dd8:	5881f113          	andi	sp,gp,1416
     ddc:	7c2bdf17          	auipc	t5,0x7c2bd
     de0:	be5b43b7          	lui	t2,0xbe5b4
     de4:	0010e2b3          	or	t0,ra,ra
     de8:	4fc18093          	addi	ra,gp,1276 # 0xffffffffbab804fc
     dec:	00016133          	or	sp,sp,zero
     df0:	00000317          	auipc	t1,0x0
     df4:	ee830167          	jalr	sp,-280(t1) # 0xcd8
     df8:	ecd7f137          	lui	sp,0xecd7f
     dfc:	00314233          	xor	tp,sp,gp
     e00:	ef03f113          	andi	sp,t2,-272
     e04:	5442f1b7          	lui	gp,0x5442f
     e08:	35217113          	andi	sp,sp,850
     e0c:	ff7e53b7          	lui	t2,0xff7e5
     e10:	9c30f113          	andi	sp,ra,-1597
     e14:	fb8330b7          	lui	ra,0xfb833
     e18:	002161b3          	or	gp,sp,sp
     e1c:	6c7ee217          	auipc	tp,0x6c7ee
     e20:	c25501b7          	lui	gp,0xc2550
     e24:	1cfbc117          	auipc	sp,0x1cfbc
     e28:	9b10e113          	ori	sp,ra,-1615
     e2c:	0641f293          	andi	t0,gp,100
     e30:	035b0117          	auipc	sp,0x35b0
     e34:	4da14117          	auipc	sp,0x4da14
     e38:	ec817093          	andi	ra,sp,-312
     e3c:	4031f193          	andi	gp,gp,1027
     e40:	1fd49397          	auipc	t2,0x1fd49
     e44:	00210033          	add	zero,sp,sp
     e48:	00818d13          	addi	s10,gp,8 # 0xffffffffc2550008
     e4c:	406100b3          	sub	ra,sp,t1
     e50:	027e0117          	auipc	sp,0x27e0
     e54:	0fc0c193          	xori	gp,ra,252
     e58:	dd17b397          	auipc	t2,0xdd17b
     e5c:	ce220093          	addi	ra,tp,-798 # 0x6c7eeafe
     e60:	2c4dd117          	auipc	sp,0x2c4dd
     e64:	fe91c193          	xori	gp,gp,-23
     e68:	002171b3          	and	gp,sp,sp
     e6c:	fef3b137          	lui	sp,0xfef3b
     e70:	6b947197          	auipc	gp,0x6b947
     e74:	6e00e0b7          	lui	ra,0x6e00e
     e78:	01f18263          	beq	gp,t6,0xe7c
     e7c:	258011ef          	jal	gp,0x20d4
     e80:	72ad5117          	auipc	sp,0x72ad5
     e84:	c48c40b7          	lui	ra,0xc48c4
     e88:	00108133          	add	sp,ra,ra
     e8c:	00538033          	add	zero,t2,t0
     e90:	7b57c097          	auipc	ra,0x7b57c
     e94:	1b1a40b7          	lui	ra,0x1b1a4
     e98:	40208333          	sub	t1,ra,sp
     e9c:	1fd08113          	addi	sp,ra,509 # 0x1b1a41fd
     ea0:	25cb3137          	lui	sp,0x25cb3
     ea4:	f0b1c113          	xori	sp,gp,-245
     ea8:	e0526497          	auipc	s1,0xe0526
     eac:	d42af1b7          	lui	gp,0xd42af
     eb0:	00208133          	add	sp,ra,sp
     eb4:	0040e0b3          	or	ra,ra,tp
     eb8:	0033b337          	lui	t1,0x33b
     ebc:	108160b7          	lui	ra,0x10816
     ec0:	00016133          	or	sp,sp,zero
     ec4:	e6289197          	auipc	gp,0xe6289
     ec8:	b6b1e093          	ori	ra,gp,-1173
     ecc:	6ce64137          	lui	sp,0x6ce64
     ed0:	0671f113          	andi	sp,gp,103
     ed4:	003369b3          	or	s3,t1,gp
     ed8:	6741f113          	andi	sp,gp,1652
     edc:	d76f4097          	auipc	ra,0xd76f4
     ee0:	378c0137          	lui	sp,0x378c0
     ee4:	04dbb2b7          	lui	t0,0x4dbb
     ee8:	07ff1237          	lui	tp,0x7ff1
     eec:	ae8ed117          	auipc	sp,0xae8ed
     ef0:	81e62137          	lui	sp,0x81e62
     ef4:	006ac133          	xor	sp,s5,t1
     ef8:	7623c093          	xori	ra,t2,1890
     efc:	465b1017          	auipc	zero,0x465b1
     f00:	003180b3          	add	ra,gp,gp
     f04:	5c620093          	addi	ra,tp,1478 # 0x7ff15c6
     f08:	c1c281b7          	lui	gp,0xc1c28
     f0c:	b11d0117          	auipc	sp,0xb11d0
     f10:	e55ef117          	auipc	sp,0xe55ef
     f14:	48618c63          	beq	gp,t1,0x13ac
     f18:	494004ef          	jal	s1,0x13ac
     f1c:	0051c1b3          	xor	gp,gp,t0
     f20:	baa361b7          	lui	gp,0xbaa36
     f24:	00217133          	and	sp,sp,sp
     f28:	87e08113          	addi	sp,ra,-1922 # 0xffffffffd76f475a
     f2c:	001171b3          	and	gp,sp,ra
     f30:	eae20093          	addi	ra,tp,-338 # 0xfffffffffffffeae
     f34:	0010c133          	xor	sp,ra,ra
     f38:	6451c393          	xori	t2,gp,1605
     f3c:	5c400093          	li	ra,1476
     f40:	68b0c013          	xori	zero,ra,1675
     f44:	adcfa097          	auipc	ra,0xadcfa
     f48:	40210033          	sub	zero,sp,sp
     f4c:	fc60f113          	andi	sp,ra,-58
     f50:	0030e3b3          	or	t2,ra,gp
     f54:	266e3137          	lui	sp,0x266e3
     f58:	91918213          	addi	tp,gp,-1767 # 0xffffffffbaa35919
     f5c:	8eb17e93          	andi	t4,sp,-1813
     f60:	0631e113          	ori	sp,gp,99
     f64:	dfe9c097          	auipc	ra,0xdfe9c
     f68:	98e5e137          	lui	sp,0x98e5e
     f6c:	76d15017          	auipc	zero,0x76d15
     f70:	006179b3          	and	s3,sp,t1
     f74:	ffc1c113          	xori	sp,gp,-4
     f78:	0024e3b3          	or	t2,s1,sp
     f7c:	4cbb7497          	auipc	s1,0x4cbb7
     f80:	0010c233          	xor	tp,ra,ra
     f84:	56308213          	addi	tp,ra,1379 # 0xffffffffdfe9d4c7
     f88:	0010c333          	xor	t1,ra,ra
     f8c:	b400c313          	xori	t1,ra,-1216
     f90:	f9a971b7          	lui	gp,0xf9a97
     f94:	a2214093          	xori	ra,sp,-1502
     f98:	c12d91b7          	lui	gp,0xc12d9
     f9c:	5a9900b7          	lui	ra,0x5a990
     fa0:	00010493          	mv	s1,sp
     fa4:	12248263          	beq	s1,sp,0x10c8
     fa8:	40d181b3          	sub	gp,gp,a3
     fac:	1218f117          	auipc	sp,0x1218f
     fb0:	5d7ea197          	auipc	gp,0x5d7ea
     fb4:	ed11fb37          	lui	s6,0xed11f
     fb8:	df664597          	auipc	a1,0xdf664
     fbc:	fee1a1b7          	lui	gp,0xfee1a
     fc0:	dff27093          	andi	ra,tp,-513
     fc4:	091e2117          	auipc	sp,0x91e2
     fc8:	d4818093          	addi	ra,gp,-696 # 0xfffffffffee19d48
     fcc:	66533937          	lui	s2,0x66533
     fd0:	018080b3          	add	ra,ra,s8
     fd4:	40118133          	sub	sp,gp,ra
     fd8:	34690093          	addi	ra,s2,838 # 0x66533346
     fdc:	b9d45097          	auipc	ra,0xb9d45
     fe0:	ca30d097          	auipc	ra,0xca30d
     fe4:	2df2e113          	ori	sp,t0,735
     fe8:	665ff197          	auipc	gp,0x665ff
     fec:	0011e1b3          	or	gp,gp,ra
     ff0:	2b6a1117          	auipc	sp,0x2b6a1
     ff4:	70647137          	lui	sp,0x70647
     ff8:	0020e1b3          	or	gp,ra,sp
     ffc:	0931e093          	ori	ra,gp,147
    1000:	690f9137          	lui	sp,0x690f9
    1004:	a48cc217          	auipc	tp,0xa48cc
    1008:	e06510b7          	lui	ra,0xe0651
    100c:	0010e0b3          	or	ra,ra,ra
    1010:	5bd80197          	auipc	gp,0x5bd80
    1014:	eef0e393          	ori	t2,ra,-273
    1018:	d4ece137          	lui	sp,0xd4ece
    101c:	d751e093          	ori	ra,gp,-651
    1020:	0031f0b3          	and	ra,gp,gp
    1024:	007180b3          	add	ra,gp,t2
    1028:	411e81b7          	lui	gp,0x411e8
    102c:	da264317          	auipc	t1,0xda264
    1030:	c867a337          	lui	t1,0xc867a
    1034:	76018237          	lui	tp,0x76018
    1038:	4a178063          	beq	a5,ra,0x14d8
    103c:	49c0036f          	jal	t1,0x14d8
    1040:	0070c133          	xor	sp,ra,t2
    1044:	fbd54037          	lui	zero,0xfbd54
    1048:	205400b7          	lui	ra,0x20540
    104c:	56ecf3b7          	lui	t2,0x56ecf
    1050:	43a0c093          	xori	ra,ra,1082
    1054:	21c105b7          	lui	a1,0x21c10
    1058:	8d9503b7          	lui	t2,0x8d950
    105c:	4b52a197          	auipc	gp,0x4b52a
    1060:	8d2eb497          	auipc	s1,0x8d2eb
    1064:	30e92097          	auipc	ra,0x30e92
    1068:	903a6117          	auipc	sp,0x903a6
    106c:	001170b3          	and	ra,sp,ra
    1070:	002180b3          	add	ra,gp,sp
    1074:	f732c893          	xori	a7,t0,-141
    1078:	0281c193          	xori	gp,gp,40
    107c:	60b18193          	addi	gp,gp,1547 # 0x4b52b667
    1080:	0804b117          	auipc	sp,0x804b
    1084:	56dd9137          	lui	sp,0x56dd9
    1088:	819421b7          	lui	gp,0x81942
    108c:	f29780b7          	lui	ra,0xf2978
    1090:	4b33d197          	auipc	gp,0x4b33d
    1094:	5ed54017          	auipc	zero,0x5ed54
    1098:	0030f0b3          	and	ra,ra,gp
    109c:	003081b3          	add	gp,ra,gp
    10a0:	b5dc60b7          	lui	ra,0xb5dc6
    10a4:	a3a18093          	addi	ra,gp,-1478 # 0x4b33daca
    10a8:	00558693          	addi	a3,a1,5 # 0x21c10005
    10ac:	dbe18093          	addi	ra,gp,-578
    10b0:	3333a137          	lui	sp,0x3333a
    10b4:	a79210b7          	lui	ra,0xa7921
    10b8:	a74260b7          	lui	ra,0xa7426
    10bc:	002163b3          	or	t2,sp,sp
    10c0:	5c618463          	beq	gp,t1,0x1688
    10c4:	5c4000ef          	jal	ra,0x1688
    10c8:	d2107113          	andi	sp,zero,-735
    10cc:	b871f193          	andi	gp,gp,-1145
    10d0:	5b625817          	auipc	a6,0x5b625
    10d4:	d9d9d1b7          	lui	gp,0xd9d9d
    10d8:	0043c1b3          	xor	gp,t2,tp
    10dc:	5350e093          	ori	ra,ra,1333
    10e0:	f3c4b097          	auipc	ra,0xf3c4b
    10e4:	01ae00b7          	lui	ra,0x1ae0
    10e8:	0031c0b3          	xor	ra,gp,gp
    10ec:	0000f133          	and	sp,ra,zero
    10f0:	d525c197          	auipc	gp,0xd525c
    10f4:	bed16213          	ori	tp,sp,-1043
    10f8:	001181b3          	add	gp,gp,ra
    10fc:	71bf1197          	auipc	gp,0x71bf1
    1100:	d971a1b7          	lui	gp,0xd971a
    1104:	b7416193          	ori	gp,sp,-1164
    1108:	40b08133          	sub	sp,ra,a1
    110c:	003481b3          	add	gp,s1,gp
    1110:	f34e6117          	auipc	sp,0xf34e6
    1114:	6bf581b7          	lui	gp,0x6bf58
    1118:	d2449bb7          	lui	s7,0xd2449
    111c:	d8fe9897          	auipc	a7,0xd8fe9
    1120:	13892337          	lui	t1,0x13892
    1124:	00337033          	and	zero,t1,gp
    1128:	5ee0f193          	andi	gp,ra,1518
    112c:	460800b7          	lui	ra,0x46080
    1130:	0011f133          	and	sp,gp,ra
    1134:	0000c133          	xor	sp,ra,zero
    1138:	02bf4317          	auipc	t1,0x2bf4
    113c:	8e4a2137          	lui	sp,0x8e4a2
    1140:	415081b3          	sub	gp,ra,s5
    1144:	dbe0c693          	xori	a3,ra,-578
    1148:	3743c137          	lui	sp,0x3743c
    114c:	c0ce6197          	auipc	gp,0xc0ce6
    1150:	13e1e793          	ori	a5,gp,318
    1154:	00000197          	auipc	gp,0x0
    1158:	008180e7          	jalr	8(gp) # 0x115c
    115c:	94006313          	ori	t1,zero,-1728
    1160:	05096197          	auipc	gp,0x5096
    1164:	002280b3          	add	ra,t0,sp
    1168:	0021e1b3          	or	gp,gp,sp
    116c:	0f30f193          	andi	gp,ra,243
    1170:	83acc337          	lui	t1,0x83acc
    1174:	59d6d097          	auipc	ra,0x59d6d
    1178:	ab6e50b7          	lui	ra,0xab6e5
    117c:	73f2a117          	auipc	sp,0x73f2a
    1180:	407282b3          	sub	t0,t0,t2
    1184:	0021e0b3          	or	ra,gp,sp
    1188:	7c19a197          	auipc	gp,0x7c19a
    118c:	19e14137          	lui	sp,0x19e14
    1190:	df342437          	lui	s0,0xdf342
    1194:	7c3650b7          	lui	ra,0x7c365
    1198:	4d6ee197          	auipc	gp,0x4d6ee
    119c:	15a0c093          	xori	ra,ra,346
    11a0:	9364c137          	lui	sp,0x9364c
    11a4:	bcc61137          	lui	sp,0xbcc61
    11a8:	254f41b7          	lui	gp,0x254f4
    11ac:	0ea6a097          	auipc	ra,0xea6a
    11b0:	8039d137          	lui	sp,0x8039d
    11b4:	00116133          	or	sp,sp,ra
    11b8:	f91ee237          	lui	tp,0xf91ee
    11bc:	003201b3          	add	gp,tp,gp
    11c0:	65b0b117          	auipc	sp,0x65b0b
    11c4:	0042e033          	or	zero,t0,tp
    11c8:	0051c1b3          	xor	gp,gp,t0
    11cc:	9a796197          	auipc	gp,0x9a796
    11d0:	deaec197          	auipc	gp,0xdeaec
    11d4:	acf07113          	andi	sp,zero,-1329
    11d8:	69220193          	addi	gp,tp,1682 # 0xfffffffff91ee692
    11dc:	43329317          	auipc	t1,0x43329
    11e0:	80e1f113          	andi	sp,gp,-2034
    11e4:	1e304113          	xori	sp,zero,483
    11e8:	7b55a1b7          	lui	gp,0x7b55a
    11ec:	00018093          	mv	ra,gp
    11f0:	00308263          	beq	ra,gp,0x11f4
    11f4:	d1660117          	auipc	sp,0xd1660
    11f8:	0981f213          	andi	tp,gp,152
    11fc:	ba108313          	addi	t1,ra,-1119 # 0xea6ad4d
    1200:	002043b3          	xor	t2,zero,sp
    1204:	f2557137          	lui	sp,0xf2557
    1208:	2057f317          	auipc	t1,0x2057f
    120c:	b28db117          	auipc	sp,0xb28db
    1210:	400101b3          	sub	gp,sp,zero
    1214:	dc400117          	auipc	sp,0xdc400
    1218:	a6216093          	ori	ra,sp,-1438
    121c:	6dfb0497          	auipc	s1,0x6dfb0
    1220:	3d79b137          	lui	sp,0x3d79b
    1224:	83206193          	ori	gp,zero,-1998
    1228:	2d008197          	auipc	gp,0x2d008
    122c:	40418133          	sub	sp,gp,tp
    1230:	061a51b7          	lui	gp,0x61a5
    1234:	01e79037          	lui	zero,0x1e79
    1238:	b2217393          	andi	t2,sp,-1246
    123c:	a4508113          	addi	sp,ra,-1467
    1240:	001141b3          	xor	gp,sp,ra
    1244:	bb876097          	auipc	ra,0xbb876
    1248:	04716113          	ori	sp,sp,71
    124c:	001600b3          	add	ra,a2,ra
    1250:	d6c14113          	xori	sp,sp,-660
    1254:	0b610013          	addi	zero,sp,182 # 0x3d79b0b6
    1258:	aec86213          	ori	tp,a6,-1300
    125c:	96827213          	andi	tp,tp,-1688
    1260:	0011f0b3          	and	ra,gp,ra
    1264:	19e16093          	ori	ra,sp,414
    1268:	e9b18013          	addi	zero,gp,-357 # 0x61a4e9b
    126c:	00568133          	add	sp,a3,t0
    1270:	d5dae137          	lui	sp,0xd5dae
    1274:	40118a33          	sub	s4,gp,ra
    1278:	9c9b61b7          	lui	gp,0x9c9b6
    127c:	b6118ee3          	beq	gp,ra,0xdf8
    1280:	b79ff1ef          	jal	gp,0xdf8
    1284:	402391b7          	lui	gp,0x40239
    1288:	402302b3          	sub	t0,t1,sp
    128c:	003260b3          	or	ra,tp,gp
    1290:	f44543b7          	lui	t2,0xf4454
    1294:	e534e197          	auipc	gp,0xe534e
    1298:	2e114397          	auipc	t2,0x2e114
    129c:	1de5c197          	auipc	gp,0x1de5c
    12a0:	25b8a317          	auipc	t1,0x25b8a
    12a4:	0ec9d197          	auipc	gp,0xec9d
    12a8:	0bc89197          	auipc	gp,0xbc89
    12ac:	0031c0b3          	xor	ra,gp,gp
    12b0:	5d3b6097          	auipc	ra,0x5d3b6
    12b4:	7fc14113          	xori	sp,sp,2044
    12b8:	fc00f293          	andi	t0,ra,-64
    12bc:	7afdf097          	auipc	ra,0x7afdf
    12c0:	002341b3          	xor	gp,t1,sp
    12c4:	ca362397          	auipc	t2,0xca362
    12c8:	6ea2c837          	lui	a6,0x6ea2c
    12cc:	27401097          	auipc	ra,0x27401
    12d0:	4e976337          	lui	t1,0x4e976
    12d4:	0031e233          	or	tp,gp,gp
    12d8:	0041e0b3          	or	ra,gp,tp
    12dc:	f55f40b7          	lui	ra,0xf55f4
    12e0:	403185b3          	sub	a1,gp,gp
    12e4:	e0e16193          	ori	gp,sp,-498
    12e8:	8a384097          	auipc	ra,0x8a384
    12ec:	4c749197          	auipc	gp,0x4c749
    12f0:	f72d81b7          	lui	gp,0xf72d8
    12f4:	78417313          	andi	t1,sp,1924
    12f8:	d0b14093          	xori	ra,sp,-757
    12fc:	0001c5b3          	xor	a1,gp,zero
    1300:	18cf0317          	auipc	t1,0x18cf0
    1304:	00000f97          	auipc	t6,0x0
    1308:	ca4f81e7          	jalr	gp,-860(t6) # 0xfa8
    130c:	baa08193          	addi	gp,ra,-1110 # 0xffffffff8a384e92
    1310:	0020f1b3          	and	gp,ra,sp
    1314:	4651c193          	xori	gp,gp,1125
    1318:	9aaba0b7          	lui	ra,0x9aaba
    131c:	ec920393          	addi	t2,tp,-311 # 0xfffffffffffffec9
    1320:	074b9417          	auipc	s0,0x74b9
    1324:	a1459297          	auipc	t0,0xa1459
    1328:	9e71f1b7          	lui	gp,0x9e71f
    132c:	ba310093          	addi	ra,sp,-1117 # 0xffffffffd5dadba3
    1330:	f990c1b7          	lui	gp,0xf990c
    1334:	00314eb3          	xor	t4,sp,gp
    1338:	c5441197          	auipc	gp,0xc5441
    133c:	f0084037          	lui	zero,0xf0084
    1340:	006041b3          	xor	gp,zero,t1
    1344:	4081c093          	xori	ra,gp,1032
    1348:	00d1f1b3          	and	gp,gp,a3
    134c:	57e45097          	auipc	ra,0x57e45
    1350:	0030e0b3          	or	ra,ra,gp
    1354:	4c4940b7          	lui	ra,0x4c494
    1358:	4b91e113          	ori	sp,gp,1209
    135c:	403080b3          	sub	ra,ra,gp
    1360:	6aa0c093          	xori	ra,ra,1706
    1364:	0020e333          	or	t1,ra,sp
    1368:	8a70e013          	ori	zero,ra,-1881
    136c:	34d3c7b7          	lui	a5,0x34d3c
    1370:	002161b3          	or	gp,sp,sp
    1374:	5b2861b7          	lui	gp,0x5b286
    1378:	d8dc2137          	lui	sp,0xd8dc2
    137c:	9e61e313          	ori	t1,gp,-1562
    1380:	0031c3b3          	xor	t2,gp,gp
    1384:	0030f6b3          	and	a3,ra,gp
    1388:	0051e3b3          	or	t2,gp,t0
    138c:	e2b3f697          	auipc	a3,0xe2b3f
    1390:	002364b3          	or	s1,t1,sp
    1394:	fd74f0b7          	lui	ra,0xfd74f
    1398:	44015097          	auipc	ra,0x44015
    139c:	2c5d7137          	lui	sp,0x2c5d7
    13a0:	dab18193          	addi	gp,gp,-597 # 0x5b285dab
    13a4:	80328ae3          	beq	t0,gp,0xbb8
    13a8:	811ff1ef          	jal	gp,0xbb8
    13ac:	ae23a1b7          	lui	gp,0xae23a
    13b0:	b2302397          	auipc	t2,0xb2302
    13b4:	bde0b137          	lui	sp,0xbde0b
    13b8:	c6fe7137          	lui	sp,0xc6fe7
    13bc:	0042e0b3          	or	ra,t0,tp
    13c0:	adb5d097          	auipc	ra,0xadb5d
    13c4:	010c9137          	lui	sp,0x10c9
    13c8:	e04900b7          	lui	ra,0xe0490
    13cc:	b1a5c093          	xori	ra,a1,-1254
    13d0:	00318cb3          	add	s9,gp,gp
    13d4:	023ad197          	auipc	gp,0x23ad
    13d8:	000181b3          	add	gp,gp,zero
    13dc:	003306b3          	add	a3,t1,gp
    13e0:	bb30c193          	xori	gp,ra,-1101
    13e4:	3bbe0c17          	auipc	s8,0x3bbe0
    13e8:	0032c1b3          	xor	gp,t0,gp
    13ec:	005271b3          	and	gp,tp,t0
    13f0:	cba05097          	auipc	ra,0xcba05
    13f4:	00337333          	and	t1,t1,gp
    13f8:	c589d137          	lui	sp,0xc589d
    13fc:	0050c133          	xor	sp,ra,t0
    1400:	3aa07093          	andi	ra,zero,938
    1404:	8009d197          	auipc	gp,0x8009d
    1408:	a8d1a137          	lui	sp,0xa8d1a
    140c:	0c20e093          	ori	ra,ra,194
    1410:	9873e593          	ori	a1,t2,-1657
    1414:	0ad8d137          	lui	sp,0xad8d
    1418:	66ef9097          	auipc	ra,0x66ef9
    141c:	e87361b7          	lui	gp,0xe8736
    1420:	c5769197          	auipc	gp,0xc5769
    1424:	0011c1b3          	xor	gp,gp,ra
    1428:	49817193          	andi	gp,sp,1176
    142c:	7e217193          	andi	gp,sp,2018
    1430:	4496f117          	auipc	sp,0x4496f
    1434:	c2b571b7          	lui	gp,0xc2b57
    1438:	0001c133          	xor	sp,gp,zero
    143c:	00018113          	mv	sp,gp
    1440:	1a310e63          	beq	sp,gp,0x15fc
    1444:	ed948137          	lui	sp,0xed948
    1448:	0023c1b3          	xor	gp,t2,sp
    144c:	59009137          	lui	sp,0x59009
    1450:	9ee58117          	auipc	sp,0x9ee58
    1454:	78e20313          	addi	t1,tp,1934 # 0x78e
    1458:	401081b3          	sub	gp,ra,ra
    145c:	0022f2b3          	and	t0,t0,sp
    1460:	40148133          	sub	sp,s1,ra
    1464:	428543b7          	lui	t2,0x42854
    1468:	c1614013          	xori	zero,sp,-1002
    146c:	7af29117          	auipc	sp,0x7af29
    1470:	aded6117          	auipc	sp,0xaded6
    1474:	ef701117          	auipc	sp,0xef701
    1478:	66886397          	auipc	t2,0x66886
    147c:	0b3e81b7          	lui	gp,0xb3e8
    1480:	0f0550b7          	lui	ra,0xf055
    1484:	00218433          	add	s0,gp,sp
    1488:	cf1a9097          	auipc	ra,0xcf1a9
    148c:	1810f097          	auipc	ra,0x1810f
    1490:	489620b7          	lui	ra,0x48962
    1494:	006241b3          	xor	gp,tp,t1
    1498:	cd900393          	li	t2,-807
    149c:	403100b3          	sub	ra,sp,gp
    14a0:	94c5d197          	auipc	gp,0x94c5d
    14a4:	00014133          	xor	sp,sp,zero
    14a8:	908e5137          	lui	sp,0x908e5
    14ac:	48fe5117          	auipc	sp,0x48fe5
    14b0:	0131c1b3          	xor	gp,gp,s3
    14b4:	22184293          	xori	t0,a6,545
    14b8:	0011f5b3          	and	a1,gp,ra
    14bc:	8c64b037          	lui	zero,0x8c64b
    14c0:	00318033          	add	zero,gp,gp
    14c4:	0010e0b3          	or	ra,ra,ra
    14c8:	0f8f5137          	lui	sp,0xf8f5
    14cc:	169c3097          	auipc	ra,0x169c3
    14d0:	00018113          	mv	sp,gp
    14d4:	a43104e3          	beq	sp,gp,0xf1c
    14d8:	00314133          	xor	sp,sp,gp
    14dc:	002100b3          	add	ra,sp,sp
    14e0:	d47e6117          	auipc	sp,0xd47e6
    14e4:	0011f033          	and	zero,gp,ra
    14e8:	923b7693          	andi	a3,s6,-1757
    14ec:	402001b3          	neg	gp,sp
    14f0:	40238033          	sub	zero,t2,sp
    14f4:	dab1e113          	ori	sp,gp,-597
    14f8:	005183b3          	add	t2,gp,t0
    14fc:	0010c0b3          	xor	ra,ra,ra
    1500:	40824393          	xori	t2,tp,1032
    1504:	001141b3          	xor	gp,sp,ra
    1508:	9abd0137          	lui	sp,0x9abd0
    150c:	95531117          	auipc	sp,0x95531
    1510:	b7489497          	auipc	s1,0xb7489
    1514:	acaac297          	auipc	t0,0xacaac
    1518:	d9685317          	auipc	t1,0xd9685
    151c:	a5cbb037          	lui	zero,0xa5cbb
    1520:	e417a097          	auipc	ra,0xe417a
    1524:	5e90c193          	xori	gp,ra,1513
    1528:	eab1b197          	auipc	gp,0xeab1b
    152c:	7e0760b7          	lui	ra,0x7e076
    1530:	ca066097          	auipc	ra,0xca066
    1534:	f2dac217          	auipc	tp,0xf2dac
    1538:	ad006137          	lui	sp,0xad006
    153c:	002160b3          	or	ra,sp,sp
    1540:	3cecc397          	auipc	t2,0x3cecc
    1544:	403181b3          	sub	gp,gp,gp
    1548:	9431f113          	andi	sp,gp,-1725
    154c:	cb46a197          	auipc	gp,0xcb46a
    1550:	0022f1b3          	and	gp,t0,sp
    1554:	0040f1b3          	and	gp,ra,tp
    1558:	4096f117          	auipc	sp,0x4096f
    155c:	6a2bb0b7          	lui	ra,0x6a2bb
    1560:	2ca7a197          	auipc	gp,0x2ca7a
    1564:	8f55f1b7          	lui	gp,0x8f55f
    1568:	00300263          	beq	zero,gp,0x156c
    156c:	ed8ff1ef          	jal	gp,0xc44
    1570:	71fc8397          	auipc	t2,0x71fc8
    1574:	400301b3          	sub	gp,t1,zero
    1578:	b8e2f217          	auipc	tp,0xb8e2f
    157c:	0022f0b3          	and	ra,t0,sp
    1580:	84c1d137          	lui	sp,0x84c1d
    1584:	402080b3          	sub	ra,ra,sp
    1588:	e0517113          	andi	sp,sp,-507
    158c:	01d0c2b3          	xor	t0,ra,t4
    1590:	92916013          	ori	zero,sp,-1751
    1594:	a420f193          	andi	gp,ra,-1470
    1598:	001171b3          	and	gp,sp,ra
    159c:	001177b3          	and	a5,sp,ra
    15a0:	33008113          	addi	sp,ra,816 # 0x6a2bb330
    15a4:	e42941b7          	lui	gp,0xe4294
    15a8:	c4e10093          	addi	ra,sp,-946 # 0xffffffff84c1cc4e
    15ac:	3b99f017          	auipc	zero,0x3b99f
    15b0:	d46d4017          	auipc	zero,0xd46d4
    15b4:	006381b3          	add	gp,t2,t1
    15b8:	0021e033          	or	zero,gp,sp
    15bc:	002101b3          	add	gp,sp,sp
    15c0:	3f127017          	auipc	zero,0x3f127
    15c4:	ae908113          	addi	sp,ra,-1303
    15c8:	7b8991b7          	lui	gp,0x7b899
    15cc:	54bee097          	auipc	ra,0x54bee
    15d0:	00b172b3          	and	t0,sp,a1
    15d4:	17e0f193          	andi	gp,ra,382
    15d8:	618b5097          	auipc	ra,0x618b5
    15dc:	15f0f193          	andi	gp,ra,351
    15e0:	d014b197          	auipc	gp,0xd014b
    15e4:	ce5061b7          	lui	gp,0xce506
    15e8:	002181b3          	add	gp,gp,sp
    15ec:	bab0cf93          	xori	t6,ra,-1109
    15f0:	e890f113          	andi	sp,ra,-375
    15f4:	00010313          	mv	t1,sp
    15f8:	e42306e3          	beq	t1,sp,0x1444
    15fc:	9aa14393          	xori	t2,sp,-1622
    1600:	c951f193          	andi	gp,gp,-875
    1604:	002400b3          	add	ra,s0,sp
    1608:	b4134113          	xori	sp,t1,-1215
    160c:	80d50097          	auipc	ra,0x80d50
    1610:	002182b3          	add	t0,gp,sp
    1614:	07f720b7          	lui	ra,0x7f72
    1618:	0072c333          	xor	t1,t0,t2
    161c:	e5b0c193          	xori	gp,ra,-421
    1620:	c0408093          	addi	ra,ra,-1020 # 0x7f71c04
    1624:	07500213          	li	tp,117
    1628:	60bcf017          	auipc	zero,0x60bcf
    162c:	6167b237          	lui	tp,0x6167b
    1630:	33ca2097          	auipc	ra,0x33ca2
    1634:	0033e133          	or	sp,t2,gp
    1638:	003140b3          	xor	ra,sp,gp
    163c:	5113c093          	xori	ra,t2,1297
    1640:	00177433          	and	s0,a4,ra
    1644:	ce6fb737          	lui	a4,0xce6fb
    1648:	1adaf197          	auipc	gp,0x1adaf
    164c:	3c2ee093          	ori	ra,t4,962
    1650:	002171b3          	and	gp,sp,sp
    1654:	0011f1b3          	and	gp,gp,ra
    1658:	2d5971b7          	lui	gp,0x2d597
    165c:	e8317193          	andi	gp,sp,-381
    1660:	cf308113          	addi	sp,ra,-781 # 0x33ca3323
    1664:	5e4c3197          	auipc	gp,0x5e4c3
    1668:	215a2097          	auipc	ra,0x215a2
    166c:	402282b3          	sub	t0,t0,sp
    1670:	1b678113          	addi	sp,a5,438 # 0x34d3c1b6
    1674:	ccfab0b7          	lui	ra,0xccfab
    1678:	bcb0e113          	ori	sp,ra,-1077
    167c:	5b8bf097          	auipc	ra,0x5b8bf
    1680:	00000013          	nop
    1684:	c00000e3          	beqz	zero,0x1284
    1688:	ba188337          	lui	t1,0xba188
    168c:	000081b3          	add	gp,ra,zero
    1690:	001070b3          	and	ra,zero,ra
    1694:	c46c4117          	auipc	sp,0xc46c4
    1698:	568ac037          	lui	zero,0x568ac
    169c:	a022c093          	xori	ra,t0,-1534
    16a0:	40308133          	sub	sp,ra,gp
    16a4:	26c45097          	auipc	ra,0x26c45
    16a8:	f62b2017          	auipc	zero,0xf62b2
    16ac:	0051f1b3          	and	gp,gp,t0
    16b0:	369cc317          	auipc	t1,0x369cc
    16b4:	004280b3          	add	ra,t0,tp
    16b8:	03034193          	xori	gp,t1,48
    16bc:	0e80e193          	ori	gp,ra,232
    16c0:	8582ef93          	ori	t6,t0,-1960
    16c4:	cc100097          	auipc	ra,0xcc100
    16c8:	76a05097          	auipc	ra,0x76a05
    16cc:	c3a0c093          	xori	ra,ra,-966
    16d0:	0052e1b3          	or	gp,t0,t0
    16d4:	55c04213          	xori	tp,zero,1372
    16d8:	d7fd0117          	auipc	sp,0xd7fd0
    16dc:	00510033          	add	zero,sp,t0
    16e0:	a20126b7          	lui	a3,0xa2012
    16e4:	dad20113          	addi	sp,tp,-595 # 0x6167adad
    16e8:	a7d0c093          	xori	ra,ra,-1411
    16ec:	bb418137          	lui	sp,0xbb418
    16f0:	5d360137          	lui	sp,0x5d360
    16f4:	c2d1c193          	xori	gp,gp,-979
    16f8:	a58b0017          	auipc	zero,0xa58b0
    16fc:	0036e1b3          	or	gp,a3,gp
    1700:	77717137          	lui	sp,0x77717
    1704:	40210133          	sub	sp,sp,sp
    1708:	00000097          	auipc	ra,0x0
    170c:	e68081e7          	jalr	gp,-408(ra) # 0x1570
    1710:	ab630197          	auipc	gp,0xab630
    1714:	00537133          	and	sp,t1,t0
    1718:	f31ff197          	auipc	gp,0xf31ff
    171c:	c191e313          	ori	t1,gp,-999
    1720:	4b0d1137          	lui	sp,0x4b0d1
    1724:	2b02c317          	auipc	t1,0x2b02c
    1728:	00117133          	and	sp,sp,ra
    172c:	af15d0b7          	lui	ra,0xaf15d
    1730:	007cc0b3          	xor	ra,s9,t2
    1734:	8db18313          	addi	t1,gp,-1829 # 0xfffffffff31ffff3
    1738:	a9216213          	ori	tp,sp,-1390
    173c:	34a94337          	lui	t1,0x34a94
    1740:	1c679537          	lui	a0,0x1c679
    1744:	10d5c037          	lui	zero,0x10d5c
    1748:	0011f3b3          	and	t2,gp,ra
    174c:	7ebed137          	lui	sp,0x7ebed
    1750:	3228e037          	lui	zero,0x3228e
    1754:	e920f193          	andi	gp,ra,-366
    1758:	1f4e1197          	auipc	gp,0x1f4e1
    175c:	d6a190b7          	lui	ra,0xd6a19
    1760:	dc11c393          	xori	t2,gp,-575
    1764:	003142b3          	xor	t0,sp,gp
    1768:	8e65e217          	auipc	tp,0x8e65e
    176c:	406102b3          	sub	t0,sp,t1
    1770:	65e1e093          	ori	ra,gp,1630
    1774:	40138133          	sub	sp,t2,ra
    1778:	f08561b7          	lui	gp,0xf0856
    177c:	136bd197          	auipc	gp,0x136bd
    1780:	992c7093          	andi	ra,s8,-1646
    1784:	6b2be117          	auipc	sp,0x6b2be
    1788:	26d16093          	ori	ra,sp,621
    178c:	00200263          	beq	zero,sp,0x1790
    1790:	031000ef          	jal	ra,0x1fc0
    1794:	403201b3          	sub	gp,tp,gp
    1798:	3962c093          	xori	ra,t0,918
    179c:	b2855137          	lui	sp,0xb2855
    17a0:	85330313          	addi	t1,t1,-1965 # 0x34a93853
    17a4:	ad616613          	ori	a2,sp,-1322
    17a8:	4d2120b7          	lui	ra,0x4d212
    17ac:	0010c333          	xor	t1,ra,ra
    17b0:	00217133          	and	sp,sp,sp
    17b4:	40208933          	sub	s2,ra,sp
    17b8:	003087b3          	add	a5,ra,gp
    17bc:	d8042137          	lui	sp,0xd8042
    17c0:	c6318097          	auipc	ra,0xc6318
    17c4:	2e508137          	lui	sp,0x2e508
    17c8:	003101b3          	add	gp,sp,gp
    17cc:	8f5491b7          	lui	gp,0x8f549
    17d0:	7c20c213          	xori	tp,ra,1986
    17d4:	adcad0b7          	lui	ra,0xadcad
    17d8:	40800093          	li	ra,1032
    17dc:	0020fab3          	and	s5,ra,sp
    17e0:	ac987117          	auipc	sp,0xac987
    17e4:	0c71e193          	ori	gp,gp,199
    17e8:	40318133          	sub	sp,gp,gp
    17ec:	0026f233          	and	tp,a3,sp
    17f0:	7c72a197          	auipc	gp,0x7c72a
    17f4:	f1c17113          	andi	sp,sp,-228
    17f8:	0a9ce117          	auipc	sp,0xa9ce
    17fc:	00218333          	add	t1,gp,sp
    1800:	bc88c0b7          	lui	ra,0xbc88c
    1804:	cf565117          	auipc	sp,0xcf565
    1808:	f0edc1b7          	lui	gp,0xf0edc
    180c:	338760b7          	lui	ra,0x33876
    1810:	00000397          	auipc	t2,0x0
    1814:	f00381e7          	jalr	gp,-256(t2) # 0x1710
    1818:	69e87313          	andi	t1,a6,1694
    181c:	2d38c197          	auipc	gp,0x2d38c
    1820:	0010f0b3          	and	ra,ra,ra
    1824:	37a6d117          	auipc	sp,0x37a6d
    1828:	40d08133          	sub	sp,ra,a3
    182c:	08310093          	addi	ra,sp,131 # 0x37a6e8a7
    1830:	0c90c393          	xori	t2,ra,201
    1834:	04367017          	auipc	zero,0x4367
    1838:	002171b3          	and	gp,sp,sp
    183c:	53ce05b7          	lui	a1,0x53ce0
    1840:	00314133          	xor	sp,sp,gp
    1844:	5d310093          	addi	ra,sp,1491
    1848:	1dfc8317          	auipc	t1,0x1dfc8
    184c:	9a056137          	lui	sp,0x9a056
    1850:	7d793117          	auipc	sp,0x7d793
    1854:	5b10a1b7          	lui	gp,0x5b10a
    1858:	964dc0b7          	lui	ra,0x964dc
    185c:	00f1b137          	lui	sp,0xf1b
    1860:	82214093          	xori	ra,sp,-2014
    1864:	0d3ea317          	auipc	t1,0xd3ea
    1868:	00316133          	or	sp,sp,gp
    186c:	42815117          	auipc	sp,0x42815
    1870:	483553b7          	lui	t2,0x48355
    1874:	3b608313          	addi	t1,ra,950 # 0xffffffff964dc3b6
    1878:	2077f1b7          	lui	gp,0x2077f
    187c:	bed38013          	addi	zero,t2,-1043 # 0x48354bed
    1880:	3de96097          	auipc	ra,0x3de96
    1884:	0011f133          	and	sp,gp,ra
    1888:	92214113          	xori	sp,sp,-1758
    188c:	e0eb2097          	auipc	ra,0xe0eb2
    1890:	c2508393          	addi	t2,ra,-987 # 0xffffffffe0eb34b1
    1894:	d642c293          	xori	t0,t0,-668
    1898:	5a25b1b7          	lui	gp,0x5a25b
    189c:	4c2b91b7          	lui	gp,0x4c2b9
    18a0:	f4386597          	auipc	a1,0xf4386
    18a4:	e520e093          	ori	ra,ra,-430
    18a8:	d0310093          	addi	ra,sp,-765 # 0x4281656f
    18ac:	0030f1b3          	and	gp,ra,gp
    18b0:	00018293          	mv	t0,gp
    18b4:	2a328463          	beq	t0,gp,0x1b5c
    18b8:	5c058097          	auipc	ra,0x5c058
    18bc:	403081b3          	sub	gp,ra,gp
    18c0:	f7e2c093          	xori	ra,t0,-130
    18c4:	402280b3          	sub	ra,t0,sp
    18c8:	002181b3          	add	gp,gp,sp
    18cc:	0fd10393          	addi	t2,sp,253
    18d0:	9095c093          	xori	ra,a1,-1783
    18d4:	f841a1b7          	lui	gp,0xf841a
    18d8:	0050e0b3          	or	ra,ra,t0
    18dc:	0010e133          	or	sp,ra,ra
    18e0:	e751e193          	ori	gp,gp,-395
    18e4:	406181b3          	sub	gp,gp,t1
    18e8:	00116533          	or	a0,sp,ra
    18ec:	0030c1b3          	xor	gp,ra,gp
    18f0:	6911b197          	auipc	gp,0x6911b
    18f4:	0035c133          	xor	sp,a1,gp
    18f8:	c863c313          	xori	t1,t2,-890
    18fc:	203ad0b7          	lui	ra,0x203ad
    1900:	40238133          	sub	sp,t2,sp
    1904:	d3b10793          	addi	a5,sp,-709
    1908:	f3ee0037          	lui	zero,0xf3ee0
    190c:	0001c0b3          	xor	ra,gp,zero
    1910:	0d026213          	ori	tp,tp,208
    1914:	5b87d0b7          	lui	ra,0x5b87d
    1918:	c8a60237          	lui	tp,0xc8a60
    191c:	002060b3          	or	ra,zero,sp
    1920:	6929e6b7          	lui	a3,0x6929e
    1924:	0020f0b3          	and	ra,ra,sp
    1928:	0042e2b3          	or	t0,t0,tp
    192c:	47bd3197          	auipc	gp,0x47bd3
    1930:	ddaef097          	auipc	ra,0xddaef
    1934:	cc2bd237          	lui	tp,0xcc2bd
    1938:	70c6fb93          	andi	s7,a3,1804
    193c:	bfd710b7          	lui	ra,0xbfd71
    1940:	00010113          	mv	sp,sp
    1944:	ec210ae3          	beq	sp,sp,0x1818
    1948:	f6398297          	auipc	t0,0xf6398
    194c:	2daa7197          	auipc	gp,0x2daa7
    1950:	1cb37013          	andi	zero,t1,459
    1954:	c7980797          	auipc	a5,0xc7980
    1958:	e63fc337          	lui	t1,0xe63fc
    195c:	24510113          	addi	sp,sp,581
    1960:	f971c113          	xori	sp,gp,-105
    1964:	c0838113          	addi	sp,t2,-1016
    1968:	57644097          	auipc	ra,0x57644
    196c:	2cd0c193          	xori	gp,ra,717
    1970:	5c514393          	xori	t2,sp,1477
    1974:	36f0f093          	andi	ra,ra,879
    1978:	06379197          	auipc	gp,0x6379
    197c:	c1716393          	ori	t2,sp,-1001
    1980:	6d81f1b7          	lui	gp,0x6d81f
    1984:	406100b3          	sub	ra,sp,t1
    1988:	002040b3          	xor	ra,zero,sp
    198c:	00208097          	auipc	ra,0x208
    1990:	8872c197          	auipc	gp,0x8872c
    1994:	a1b491b7          	lui	gp,0xa1b49
    1998:	b3f30093          	addi	ra,t1,-1217 # 0xffffffffe63fbb3f
    199c:	001080b3          	add	ra,ra,ra
    19a0:	051ab197          	auipc	gp,0x51ab
    19a4:	0023e3b3          	or	t2,t2,sp
    19a8:	af09f0b7          	lui	ra,0xaf09f
    19ac:	0030e2b3          	or	t0,ra,gp
    19b0:	c32c7117          	auipc	sp,0xc32c7
    19b4:	23316113          	ori	sp,sp,563
    19b8:	f017f113          	andi	sp,a5,-255
    19bc:	e716f093          	andi	ra,a3,-399
    19c0:	71514893          	xori	a7,sp,1813
    19c4:	0130e033          	or	zero,ra,s3
    19c8:	00018093          	mv	ra,gp
    19cc:	3e308e63          	beq	ra,gp,0x1dc8
    19d0:	84626137          	lui	sp,0x84626
    19d4:	43e38c93          	addi	s9,t2,1086
    19d8:	457f7237          	lui	tp,0x457f7
    19dc:	4f50c293          	xori	t0,ra,1269
    19e0:	0261c693          	xori	a3,gp,38
    19e4:	7741e097          	auipc	ra,0x7741e
    19e8:	167571b7          	lui	gp,0x16757
    19ec:	5f6d8297          	auipc	t0,0x5f6d8
    19f0:	47b1f093          	andi	ra,gp,1147
    19f4:	bbd943b7          	lui	t2,0xbbd94
    19f8:	002380b3          	add	ra,t2,sp
    19fc:	f1d21137          	lui	sp,0xf1d21
    1a00:	00004133          	xor	sp,zero,zero
    1a04:	0035e0b3          	or	ra,a1,gp
    1a08:	15b65137          	lui	sp,0x15b65
    1a0c:	fe265117          	auipc	sp,0xfe265
    1a10:	0014f1b3          	and	gp,s1,ra
    1a14:	fa504237          	lui	tp,0xfa504
    1a18:	00118133          	add	sp,gp,ra
    1a1c:	402101b3          	sub	gp,sp,sp
    1a20:	e590e793          	ori	a5,ra,-423
    1a24:	5c11cd93          	xori	s11,gp,1473
    1a28:	0030c1b3          	xor	gp,ra,gp
    1a2c:	003081b3          	add	gp,ra,gp
    1a30:	5d47c117          	auipc	sp,0x5d47c
    1a34:	86d5e137          	lui	sp,0x86d5e
    1a38:	adfc60b7          	lui	ra,0xadfc6
    1a3c:	1af0e093          	ori	ra,ra,431
    1a40:	dfbf12b7          	lui	t0,0xdfbf1
    1a44:	950b8197          	auipc	gp,0x950b8
    1a48:	22cb7193          	andi	gp,s6,556
    1a4c:	47108a63          	beq	ra,a7,0x1ec0
    1a50:	4700016f          	jal	sp,0x1ec0
    1a54:	003180b3          	add	ra,gp,gp
    1a58:	5f70e093          	ori	ra,ra,1527
    1a5c:	0010c1b3          	xor	gp,ra,ra
    1a60:	00317333          	and	t1,sp,gp
    1a64:	4131c093          	xori	ra,gp,1043
    1a68:	40008133          	sub	sp,ra,zero
    1a6c:	001080b3          	add	ra,ra,ra
    1a70:	64d0c113          	xori	sp,ra,1613
    1a74:	5343f093          	andi	ra,t2,1332
    1a78:	a0720117          	auipc	sp,0xa0720
    1a7c:	405101b3          	sub	gp,sp,t0
    1a80:	002240b3          	xor	ra,tp,sp
    1a84:	b8bd5097          	auipc	ra,0xb8bd5
    1a88:	7e54c093          	xori	ra,s1,2021
    1a8c:	f2ba20b7          	lui	ra,0xf2ba2
    1a90:	d15e60b7          	lui	ra,0xd15e6
    1a94:	41d07137          	lui	sp,0x41d07
    1a98:	001281b3          	add	gp,t0,ra
    1a9c:	acfbe217          	auipc	tp,0xacfbe
    1aa0:	0010c1b3          	xor	gp,ra,ra
    1aa4:	00328233          	add	tp,t0,gp
    1aa8:	8fd2f093          	andi	ra,t0,-1795
    1aac:	03a051b7          	lui	gp,0x3a05
    1ab0:	945c3197          	auipc	gp,0x945c3
    1ab4:	abf420b7          	lui	ra,0xabf42
    1ab8:	12b1e393          	ori	t2,gp,299
    1abc:	11e9a137          	lui	sp,0x11e9a
    1ac0:	fb9b9c37          	lui	s8,0xfb9b9
    1ac4:	0122c1b3          	xor	gp,t0,s2
    1ac8:	aba0ef93          	ori	t6,ra,-1350
    1acc:	0a07e097          	auipc	ra,0xa07e
    1ad0:	cb46d4b7          	lui	s1,0xcb46d
    1ad4:	46308263          	beq	ra,gp,0x1f38
    1ad8:	460000ef          	jal	ra,0x1f38
    1adc:	bc080137          	lui	sp,0xbc080
    1ae0:	1b97a197          	auipc	gp,0x1b97a
    1ae4:	15043197          	auipc	gp,0x15043
    1ae8:	04f2f113          	andi	sp,t0,79
    1aec:	3fb14093          	xori	ra,sp,1019
    1af0:	03f1c313          	xori	t1,gp,63
    1af4:	fb52c093          	xori	ra,t0,-75
    1af8:	7fd2f237          	lui	tp,0x7fd2f
    1afc:	341c5397          	auipc	t2,0x341c5
    1b00:	baa10113          	addi	sp,sp,-1110 # 0xffffffffbc07fbaa
    1b04:	38c77097          	auipc	ra,0x38c77
    1b08:	400185b3          	sub	a1,gp,zero
    1b0c:	91d69197          	auipc	gp,0x91d69
    1b10:	be934117          	auipc	sp,0xbe934
    1b14:	48c4c197          	auipc	gp,0x48c4c
    1b18:	8479f597          	auipc	a1,0x8479f
    1b1c:	40028133          	sub	sp,t0,zero
    1b20:	e8200217          	auipc	tp,0xe8200
    1b24:	005083b3          	add	t2,ra,t0
    1b28:	85c14113          	xori	sp,sp,-1956
    1b2c:	407180b3          	sub	ra,gp,t2
    1b30:	0b5d6117          	auipc	sp,0xb5d6
    1b34:	98717293          	andi	t0,sp,-1657
    1b38:	0f476117          	auipc	sp,0xf476
    1b3c:	73645337          	lui	t1,0x73645
    1b40:	fb818e13          	addi	t3,gp,-72 # 0x48c4dacc
    1b44:	2380e093          	ori	ra,ra,568
    1b48:	0020e1b3          	or	gp,ra,sp
    1b4c:	5ad60197          	auipc	gp,0x5ad60
    1b50:	b9e6a597          	auipc	a1,0xb9e6a
    1b54:	00000117          	auipc	sp,0x0
    1b58:	e7c10167          	jalr	sp,-388(sp) # 0x19d0
    1b5c:	3d55ebb7          	lui	s7,0x3d55e
    1b60:	c79ccc97          	auipc	s9,0xc79cc
    1b64:	0021e0b3          	or	ra,gp,sp
    1b68:	f0d87193          	andi	gp,a6,-243
    1b6c:	0021e033          	or	zero,gp,sp
    1b70:	9b6b2a37          	lui	s4,0x9b6b2
    1b74:	a8b97137          	lui	sp,0xa8b97
    1b78:	403102b3          	sub	t0,sp,gp
    1b7c:	8181f713          	andi	a4,gp,-2024
    1b80:	174d5097          	auipc	ra,0x174d5
    1b84:	593b80b7          	lui	ra,0x593b8
    1b88:	097722b7          	lui	t0,0x9772
    1b8c:	0a3e11b7          	lui	gp,0xa3e1
    1b90:	01017133          	and	sp,sp,a6
    1b94:	7da0e117          	auipc	sp,0x7da0e
    1b98:	c9ed61b7          	lui	gp,0xc9ed6
    1b9c:	bb8960b7          	lui	ra,0xbb896
    1ba0:	505ea097          	auipc	ra,0x505ea
    1ba4:	c4485337          	lui	t1,0xc4485
    1ba8:	c1406113          	ori	sp,zero,-1004
    1bac:	e5514c17          	auipc	s8,0xe5514
    1bb0:	002272b3          	and	t0,tp,sp
    1bb4:	00224133          	xor	sp,tp,sp
    1bb8:	30646113          	ori	sp,s0,774
    1bbc:	35036213          	ori	tp,t1,848
    1bc0:	666e51b7          	lui	gp,0x666e5
    1bc4:	eb41f193          	andi	gp,gp,-332
    1bc8:	5755c137          	lui	sp,0x5755c
    1bcc:	2a378197          	auipc	gp,0x2a378
    1bd0:	002163b3          	or	t2,sp,sp
    1bd4:	50bba117          	auipc	sp,0x50bba
    1bd8:	d630c093          	xori	ra,ra,-669
    1bdc:	00d56337          	lui	t1,0xd56
    1be0:	003060b3          	or	ra,zero,gp
    1be4:	ba1688e3          	beq	a3,ra,0x1794
    1be8:	badff7ef          	jal	a5,0x1794
    1bec:	8d3a13b7          	lui	t2,0x8d3a1
    1bf0:	23518293          	addi	t0,gp,565 # 0x2a379e01
    1bf4:	69c02017          	auipc	zero,0x69c02
    1bf8:	7da9a097          	auipc	ra,0x7da9a
    1bfc:	40600233          	neg	tp,t1
    1c00:	0070f233          	and	tp,ra,t2
    1c04:	766a7213          	andi	tp,s4,1894
    1c08:	1a175097          	auipc	ra,0x1a175
    1c0c:	82582337          	lui	t1,0x82582
    1c10:	406181b3          	sub	gp,gp,t1
    1c14:	4e717193          	andi	gp,sp,1255
    1c18:	0111c1b3          	xor	gp,gp,a7
    1c1c:	00434133          	xor	sp,t1,tp
    1c20:	5ac7c117          	auipc	sp,0x5ac7c
    1c24:	00510333          	add	t1,sp,t0
    1c28:	0030f133          	and	sp,ra,gp
    1c2c:	00316133          	or	sp,sp,gp
    1c30:	47a6b197          	auipc	gp,0x47a6b
    1c34:	beab6197          	auipc	gp,0xbeab6
    1c38:	40710c33          	sub	s8,sp,t2
    1c3c:	f437e017          	auipc	zero,0xf437e
    1c40:	7b007113          	andi	sp,zero,1968
    1c44:	0e31f113          	andi	sp,gp,227
    1c48:	e371f093          	andi	ra,gp,-457
    1c4c:	3a9320b7          	lui	ra,0x3a932
    1c50:	47e0f193          	andi	gp,ra,1150
    1c54:	d0118113          	addi	sp,gp,-767 # 0xffffffffbeab7935
    1c58:	4079e197          	auipc	gp,0x4079e
    1c5c:	9e948717          	auipc	a4,0x9e948
    1c60:	65dbf137          	lui	sp,0x65dbf
    1c64:	0030f133          	and	sp,ra,gp
    1c68:	168f5337          	lui	t1,0x168f5
    1c6c:	40218733          	sub	a4,gp,sp
    1c70:	b5614193          	xori	gp,sp,-1194
    1c74:	00308133          	add	sp,ra,gp
    1c78:	f81f0137          	lui	sp,0xf81f0
    1c7c:	f540c113          	xori	sp,ra,-172
    1c80:	00000197          	auipc	gp,0x0
    1c84:	cc818267          	jalr	tp,-824(gp) # 0x1948
    1c88:	0f214113          	xori	sp,sp,242
    1c8c:	a6b47317          	auipc	t1,0xa6b47
    1c90:	77e07093          	andi	ra,zero,1918
    1c94:	a9c1e193          	ori	gp,gp,-1380
    1c98:	b41ce097          	auipc	ra,0xb41ce
    1c9c:	f370f113          	andi	sp,ra,-201
    1ca0:	4193d337          	lui	t1,0x4193d
    1ca4:	f2055197          	auipc	gp,0xf2055
    1ca8:	78d1e293          	ori	t0,gp,1933
    1cac:	2370b297          	auipc	t0,0x2370b
    1cb0:	002161b3          	or	gp,sp,sp
    1cb4:	9d1c8917          	auipc	s2,0x9d1c8
    1cb8:	0b50f593          	andi	a1,ra,181
    1cbc:	4dc28393          	addi	t2,t0,1244 # 0x2370d188
    1cc0:	4ef3e0b7          	lui	ra,0x4ef3e
    1cc4:	0013f133          	and	sp,t2,ra
    1cc8:	00210133          	add	sp,sp,sp
    1ccc:	03fb6117          	auipc	sp,0x3fb6
    1cd0:	5f9ef197          	auipc	gp,0x5f9ef
    1cd4:	bdc17113          	andi	sp,sp,-1060
    1cd8:	14fa0097          	auipc	ra,0x14fa0
    1cdc:	e2c38193          	addi	gp,t2,-468 # 0xffffffff8d3a0e2c
    1ce0:	4174f3b7          	lui	t2,0x4174f
    1ce4:	d1e26213          	ori	tp,tp,-738
    1ce8:	0060e1b3          	or	gp,ra,t1
    1cec:	0043c233          	xor	tp,t2,tp
    1cf0:	f7b88017          	auipc	zero,0xf7b88
    1cf4:	00316233          	or	tp,sp,gp
    1cf8:	942b13b7          	lui	t2,0x942b1
    1cfc:	f3f691b7          	lui	gp,0xf3f69
    1d00:	002160b3          	or	ra,sp,sp
    1d04:	f3520193          	addi	gp,tp,-203 # 0xffffffffe8201a55
    1d08:	c5ebd0b7          	lui	ra,0xc5ebd
    1d0c:	23658317          	auipc	t1,0x23658
    1d10:	44d05117          	auipc	sp,0x44d05
    1d14:	edc39117          	auipc	sp,0xedc39
    1d18:	e8a451b7          	lui	gp,0xe8a45
    1d1c:	64f54137          	lui	sp,0x64f54
    1d20:	0030f0b3          	and	ra,ra,gp
    1d24:	75c0e093          	ori	ra,ra,1884
    1d28:	0012e1b3          	or	gp,t0,ra
    1d2c:	00018693          	mv	a3,gp
    1d30:	da3686e3          	beq	a3,gp,0x1adc
    1d34:	a8906097          	auipc	ra,0xa8906
    1d38:	40208133          	sub	sp,ra,sp
    1d3c:	ea43f193          	andi	gp,t2,-348
    1d40:	43761097          	auipc	ra,0x43761
    1d44:	b6d85197          	auipc	gp,0xb6d85
    1d48:	ceab1137          	lui	sp,0xceab1
    1d4c:	7a51e093          	ori	ra,gp,1957
    1d50:	0000e1b3          	or	gp,ra,zero
    1d54:	bbcd50b7          	lui	ra,0xbbcd5
    1d58:	b0316097          	auipc	ra,0xb0316
    1d5c:	08e10b17          	auipc	s6,0x8e10
    1d60:	3ace61b7          	lui	gp,0x3ace6
    1d64:	69414213          	xori	tp,sp,1684
    1d68:	44e3a097          	auipc	ra,0x44e3a
    1d6c:	b964d797          	auipc	a5,0xb964d
    1d70:	0011c0b3          	xor	ra,gp,ra
    1d74:	9c5c80b7          	lui	ra,0x9c5c8
    1d78:	0010f133          	and	sp,ra,ra
    1d7c:	00308333          	add	t1,ra,gp
    1d80:	40218133          	sub	sp,gp,sp
    1d84:	7ae93097          	auipc	ra,0x7ae93
    1d88:	5bce7117          	auipc	sp,0x5bce7
    1d8c:	00238133          	add	sp,t2,sp
    1d90:	5aa1e113          	ori	sp,gp,1450
    1d94:	40220233          	sub	tp,tp,sp
    1d98:	30a1e093          	ori	ra,gp,778
    1d9c:	26c18193          	addi	gp,gp,620 # 0x3ace626c
    1da0:	28e16193          	ori	gp,sp,654
    1da4:	19b16193          	ori	gp,sp,411
    1da8:	ec81f113          	andi	sp,gp,-312
    1dac:	002260b3          	or	ra,tp,sp
    1db0:	506f3317          	auipc	t1,0x506f3
    1db4:	0120c233          	xor	tp,ra,s2
    1db8:	052fc437          	lui	s0,0x52fc
    1dbc:	ee610193          	addi	gp,sp,-282 # 0x5bce8c6e
    1dc0:	00000117          	auipc	sp,0x0
    1dc4:	28810067          	jr	648(sp) # 0x2048
    1dc8:	c0b0f193          	andi	gp,ra,-1013
    1dcc:	1f94c317          	auipc	t1,0x1f94c
    1dd0:	2cbb6297          	auipc	t0,0x2cbb6
    1dd4:	0f85e0b7          	lui	ra,0xf85e
    1dd8:	d6844137          	lui	sp,0xd6844
    1ddc:	42f8c317          	auipc	t1,0x42f8c
    1de0:	00b10033          	add	zero,sp,a1
    1de4:	2a6d2197          	auipc	gp,0x2a6d2
    1de8:	003140b3          	xor	ra,sp,gp
    1dec:	0031c033          	xor	zero,gp,gp
    1df0:	18116393          	ori	t2,sp,385
    1df4:	00b95197          	auipc	gp,0xb95
    1df8:	ebc82a17          	auipc	s4,0xebc82
    1dfc:	a1195197          	auipc	gp,0xa1195
    1e00:	19d9b1b7          	lui	gp,0x19d9b
    1e04:	77a1e693          	ori	a3,gp,1914
    1e08:	6113f193          	andi	gp,t2,1553
    1e0c:	a46493b7          	lui	t2,0xa4649
    1e10:	e303b0b7          	lui	ra,0xe303b
    1e14:	bcb57197          	auipc	gp,0xbcb57
    1e18:	77b02137          	lui	sp,0x77b02
    1e1c:	7a218093          	addi	ra,gp,1954 # 0xffffffffbcb595b6
    1e20:	002263b3          	or	t2,tp,sp
    1e24:	ec8fb197          	auipc	gp,0xec8fb
    1e28:	0010f133          	and	sp,ra,ra
    1e2c:	40208333          	sub	t1,ra,sp
    1e30:	0050e133          	or	sp,ra,t0
    1e34:	40caa4b7          	lui	s1,0x40caa
    1e38:	3c49b217          	auipc	tp,0x3c49b
    1e3c:	00010113          	mv	sp,sp
    1e40:	76210e63          	beq	sp,sp,0x25bc
    1e44:	7c337213          	andi	tp,t1,1987
    1e48:	517004b7          	lui	s1,0x51700
    1e4c:	aef55117          	auipc	sp,0xaef55
    1e50:	52c0f093          	andi	ra,ra,1324
    1e54:	bdf330b7          	lui	ra,0xbdf33
    1e58:	ce672197          	auipc	gp,0xce672
    1e5c:	b5c3e1b7          	lui	gp,0xb5c3e
    1e60:	40118133          	sub	sp,gp,ra
    1e64:	1c61e093          	ori	ra,gp,454
    1e68:	76c16093          	ori	ra,sp,1900
    1e6c:	04010193          	addi	gp,sp,64 # 0xffffffffaef56e8c
    1e70:	35fd3117          	auipc	sp,0x35fd3
    1e74:	67e201b7          	lui	gp,0x67e20
    1e78:	3441b797          	auipc	a5,0x3441b
    1e7c:	00710133          	add	sp,sp,t2
    1e80:	188b4117          	auipc	sp,0x188b4
    1e84:	e5b4a697          	auipc	a3,0xe5b4a
    1e88:	f8be8217          	auipc	tp,0xf8be8
    1e8c:	0020e133          	or	sp,ra,sp
    1e90:	eb9591b7          	lui	gp,0xeb959
    1e94:	92a03337          	lui	t1,0x92a03
    1e98:	00308233          	add	tp,ra,gp
    1e9c:	8227c1b7          	lui	gp,0x8227c
    1ea0:	402101b3          	sub	gp,sp,sp
    1ea4:	b9f26393          	ori	t2,tp,-1121
    1ea8:	6d34e097          	auipc	ra,0x6d34e
    1eac:	c60ae097          	auipc	ra,0xc60ae
    1eb0:	e5963097          	auipc	ra,0xe5963
    1eb4:	00108133          	add	sp,ra,ra
    1eb8:	2a130263          	beq	t1,ra,0x215c
    1ebc:	2a0000ef          	jal	ra,0x215c
    1ec0:	402083b3          	sub	t2,ra,sp
    1ec4:	00737133          	and	sp,t1,t2
    1ec8:	d3275217          	auipc	tp,0xd3275
    1ecc:	40218733          	sub	a4,gp,sp
    1ed0:	409200b3          	sub	ra,tp,s1
    1ed4:	00217233          	and	tp,sp,sp
    1ed8:	00306333          	or	t1,zero,gp
    1edc:	c6e08093          	addi	ra,ra,-914 # 0xffffffffe5964b1e
    1ee0:	eca6d0b7          	lui	ra,0xeca6d
    1ee4:	73b710b7          	lui	ra,0x73b71
    1ee8:	9dd3a117          	auipc	sp,0x9dd3a
    1eec:	7d401097          	auipc	ra,0x7d401
    1ef0:	b8064197          	auipc	gp,0xb8064
    1ef4:	80a2f5b7          	lui	a1,0x80a2f
    1ef8:	0010c2b3          	xor	t0,ra,ra
    1efc:	a5126193          	ori	gp,tp,-1455
    1f00:	951c3337          	lui	t1,0x951c3
    1f04:	921fc1b7          	lui	gp,0x921fc
    1f08:	a811e113          	ori	sp,gp,-1407
    1f0c:	00a06333          	or	t1,zero,a0
    1f10:	cce0e093          	ori	ra,ra,-818
    1f14:	43517293          	andi	t0,sp,1077
    1f18:	72018113          	addi	sp,gp,1824 # 0xffffffff921fc720
    1f1c:	765194b7          	lui	s1,0x76519
    1f20:	cd93d097          	auipc	ra,0xcd93d
    1f24:	8b5fd097          	auipc	ra,0x8b5fd
    1f28:	1fb16b13          	ori	s6,sp,507
    1f2c:	8b2c9117          	auipc	sp,0x8b2c9
    1f30:	f0310ae3          	beq	sp,gp,0x1e44
    1f34:	f11ff06f          	j	0x1e44
    1f38:	e8e82037          	lui	zero,0xe8e82
    1f3c:	72553117          	auipc	sp,0x72553
    1f40:	820890b7          	lui	ra,0x82089
    1f44:	fe10c213          	xori	tp,ra,-31
    1f48:	0021f133          	and	sp,gp,sp
    1f4c:	702ec0b7          	lui	ra,0x702ec
    1f50:	003d7133          	and	sp,s10,gp
    1f54:	dafd30b7          	lui	ra,0xdafd3
    1f58:	00124233          	xor	tp,tp,ra
    1f5c:	0021c1b3          	xor	gp,gp,sp
    1f60:	0011e1b3          	or	gp,gp,ra
    1f64:	0391c193          	xori	gp,gp,57
    1f68:	002170b3          	and	ra,sp,sp
    1f6c:	2d881097          	auipc	ra,0x2d881
    1f70:	6a048097          	auipc	ra,0x6a048
    1f74:	58793217          	auipc	tp,0x58793
    1f78:	f8b25137          	lui	sp,0xf8b25
    1f7c:	4438c1b7          	lui	gp,0x4438c
    1f80:	3c10e193          	ori	gp,ra,961
    1f84:	f1b9b017          	auipc	zero,0xf1b9b
    1f88:	124f6137          	lui	sp,0x124f6
    1f8c:	0021f1b3          	and	gp,gp,sp
    1f90:	76f18c13          	addi	s8,gp,1903 # 0x4438c76f
    1f94:	d76c2097          	auipc	ra,0xd76c2
    1f98:	dd716093          	ori	ra,sp,-553
    1f9c:	e9198137          	lui	sp,0xe9198
    1fa0:	4cf6c137          	lui	sp,0x4cf6c
    1fa4:	ed4d4137          	lui	sp,0xed4d4
    1fa8:	6c6431b7          	lui	gp,0x6c643
    1fac:	8c268197          	auipc	gp,0x8c268
    1fb0:	72c40197          	auipc	gp,0x72c40
    1fb4:	0010e1b3          	or	gp,ra,ra
    1fb8:	00000097          	auipc	ra,0x0
    1fbc:	d7c082e7          	jalr	t0,-644(ra) # 0x1d34
    1fc0:	21e2fc13          	andi	s8,t0,542
    1fc4:	a9237237          	lui	tp,0xa9237
    1fc8:	59218193          	addi	gp,gp,1426 # 0x72c42542
    1fcc:	5df320b7          	lui	ra,0x5df32
    1fd0:	e50ad097          	auipc	ra,0xe50ad
    1fd4:	b8e2c113          	xori	sp,t0,-1138
    1fd8:	3b7a20b7          	lui	ra,0x3b7a2
    1fdc:	6320c313          	xori	t1,ra,1586
    1fe0:	de049417          	auipc	s0,0xde049
    1fe4:	51d14197          	auipc	gp,0x51d14
    1fe8:	b3336113          	ori	sp,t1,-1229
    1fec:	a9978117          	auipc	sp,0xa9978
    1ff0:	53317193          	andi	gp,sp,1331
    1ff4:	0012f0b3          	and	ra,t0,ra
    1ff8:	0030c033          	xor	zero,ra,gp
    1ffc:	380cb197          	auipc	gp,0x380cb
    2000:	4cc7e113          	ori	sp,a5,1228
    2004:	0001f133          	and	sp,gp,zero
    2008:	4bb1a337          	lui	t1,0x4bb1a
    200c:	40718133          	sub	sp,gp,t2
    2010:	35cc5097          	auipc	ra,0x35cc5
    2014:	6c3e4097          	auipc	ra,0x6c3e4
    2018:	4c69e097          	auipc	ra,0x4c69e
    201c:	7d1050b7          	lui	ra,0x7d105
    2020:	3d61e593          	ori	a1,gp,982
    2024:	312f04b7          	lui	s1,0x312f0
    2028:	e114e197          	auipc	gp,0xe114e
    202c:	00f181b3          	add	gp,gp,a5
    2030:	bcc16113          	ori	sp,sp,-1076
    2034:	860050b7          	lui	ra,0x86005
    2038:	6c404193          	xori	gp,zero,1732
    203c:	00118133          	add	sp,gp,ra
    2040:	ba1486e3          	beq	s1,ra,0x1bec
    2044:	ba9ffa6f          	jal	s4,0x1bec
    2048:	0e32b197          	auipc	gp,0xe32b
    204c:	6010e093          	ori	ra,ra,1537
    2050:	d3d07113          	andi	sp,zero,-707
    2054:	e74290b7          	lui	ra,0xe7429
    2058:	bb6311b7          	lui	gp,0xbb631
    205c:	9babc097          	auipc	ra,0x9babc
    2060:	a1f3a197          	auipc	gp,0xa1f3a
    2064:	dcd91117          	auipc	sp,0xdcd91
    2068:	001300b3          	add	ra,t1,ra
    206c:	a0414093          	xori	ra,sp,-1532
    2070:	66a2d137          	lui	sp,0x66a2d
    2074:	b252e337          	lui	t1,0xb252e
    2078:	4aee6197          	auipc	gp,0x4aee6
    207c:	531e5137          	lui	sp,0x531e5
    2080:	fc93e193          	ori	gp,t2,-55
    2084:	0010e0b3          	or	ra,ra,ra
    2088:	40328133          	sub	sp,t0,gp
    208c:	db527113          	andi	sp,tp,-587
    2090:	41204093          	xori	ra,zero,1042
    2094:	6e5f8137          	lui	sp,0x6e5f8
    2098:	8d3392b7          	lui	t0,0x8d339
    209c:	d1526313          	ori	t1,tp,-747
    20a0:	45e043b7          	lui	t2,0x45e04
    20a4:	40510133          	sub	sp,sp,t0
    20a8:	a455f117          	auipc	sp,0xa455f
    20ac:	0040e133          	or	sp,ra,tp
    20b0:	95988097          	auipc	ra,0x95988
    20b4:	e38b6117          	auipc	sp,0xe38b6
    20b8:	acf38193          	addi	gp,t2,-1329 # 0x45e03acf
    20bc:	9d2283b7          	lui	t2,0x9d228
    20c0:	370d50b7          	lui	ra,0x370d5
    20c4:	0010e113          	ori	sp,ra,1
    20c8:	03b87217          	auipc	tp,0x3b87
    20cc:	00118263          	beq	gp,ra,0x20d0
    20d0:	fe8ff1ef          	jal	gp,0x18b8
    20d4:	0012c133          	xor	sp,t0,ra
    20d8:	ddaa41b7          	lui	gp,0xddaa4
    20dc:	330f1937          	lui	s2,0x330f1
    20e0:	000142b3          	xor	t0,sp,zero
    20e4:	00120033          	add	zero,tp,ra
    20e8:	3f26f317          	auipc	t1,0x3f26f
    20ec:	aa8cb097          	auipc	ra,0xaa8cb
    20f0:	d3897097          	auipc	ra,0xd3897
    20f4:	a05f0297          	auipc	t0,0xa05f0
    20f8:	e61fb3b7          	lui	t2,0xe61fb
    20fc:	7df04137          	lui	sp,0x7df04
    2100:	e1d0c293          	xori	t0,ra,-483
    2104:	0d156013          	ori	zero,a0,209
    2108:	f619c197          	auipc	gp,0xf619c
    210c:	3a988197          	auipc	gp,0x3a988
    2110:	90320193          	addi	gp,tp,-1789 # 0x3b889cb
    2114:	f213c093          	xori	ra,t2,-223
    2118:	928a9197          	auipc	gp,0x928a9
    211c:	b1aec097          	auipc	ra,0xb1aec
    2120:	36192597          	auipc	a1,0x36192
    2124:	002160b3          	or	ra,sp,sp
    2128:	4a60f193          	andi	gp,ra,1190
    212c:	35da9097          	auipc	ra,0x35da9
    2130:	0021e133          	or	sp,gp,sp
    2134:	512870b7          	lui	ra,0x51287
    2138:	07d1c193          	xori	gp,gp,125
    213c:	00318133          	add	sp,gp,gp
    2140:	0031f1b3          	and	gp,gp,gp
    2144:	624c4197          	auipc	gp,0x624c4
    2148:	3a7631b7          	lui	gp,0x3a763
    214c:	de0610b7          	lui	ra,0xde061
    2150:	69aad0b7          	lui	ra,0x69aad
    2154:	b2270ae3          	beq	a4,sp,0x1c88
    2158:	b31ff1ef          	jal	gp,0x1c88
    215c:	ff1923b7          	lui	t2,0xff192
    2160:	00048f33          	add	t5,s1,zero
    2164:	bd61f113          	andi	sp,gp,-1066
    2168:	741380b7          	lui	ra,0x74138
    216c:	c0b17b13          	andi	s6,sp,-1013
    2170:	6b9a30b7          	lui	ra,0x6b9a3
    2174:	ee369097          	auipc	ra,0xee369
    2178:	00b1c0b3          	xor	ra,gp,a1
    217c:	f824f0b7          	lui	ra,0xf824f
    2180:	d1238193          	addi	gp,t2,-750 # 0xffffffffff191d12
    2184:	4124a117          	auipc	sp,0x4124a
    2188:	ea5b1037          	lui	zero,0xea5b1
    218c:	2f158317          	auipc	t1,0x2f158
    2190:	402181b3          	sub	gp,gp,sp
    2194:	7dc14093          	xori	ra,sp,2012
    2198:	d231e193          	ori	gp,gp,-733
    219c:	9c6271b7          	lui	gp,0x9c627
    21a0:	5741e1b7          	lui	gp,0x5741e
    21a4:	f4b3e097          	auipc	ra,0xf4b3e
    21a8:	106720b7          	lui	ra,0x10672
    21ac:	00686133          	or	sp,a6,t1
    21b0:	c6f7d197          	auipc	gp,0xc6f7d
    21b4:	a8830193          	addi	gp,t1,-1400 # 0x2f159c14
    21b8:	00117133          	and	sp,sp,ra
    21bc:	873261b7          	lui	gp,0x87326
    21c0:	1413e097          	auipc	ra,0x1413e
    21c4:	7aa93217          	auipc	tp,0x7aa93
    21c8:	aa79f117          	auipc	sp,0xaa79f
    21cc:	001100b3          	add	ra,sp,ra
    21d0:	9cd3e137          	lui	sp,0x9cd3e
    21d4:	0071f133          	and	sp,gp,t2
    21d8:	0020f1b3          	and	gp,ra,sp
    21dc:	856fe1b7          	lui	gp,0x856fe
    21e0:	00010213          	mv	tp,sp
    21e4:	862208e3          	beq	tp,sp,0x1a54
    21e8:	c9bf40b7          	lui	ra,0xc9bf4
    21ec:	7e708093          	addi	ra,ra,2023 # 0xffffffffc9bf47e7
    21f0:	000383b3          	add	t2,t2,zero
    21f4:	04bfc117          	auipc	sp,0x4bfc
    21f8:	27383197          	auipc	gp,0x27383
    21fc:	009170b3          	and	ra,sp,s1
    2200:	56014113          	xori	sp,sp,1376
    2204:	2deac097          	auipc	ra,0x2deac
    2208:	68713117          	auipc	sp,0x68713
    220c:	1c710193          	addi	gp,sp,455 # 0x687153cf
    2210:	1ac0c113          	xori	sp,ra,428
    2214:	979b8237          	lui	tp,0x979b8
    2218:	7a943097          	auipc	ra,0x7a943
    221c:	d5526137          	lui	sp,0xd5526
    2220:	401180b3          	sub	ra,gp,ra
    2224:	00138cb3          	add	s9,t2,ra
    2228:	55758097          	auipc	ra,0x55758
    222c:	e7bfe0b7          	lui	ra,0xe7bfe
    2230:	1823e193          	ori	gp,t2,386
    2234:	d16c5337          	lui	t1,0xd16c5
    2238:	8b9890b7          	lui	ra,0x8b989
    223c:	401102b3          	sub	t0,sp,ra
    2240:	47bda0b7          	lui	ra,0x47bda
    2244:	3290e113          	ori	sp,ra,809
    2248:	761fa117          	auipc	sp,0x761fa
    224c:	d5645217          	auipc	tp,0xd5645
    2250:	67651097          	auipc	ra,0x67651
    2254:	f6950117          	auipc	sp,0xf6950
    2258:	0b485317          	auipc	t1,0xb485
    225c:	22228c63          	beq	t0,sp,0x2494
    2260:	234001ef          	jal	gp,0x2494
    2264:	59b14093          	xori	ra,sp,1435
    2268:	d023e113          	ori	sp,t2,-766
    226c:	532d4213          	xori	tp,s10,1330
    2270:	f32820b7          	lui	ra,0xf3282
    2274:	abcb2097          	auipc	ra,0xabcb2
    2278:	955a0117          	auipc	sp,0x955a0
    227c:	d0836793          	ori	a5,t1,-760
    2280:	1dfc4197          	auipc	gp,0x1dfc4
    2284:	31b57337          	lui	t1,0x31b57
    2288:	440063b7          	lui	t2,0x44006
    228c:	000181b3          	add	gp,gp,zero
    2290:	f380c193          	xori	gp,ra,-200
    2294:	26a47197          	auipc	gp,0x26a47
    2298:	c37020b7          	lui	ra,0xc3702
    229c:	38d17c93          	andi	s9,sp,909
    22a0:	002300b3          	add	ra,t1,sp
    22a4:	c0a0d1b7          	lui	gp,0xc0a0d
    22a8:	26227197          	auipc	gp,0x26227
    22ac:	37bed137          	lui	sp,0x37bed
    22b0:	b635e137          	lui	sp,0xb635e
    22b4:	1c16b2b7          	lui	t0,0x1c16b
    22b8:	3c29a0b7          	lui	ra,0x3c29a
    22bc:	89e0f017          	auipc	zero,0x89e0f
    22c0:	f5417193          	andi	gp,sp,-172
    22c4:	bc210193          	addi	gp,sp,-1086 # 0xffffffffb635dbc2
    22c8:	b8baf137          	lui	sp,0xb8baf
    22cc:	3b157117          	auipc	sp,0x3b157
    22d0:	403080b3          	sub	ra,ra,gp
    22d4:	06ba6197          	auipc	gp,0x6ba6
    22d8:	9020e193          	ori	gp,ra,-1790
    22dc:	a1f17113          	andi	sp,sp,-1505
    22e0:	51de1237          	lui	tp,0x51de1
    22e4:	01720263          	beq	tp,s7,0x22e8
    22e8:	18d0036f          	jal	t1,0x2c74
    22ec:	cf29d117          	auipc	sp,0xcf29d
    22f0:	197f0017          	auipc	zero,0x197f0
    22f4:	b5317113          	andi	sp,sp,-1197
    22f8:	0030e1b3          	or	gp,ra,gp
    22fc:	0031e1b3          	or	gp,gp,gp
    2300:	e50080b7          	lui	ra,0xe5008
    2304:	20912197          	auipc	gp,0x20912
    2308:	ebfd50b7          	lui	ra,0xebfd5
    230c:	00d0f133          	and	sp,ra,a3
    2310:	5640c193          	xori	gp,ra,1380
    2314:	a48d7217          	auipc	tp,0xa48d7
    2318:	411771b7          	lui	gp,0x41177
    231c:	42e7f1b7          	lui	gp,0x42e7f
    2320:	c05420b7          	lui	ra,0xc0542
    2324:	00318333          	add	t1,gp,gp
    2328:	5bb9e137          	lui	sp,0x5bb9e
    232c:	a6530037          	lui	zero,0xa6530
    2330:	37697117          	auipc	sp,0x37697
    2334:	003080b3          	add	ra,ra,gp
    2338:	003146b3          	xor	a3,sp,gp
    233c:	0042f333          	and	t1,t0,tp
    2340:	9a448013          	addi	zero,s1,-1628 # 0x312ef9a4
    2344:	88364093          	xori	ra,a2,-1917
    2348:	c92c5197          	auipc	gp,0xc92c5
    234c:	9f9df197          	auipc	gp,0x9f9df
    2350:	51b430b7          	lui	ra,0x51b43
    2354:	b7f3d137          	lui	sp,0xb7f3d
    2358:	31110193          	addi	gp,sp,785 # 0xffffffffb7f3d311
    235c:	00b79137          	lui	sp,0xb79
    2360:	9e906ab7          	lui	s5,0x9e906
    2364:	629d8097          	auipc	ra,0x629d8
    2368:	b3cea117          	auipc	sp,0xb3cea
    236c:	7520f2b7          	lui	t0,0x7520f
    2370:	0f5a3197          	auipc	gp,0xf5a3
    2374:	9eb64137          	lui	sp,0x9eb64
    2378:	190d3317          	auipc	t1,0x190d3
    237c:	00320133          	add	sp,tp,gp
    2380:	00010793          	mv	a5,sp
    2384:	00278263          	beq	a5,sp,0x2388
    2388:	6b618493          	addi	s1,gp,1718 # 0xf5a5a26
    238c:	2a3ce397          	auipc	t2,0x2a3ce
    2390:	f1657117          	auipc	sp,0xf1657
    2394:	bf416013          	ori	zero,sp,-1036
    2398:	00327b33          	and	s6,tp,gp
    239c:	63296117          	auipc	sp,0x63296
    23a0:	26ea5117          	auipc	sp,0x26ea5
    23a4:	5727e797          	auipc	a5,0x5727e
    23a8:	56e431b7          	lui	gp,0x56e43
    23ac:	c2418137          	lui	sp,0xc2418
    23b0:	e94b7837          	lui	a6,0xe94b7
    23b4:	7bf2e3b7          	lui	t2,0x7bf2e
    23b8:	4d210393          	addi	t2,sp,1234 # 0xffffffffc24184d2
    23bc:	5ec210b7          	lui	ra,0x5ec21
    23c0:	007181b3          	add	gp,gp,t2
    23c4:	79508113          	addi	sp,ra,1941 # 0x5ec21795
    23c8:	002081b3          	add	gp,ra,sp
    23cc:	03978197          	auipc	gp,0x3978
    23d0:	9850c213          	xori	tp,ra,-1659
    23d4:	2fd17137          	lui	sp,0x2fd17
    23d8:	402180b3          	sub	ra,gp,sp
    23dc:	001b01b3          	add	gp,s6,ra
    23e0:	b1ab00b7          	lui	ra,0xb1ab0
    23e4:	aa02f193          	andi	gp,t0,-1376
    23e8:	0a346197          	auipc	gp,0xa346
    23ec:	cccf12b7          	lui	t0,0xcccf1
    23f0:	820d1297          	auipc	t0,0x820d1
    23f4:	c4516113          	ori	sp,sp,-955
    23f8:	7172f293          	andi	t0,t0,1815
    23fc:	0032e0b3          	or	ra,t0,gp
    2400:	00306333          	or	t1,zero,gp
    2404:	00130263          	beq	t1,ra,0x2408
    2408:	691001ef          	jal	gp,0x3298
    240c:	c5f2f193          	andi	gp,t0,-929
    2410:	f090e093          	ori	ra,ra,-247
    2414:	00710133          	add	sp,sp,t2
    2418:	65b0c093          	xori	ra,ra,1627
    241c:	98f68193          	addi	gp,a3,-1649 # 0xffffffffe5b4b813
    2420:	40328133          	sub	sp,t0,gp
    2424:	2d3790b7          	lui	ra,0x2d379
    2428:	9c8f2097          	auipc	ra,0x9c8f2
    242c:	00726133          	or	sp,tp,t2
    2430:	5c614217          	auipc	tp,0x5c614
    2434:	7d6631b7          	lui	gp,0x7d663
    2438:	0f0810b7          	lui	ra,0xf081
    243c:	01c10133          	add	sp,sp,t3
    2440:	fe7e51b7          	lui	gp,0xfe7e5
    2444:	6702c197          	auipc	gp,0x6702c
    2448:	00f02197          	auipc	gp,0xf02
    244c:	1cc8b7b7          	lui	a5,0x1cc8b
    2450:	3c827193          	andi	gp,tp,968
    2454:	b4a34313          	xori	t1,t1,-1206
    2458:	9cd70197          	auipc	gp,0x9cd70
    245c:	005162b3          	or	t0,sp,t0
    2460:	21634213          	xori	tp,t1,534
    2464:	4818e117          	auipc	sp,0x4818e
    2468:	ec53c113          	xori	sp,t2,-315
    246c:	b1848117          	auipc	sp,0xb1848
    2470:	e5c18193          	addi	gp,gp,-420 # 0xffffffff9cd722b4
    2474:	d60b41b7          	lui	gp,0xd60b4
    2478:	2a116197          	auipc	gp,0x2a116
    247c:	d392c397          	auipc	t2,0xd392c
    2480:	003180b3          	add	ra,gp,gp
    2484:	7bf771b7          	lui	gp,0x7bf77
    2488:	40708233          	sub	tp,ra,t2
    248c:	36310663          	beq	sp,gp,0x27f8
    2490:	368000ef          	jal	ra,0x27f8
    2494:	35624093          	xori	ra,tp,854
    2498:	d92a40b7          	lui	ra,0xd92a4
    249c:	00314133          	xor	sp,sp,gp
    24a0:	0020f033          	and	zero,ra,sp
    24a4:	a5627113          	andi	sp,tp,-1450
    24a8:	b01b42b7          	lui	t0,0xb01b4
    24ac:	34b2e193          	ori	gp,t0,843
    24b0:	401181b3          	sub	gp,gp,ra
    24b4:	0032f3b3          	and	t2,t0,gp
    24b8:	00614033          	xor	zero,sp,t1
    24bc:	cbc18393          	addi	t2,gp,-836 # 0x7bf76cbc
    24c0:	15271137          	lui	sp,0x15271
    24c4:	2fc38113          	addi	sp,t2,764 # 0xffffffffd392e778
    24c8:	998d7093          	andi	ra,s10,-1640
    24cc:	002076b3          	and	a3,zero,sp
    24d0:	d8fe3317          	auipc	t1,0xd8fe3
    24d4:	003140b3          	xor	ra,sp,gp
    24d8:	6e9f0093          	addi	ra,t5,1769 # 0x7c2be4c5
    24dc:	01c0e133          	or	sp,ra,t3
    24e0:	00f3f5b3          	and	a1,t2,a5
    24e4:	003c41b3          	xor	gp,s8,gp
    24e8:	40410133          	sub	sp,sp,tp
    24ec:	002170b3          	and	ra,sp,sp
    24f0:	9f35b037          	lui	zero,0x9f35b
    24f4:	d7c4c097          	auipc	ra,0xd7c4c
    24f8:	0022c1b3          	xor	gp,t0,sp
    24fc:	41408093          	addi	ra,ra,1044 # 0xffffffffd7c4e908
    2500:	ad118193          	addi	gp,gp,-1327
    2504:	3b508193          	addi	gp,ra,949
    2508:	24a08093          	addi	ra,ra,586
    250c:	f141e093          	ori	ra,gp,-236
    2510:	adee91b7          	lui	gp,0xadee9
    2514:	004183b3          	add	t2,gp,tp
    2518:	7cf331b7          	lui	gp,0x7cf33
    251c:	00000097          	auipc	ra,0x0
    2520:	24c080e7          	jalr	588(ra) # 0x2768
    2524:	889d9a17          	auipc	s4,0x889d9
    2528:	64414013          	xori	zero,sp,1604
    252c:	9e5a2237          	lui	tp,0x9e5a2
    2530:	96b1c793          	xori	a5,gp,-1685
    2534:	58b050b7          	lui	ra,0x58b05
    2538:	69d14013          	xori	zero,sp,1693
    253c:	babdd397          	auipc	t2,0xbabdd
    2540:	40708333          	sub	t1,ra,t2
    2544:	e549e337          	lui	t1,0xe549e
    2548:	7f6ef117          	auipc	sp,0x7f6ef
    254c:	003085b3          	add	a1,ra,gp
    2550:	00310233          	add	tp,sp,gp
    2554:	98b40197          	auipc	gp,0x98b40
    2558:	8d51b0b7          	lui	ra,0x8d51b
    255c:	1cc08093          	addi	ra,ra,460 # 0xffffffff8d51b1cc
    2560:	65ec3197          	auipc	gp,0x65ec3
    2564:	40710133          	sub	sp,sp,t2
    2568:	5a6b51b7          	lui	gp,0x5a6b5
    256c:	00f10133          	add	sp,sp,a5
    2570:	7c614213          	xori	tp,sp,1990
    2574:	d3807193          	andi	gp,zero,-712
    2578:	40710033          	sub	zero,sp,t2
    257c:	97160197          	auipc	gp,0x97160
    2580:	b29e1117          	auipc	sp,0xb29e1
    2584:	f6f1f037          	lui	zero,0xf6f1f
    2588:	0010f0b3          	and	ra,ra,ra
    258c:	0073e8b3          	or	a7,t2,t2
    2590:	0031c0b3          	xor	ra,gp,gp
    2594:	6dc18293          	addi	t0,gp,1756 # 0xffffffff97162c58
    2598:	402101b3          	sub	gp,sp,sp
    259c:	50718393          	addi	t2,gp,1287
    25a0:	d5f0f193          	andi	gp,ra,-673
    25a4:	eafe3137          	lui	sp,0xeafe3
    25a8:	00717133          	and	sp,sp,t2
    25ac:	44854193          	xori	gp,a0,1096
    25b0:	8a5510b7          	lui	ra,0x8a551
    25b4:	62200063          	beq	zero,sp,0x2bd4
    25b8:	61c000ef          	jal	ra,0x2bd4
    25bc:	18c96393          	ori	t2,s2,396
    25c0:	9792f117          	auipc	sp,0x9792f
    25c4:	9df351b7          	lui	gp,0x9df35
    25c8:	6492e297          	auipc	t0,0x6492e
    25cc:	0013f0b3          	and	ra,t2,ra
    25d0:	477b4193          	xori	gp,s6,1143
    25d4:	26917113          	andi	sp,sp,617
    25d8:	dd7f6197          	auipc	gp,0xdd7f6
    25dc:	496fa317          	auipc	t1,0x496fa
    25e0:	8dd10293          	addi	t0,sp,-1827 # 0xffffffff97930e9d
    25e4:	6e1510b7          	lui	ra,0x6e151
    25e8:	35c3e193          	ori	gp,t2,860
    25ec:	6cfd4097          	auipc	ra,0x6cfd4
    25f0:	29136193          	ori	gp,t1,657
    25f4:	0060f1b3          	and	gp,ra,t1
    25f8:	0090c133          	xor	sp,ra,s1
    25fc:	c6e14193          	xori	gp,sp,-914
    2600:	0acf1137          	lui	sp,0xacf1
    2604:	a931f137          	lui	sp,0xa931f
    2608:	de408193          	addi	gp,ra,-540 # 0x6cfd63d0
    260c:	99076397          	auipc	t2,0x99076
    2610:	80755237          	lui	tp,0x80755
    2614:	5ee1e093          	ori	ra,gp,1518
    2618:	00108233          	add	tp,ra,ra
    261c:	00006133          	or	sp,zero,zero
    2620:	8e9e6297          	auipc	t0,0x8e9e6
    2624:	12b1e037          	lui	zero,0x12b1e
    2628:	b8ccb117          	auipc	sp,0xb8ccb
    262c:	571b73b7          	lui	t2,0x571b7
    2630:	50008113          	addi	sp,ra,1280
    2634:	8102e193          	ori	gp,t0,-2032
    2638:	0011f133          	and	sp,gp,ra
    263c:	40218333          	sub	t1,gp,sp
    2640:	6c8bc213          	xori	tp,s7,1736
    2644:	c9664097          	auipc	ra,0xc9664
    2648:	00028113          	mv	sp,t0
    264c:	c0510ce3          	beq	sp,t0,0x2264
    2650:	0070c0b3          	xor	ra,ra,t2
    2654:	82f8b317          	auipc	t1,0x82f8b
    2658:	e9bd8237          	lui	tp,0xe9bd8
    265c:	fd904913          	xori	s2,zero,-39
    2660:	46a3d117          	auipc	sp,0x46a3d
    2664:	5d5b3097          	auipc	ra,0x5d5b3
    2668:	19c9d337          	lui	t1,0x19c9d
    266c:	6d610113          	addi	sp,sp,1750 # 0x46a3fd36
    2670:	59f601b7          	lui	gp,0x59f60
    2674:	00310133          	add	sp,sp,gp
    2678:	00238133          	add	sp,t2,sp
    267c:	3e920113          	addi	sp,tp,1001 # 0xffffffffe9bd83e9
    2680:	a3b15297          	auipc	t0,0xa3b15
    2684:	75918193          	addi	gp,gp,1881 # 0x59f60759
    2688:	002180b3          	add	ra,gp,sp
    268c:	006361b3          	or	gp,t1,t1
    2690:	001370b3          	and	ra,t1,ra
    2694:	c65b0137          	lui	sp,0xc65b0
    2698:	006683b3          	add	t2,a3,t1
    269c:	b1c351b7          	lui	gp,0xb1c35
    26a0:	00100133          	add	sp,zero,ra
    26a4:	5ffec197          	auipc	gp,0x5ffec
    26a8:	211eb797          	auipc	a5,0x211eb
    26ac:	002080b3          	add	ra,ra,sp
    26b0:	aa7d3217          	auipc	tp,0xaa7d3
    26b4:	402182b3          	sub	t0,gp,sp
    26b8:	f034c097          	auipc	ra,0xf034c
    26bc:	ab343297          	auipc	t0,0xab343
    26c0:	30b81197          	auipc	gp,0x30b81
    26c4:	10604093          	xori	ra,zero,262
    26c8:	67110093          	addi	ra,sp,1649 # 0xffffffffc65b0671
    26cc:	ada03197          	auipc	gp,0xada03
    26d0:	24510663          	beq	sp,t0,0x291c
    26d4:	248001ef          	jal	gp,0x291c
    26d8:	09253137          	lui	sp,0x9253
    26dc:	0011e133          	or	sp,gp,ra
    26e0:	d6602397          	auipc	t2,0xd6602
    26e4:	09162a37          	lui	s4,0x9162
    26e8:	79a0c093          	xori	ra,ra,1946
    26ec:	00134133          	xor	sp,t1,ra
    26f0:	c8df30b7          	lui	ra,0xc8df3
    26f4:	521f2237          	lui	tp,0x521f2
    26f8:	59a9ddb7          	lui	s11,0x59a9d
    26fc:	0031e3b3          	or	t2,gp,gp
    2700:	de7990b7          	lui	ra,0xde799
    2704:	cd24a117          	auipc	sp,0xcd24a
    2708:	ebb10193          	addi	gp,sp,-325 # 0xffffffffcd24c5bf
    270c:	00cae117          	auipc	sp,0xcae
    2710:	a0c860b7          	lui	ra,0xa0c86
    2714:	7b0c6137          	lui	sp,0x7b0c6
    2718:	0011c333          	xor	t1,gp,ra
    271c:	132e2337          	lui	t1,0x132e2
    2720:	0061f1b3          	and	gp,gp,t1
    2724:	00017eb3          	and	t4,sp,zero
    2728:	8b317193          	andi	gp,sp,-1869
    272c:	405081b3          	sub	gp,ra,t0
    2730:	1e317013          	andi	zero,sp,483
    2734:	7247a137          	lui	sp,0x7247a
    2738:	0077f133          	and	sp,a5,t2
    273c:	fc59a1b7          	lui	gp,0xfc59a
    2740:	eec3d0b7          	lui	ra,0xeec3d
    2744:	3c27b0b7          	lui	ra,0x3c27b
    2748:	0032f1b3          	and	gp,t0,gp
    274c:	49aa0097          	auipc	ra,0x49aa0
    2750:	00208033          	add	zero,ra,sp
    2754:	b271e013          	ori	zero,gp,-1241
    2758:	b82e31b7          	lui	gp,0xb82e3
    275c:	e665f117          	auipc	sp,0xe665f
    2760:	00008093          	mv	ra,ra
    2764:	24108263          	beq	ra,ra,0x29a8
    2768:	3ab10593          	addi	a1,sp,939 # 0xffffffffe6661b07
    276c:	ec20e113          	ori	sp,ra,-318
    2770:	6d3ef697          	auipc	a3,0x6d3ef
    2774:	403201b3          	sub	gp,tp,gp
    2778:	2230c1b7          	lui	gp,0x2230c
    277c:	b87c9117          	auipc	sp,0xb87c9
    2780:	c0bd60b7          	lui	ra,0xc0bd6
    2784:	ff137193          	andi	gp,t1,-15
    2788:	b3ab3097          	auipc	ra,0xb3ab3
    278c:	a889a1b7          	lui	gp,0xa889a
    2790:	4a894397          	auipc	t2,0x4a894
    2794:	0050c1b3          	xor	gp,ra,t0
    2798:	400181b3          	sub	gp,gp,zero
    279c:	07708093          	addi	ra,ra,119 # 0xffffffffb3ab57ff
    27a0:	00568133          	add	sp,a3,t0
    27a4:	b6ad7097          	auipc	ra,0xb6ad7
    27a8:	d5e17193          	andi	gp,sp,-674
    27ac:	4ee040b7          	lui	ra,0x4ee04
    27b0:	403181b3          	sub	gp,gp,gp
    27b4:	385e0f37          	lui	t5,0x385e0
    27b8:	77508493          	addi	s1,ra,1909 # 0x4ee04775
    27bc:	fd31d097          	auipc	ra,0xfd31d
    27c0:	7de7c117          	auipc	sp,0x7de7c
    27c4:	40008133          	sub	sp,ra,zero
    27c8:	aa074097          	auipc	ra,0xaa074
    27cc:	9e61e193          	ori	gp,gp,-1562
    27d0:	68dc6337          	lui	t1,0x68dc6
    27d4:	c6c3c137          	lui	sp,0xc6c3c
    27d8:	d6482117          	auipc	sp,0xd6482
    27dc:	bb2bd117          	auipc	sp,0xbb2bd
    27e0:	326e9197          	auipc	gp,0x326e9
    27e4:	00170133          	add	sp,a4,ra
    27e8:	f4d19097          	auipc	ra,0xf4d19
    27ec:	f8338193          	addi	gp,t2,-125 # 0x4a896713
    27f0:	24310263          	beq	sp,gp,0x2a34
    27f4:	240001ef          	jal	gp,0x2a34
    27f8:	3281cf13          	xori	t5,gp,808
    27fc:	8a43e193          	ori	gp,t2,-1884
    2800:	5f650093          	addi	ra,a0,1526 # 0x1c6795f6
    2804:	03f0f197          	auipc	gp,0x3f0f
    2808:	14f14193          	xori	gp,sp,335
    280c:	cc50f137          	lui	sp,0xcc50f
    2810:	0a0ae397          	auipc	t2,0xa0ae
    2814:	a3c6d097          	auipc	ra,0xa3c6d
    2818:	0021f133          	and	sp,gp,sp
    281c:	0591c113          	xori	sp,gp,89
    2820:	4557e193          	ori	gp,a5,1109
    2824:	00330e33          	add	t3,t1,gp
    2828:	6e4f70b7          	lui	ra,0x6e4f7
    282c:	00314133          	xor	sp,sp,gp
    2830:	16e0c193          	xori	gp,ra,366
    2834:	00316133          	or	sp,sp,gp
    2838:	85f43297          	auipc	t0,0x85f43
    283c:	b4c00093          	li	ra,-1204
    2840:	40210133          	sub	sp,sp,sp
    2844:	62c0f093          	andi	ra,ra,1580
    2848:	aa578593          	addi	a1,a5,-1371 # 0x211ed14d
    284c:	832071b7          	lui	gp,0x83207
    2850:	54b430b7          	lui	ra,0x54b43
    2854:	b5c4a0b7          	lui	ra,0xb5c4a
    2858:	5c857197          	auipc	gp,0x5c857
    285c:	0fdca137          	lui	sp,0xfdca
    2860:	18e89137          	lui	sp,0x18e89
    2864:	2d647097          	auipc	ra,0x2d647
    2868:	5af08193          	addi	gp,ra,1455 # 0x2d649e13
    286c:	0010c0b3          	xor	ra,ra,ra
    2870:	34706097          	auipc	ra,0x34706
    2874:	0021f233          	and	tp,gp,sp
    2878:	d6c712b7          	lui	t0,0xd6c71
    287c:	beb06037          	lui	zero,0xbeb06
    2880:	a2610093          	addi	ra,sp,-1498 # 0x18e88a26
    2884:	14956113          	ori	sp,a0,329
    2888:	00000097          	auipc	ra,0x0
    288c:	c9c08167          	jalr	sp,-868(ra) # 0x2524
    2890:	b60731b7          	lui	gp,0xb6073
    2894:	4bc37093          	andi	ra,t1,1212
    2898:	bf7c21b7          	lui	gp,0xbf7c2
    289c:	a008f113          	andi	sp,a7,-1536
    28a0:	3f0a0217          	auipc	tp,0x3f0a0
    28a4:	13f269b7          	lui	s3,0x13f26
    28a8:	37f14013          	xori	zero,sp,895
    28ac:	f1306193          	ori	gp,zero,-237
    28b0:	cbef0313          	addi	t1,t5,-834 # 0x385dfcbe
    28b4:	0f5a9197          	auipc	gp,0xf5a9
    28b8:	0011e533          	or	a0,gp,ra
    28bc:	627c6117          	auipc	sp,0x627c6
    28c0:	c7ce21b7          	lui	gp,0xc7ce2
    28c4:	0031f1b3          	and	gp,gp,gp
    28c8:	4964c213          	xori	tp,s1,1174
    28cc:	2fe17093          	andi	ra,sp,766
    28d0:	e4404193          	xori	gp,zero,-444
    28d4:	401300b3          	sub	ra,t1,ra
    28d8:	cce7b0b7          	lui	ra,0xcce7b
    28dc:	99715097          	auipc	ra,0x99715
    28e0:	66e2a137          	lui	sp,0x66e2a
    28e4:	4f14e193          	ori	gp,s1,1265
    28e8:	a16a6117          	auipc	sp,0xa16a6
    28ec:	35300193          	li	gp,851
    28f0:	eb11f893          	andi	a7,gp,-335
    28f4:	07a55197          	auipc	gp,0x7a55
    28f8:	00118233          	add	tp,gp,ra
    28fc:	4bd0c113          	xori	sp,ra,1213
    2900:	ed742197          	auipc	gp,0xed742
    2904:	00138133          	add	sp,t2,ra
    2908:	007101b3          	add	gp,sp,t2
    290c:	4b72b237          	lui	tp,0x4b72b
    2910:	a64ed1b7          	lui	gp,0xa64ed
    2914:	22128263          	beq	t0,ra,0x2b38
    2918:	220001ef          	jal	gp,0x2b38
    291c:	2fe10193          	addi	gp,sp,766 # 0xffffffffa16a8be6
    2920:	e2e0c193          	xori	gp,ra,-466
    2924:	9bd3a117          	auipc	sp,0x9bd3a
    2928:	edb3e0b7          	lui	ra,0xedb3e
    292c:	003171b3          	and	gp,sp,gp
    2930:	54f70097          	auipc	ra,0x54f70
    2934:	603061b7          	lui	gp,0x60306
    2938:	14e16113          	ori	sp,sp,334
    293c:	0024e133          	or	sp,s1,sp
    2940:	35c0e313          	ori	t1,ra,860
    2944:	00210133          	add	sp,sp,sp
    2948:	003181b3          	add	gp,gp,gp
    294c:	cb26d137          	lui	sp,0xcb26d
    2950:	2f6240b7          	lui	ra,0x2f624
    2954:	e911f117          	auipc	sp,0xe911f
    2958:	ea71b0b7          	lui	ra,0xea71b
    295c:	1870c313          	xori	t1,ra,391
    2960:	16855237          	lui	tp,0x16855
    2964:	88c42197          	auipc	gp,0x88c42
    2968:	dbc60ab7          	lui	s5,0xdbc60
    296c:	d1900113          	li	sp,-743
    2970:	40410233          	sub	tp,sp,tp
    2974:	263ea097          	auipc	ra,0x263ea
    2978:	cc3be197          	auipc	gp,0xcc3be
    297c:	95100117          	auipc	sp,0x95100
    2980:	bcae0217          	auipc	tp,0xbcae0
    2984:	0011f3b3          	and	t2,gp,ra
    2988:	2f8c8117          	auipc	sp,0x2f8c8
    298c:	ea4a3b37          	lui	s6,0xea4a3
    2990:	f5b0c113          	xori	sp,ra,-165
    2994:	e71d00b7          	lui	ra,0xe71d0
    2998:	404282b3          	sub	t0,t0,tp
    299c:	bca10393          	addi	t2,sp,-1078 # 0x2f8ca552
    29a0:	a61106e3          	beq	sp,ra,0x240c
    29a4:	a69ff3ef          	jal	t2,0x240c
    29a8:	75107393          	andi	t2,zero,1873
    29ac:	52b2f117          	auipc	sp,0x52b2f
    29b0:	003080b3          	add	ra,ra,gp
    29b4:	239430b7          	lui	ra,0x23943
    29b8:	f40ca0b7          	lui	ra,0xf40ca
    29bc:	36a14193          	xori	gp,sp,874
    29c0:	5720c213          	xori	tp,ra,1394
    29c4:	314c3137          	lui	sp,0x314c3
    29c8:	fcb18117          	auipc	sp,0xfcb18
    29cc:	82d0c113          	xori	sp,ra,-2003
    29d0:	2f3e2117          	auipc	sp,0x2f3e2
    29d4:	003141b3          	xor	gp,sp,gp
    29d8:	99670317          	auipc	t1,0x99670
    29dc:	f2e71117          	auipc	sp,0xf2e71
    29e0:	401301b3          	sub	gp,t1,ra
    29e4:	7906be37          	lui	t3,0x7906b
    29e8:	1f91f113          	andi	sp,gp,505
    29ec:	49eff237          	lui	tp,0x49eff
    29f0:	1fa881b7          	lui	gp,0x1fa88
    29f4:	402187b3          	sub	a5,gp,sp
    29f8:	77d2c117          	auipc	sp,0x77d2c
    29fc:	14d027b7          	lui	a5,0x14d02
    2a00:	404581b3          	sub	gp,a1,tp
    2a04:	a0645117          	auipc	sp,0xa0645
    2a08:	0022c0b3          	xor	ra,t0,sp
    2a0c:	94ca1197          	auipc	gp,0x94ca1
    2a10:	c2b46137          	lui	sp,0xc2b46
    2a14:	5a308193          	addi	gp,ra,1443 # 0xfffffffff40ca5a3
    2a18:	a6a93037          	lui	zero,0xa6a93
    2a1c:	00206133          	or	sp,zero,sp
    2a20:	0df1a197          	auipc	gp,0xdf1a
    2a24:	b518b137          	lui	sp,0xb518b
    2a28:	00130413          	addi	s0,t1,1 # 0xffffffff996729d9
    2a2c:	c39102e3          	beq	sp,s9,0x2650
    2a30:	c21ff1ef          	jal	gp,0x2650
    2a34:	5e0233b7          	lui	t2,0x5e023
    2a38:	00618133          	add	sp,gp,t1
    2a3c:	7e710193          	addi	gp,sp,2023 # 0xffffffffb518b7e7
    2a40:	eac10093          	addi	ra,sp,-340
    2a44:	add06093          	ori	ra,zero,-1315
    2a48:	f1fdd2b7          	lui	t0,0xf1fdd
    2a4c:	8be4c197          	auipc	gp,0x8be4c
    2a50:	f30e2217          	auipc	tp,0xf30e2
    2a54:	b47770b7          	lui	ra,0xb4777
    2a58:	f2c8e0b7          	lui	ra,0xf2c8e
    2a5c:	d2754137          	lui	sp,0xd2754
    2a60:	19dab0b7          	lui	ra,0x19dab
    2a64:	8660c093          	xori	ra,ra,-1946
    2a68:	58295137          	lui	sp,0x58295
    2a6c:	a870e097          	auipc	ra,0xa870e
    2a70:	0031f133          	and	sp,gp,gp
    2a74:	0ddaa117          	auipc	sp,0xddaa
    2a78:	73416a97          	auipc	s5,0x73416
    2a7c:	002083b3          	add	t2,ra,sp
    2a80:	002172b3          	and	t0,sp,sp
    2a84:	72c160b7          	lui	ra,0x72c16
    2a88:	0051f1b3          	and	gp,gp,t0
    2a8c:	a376b117          	auipc	sp,0xa376b
    2a90:	003000b3          	add	ra,zero,gp
    2a94:	00216133          	or	sp,sp,sp
    2a98:	6fc95197          	auipc	gp,0x6fc95
    2a9c:	19617093          	andi	ra,sp,406
    2aa0:	216b0113          	addi	sp,s6,534 # 0xffffffffea4a3216
    2aa4:	3bca31b7          	lui	gp,0x3bca3
    2aa8:	d9dff1b7          	lui	gp,0xd9dff
    2aac:	38817097          	auipc	ra,0x38817
    2ab0:	82308ee3          	beq	ra,gp,0x22ec
    2ab4:	839ff16f          	jal	sp,0x22ec
    2ab8:	af4441b7          	lui	gp,0xaf444
    2abc:	0060e033          	or	zero,ra,t1
    2ac0:	84e17093          	andi	ra,sp,-1970
    2ac4:	a2010893          	addi	a7,sp,-1504 # 0xffffffffa376d4ac
    2ac8:	3646f113          	andi	sp,a3,868
    2acc:	2798b117          	auipc	sp,0x2798b
    2ad0:	00d340b3          	xor	ra,t1,a3
    2ad4:	d0e1f113          	andi	sp,gp,-754
    2ad8:	0010e1b3          	or	gp,ra,ra
    2adc:	780b6393          	ori	t2,s6,1920
    2ae0:	9e614213          	xori	tp,sp,-1562
    2ae4:	80f721b7          	lui	gp,0x80f72
    2ae8:	ee9f5097          	auipc	ra,0xee9f5
    2aec:	1f4b7197          	auipc	gp,0x1f4b7
    2af0:	0020e033          	or	zero,ra,sp
    2af4:	405181b3          	sub	gp,gp,t0
    2af8:	006081b3          	add	gp,ra,t1
    2afc:	5777f197          	auipc	gp,0x5777f
    2b00:	f98d6317          	auipc	t1,0xf98d6
    2b04:	f2506493          	ori	s1,zero,-219
    2b08:	c59fa297          	auipc	t0,0xc59fa
    2b0c:	83b55117          	auipc	sp,0x83b55
    2b10:	f4915197          	auipc	gp,0xf4915
    2b14:	8960e193          	ori	gp,ra,-1898
    2b18:	402300b3          	sub	ra,t1,sp
    2b1c:	2bd17093          	andi	ra,sp,701
    2b20:	7163f093          	andi	ra,t2,1814
    2b24:	d0f17093          	andi	ra,sp,-753
    2b28:	00408133          	add	sp,ra,tp
    2b2c:	552de137          	lui	sp,0x552de
    2b30:	ba2184e3          	beq	gp,sp,0x26d8
    2b34:	ba5ff1ef          	jal	gp,0x26d8
    2b38:	250c4117          	auipc	sp,0x250c4
    2b3c:	e0b1e297          	auipc	t0,0xe0b1e
    2b40:	1fabe897          	auipc	a7,0x1fabe
    2b44:	01d0f133          	and	sp,ra,t4
    2b48:	407080b3          	sub	ra,ra,t2
    2b4c:	000140b3          	xor	ra,sp,zero
    2b50:	5790c093          	xori	ra,ra,1401
    2b54:	46c971b7          	lui	gp,0x46c97
    2b58:	457281b7          	lui	gp,0x45728
    2b5c:	c31a20b7          	lui	ra,0xc31a2
    2b60:	b4f9a117          	auipc	sp,0xb4f9a
    2b64:	75bfb197          	auipc	gp,0x75bfb
    2b68:	40308333          	sub	t1,ra,gp
    2b6c:	ce8fd097          	auipc	ra,0xce8fd
    2b70:	6fd80117          	auipc	sp,0x6fd80
    2b74:	54516313          	ori	t1,sp,1349
    2b78:	17ae83b7          	lui	t2,0x17ae8
    2b7c:	cb608193          	addi	gp,ra,-842 # 0xffffffffce8ff822
    2b80:	e420e093          	ori	ra,ra,-446
    2b84:	8d0d9337          	lui	t1,0x8d0d9
    2b88:	85963117          	auipc	sp,0x85963
    2b8c:	b8e121b7          	lui	gp,0xb8e12
    2b90:	1cb51137          	lui	sp,0x1cb51
    2b94:	bac85097          	auipc	ra,0xbac85
    2b98:	ff0dd117          	auipc	sp,0xff0dd
    2b9c:	8428b0b7          	lui	ra,0x8428b
    2ba0:	377bc0b7          	lui	ra,0x377bc
    2ba4:	2ed3f1b7          	lui	gp,0x2ed3f
    2ba8:	81be2037          	lui	zero,0x81be2
    2bac:	f008a0b7          	lui	ra,0xf008a
    2bb0:	4cce3097          	auipc	ra,0x4cce3
    2bb4:	1650c113          	xori	sp,ra,357
    2bb8:	bff75097          	auipc	ra,0xbff75
    2bbc:	f201b117          	auipc	sp,0xf201b
    2bc0:	844fe097          	auipc	ra,0x844fe
    2bc4:	c7438337          	lui	t1,0xc7438
    2bc8:	00216233          	or	tp,sp,sp
    2bcc:	00610263          	beq	sp,t1,0x2bd0
    2bd0:	e18ff1ef          	jal	gp,0x21e8
    2bd4:	35b18113          	addi	sp,gp,859 # 0x2ed3f35b
    2bd8:	d470c093          	xori	ra,ra,-697
    2bdc:	f1a46117          	auipc	sp,0xf1a46
    2be0:	00416133          	or	sp,sp,tp
    2be4:	5bc0f113          	andi	sp,ra,1468
    2be8:	d5583137          	lui	sp,0xd5583
    2bec:	002081b3          	add	gp,ra,sp
    2bf0:	dc81e013          	ori	zero,gp,-568
    2bf4:	9b00e117          	auipc	sp,0x9b00e
    2bf8:	3fd24193          	xori	gp,tp,1021
    2bfc:	40b10133          	sub	sp,sp,a1
    2c00:	1a90c113          	xori	sp,ra,425
    2c04:	91901397          	auipc	t2,0x91901
    2c08:	7c95d397          	auipc	t2,0x7c95d
    2c0c:	001182b3          	add	t0,gp,ra
    2c10:	0010f133          	and	sp,ra,ra
    2c14:	d4510393          	addi	t2,sp,-699 # 0xffffffff9b010939
    2c18:	055f2197          	auipc	gp,0x55f2
    2c1c:	e70541b7          	lui	gp,0xe7054
    2c20:	68d9f093          	andi	ra,s3,1677
    2c24:	0150c0b3          	xor	ra,ra,s5
    2c28:	f7181197          	auipc	gp,0xf7181
    2c2c:	00108333          	add	t1,ra,ra
    2c30:	10f18593          	addi	a1,gp,271 # 0xfffffffff7183d37
    2c34:	3b62d197          	auipc	gp,0x3b62d
    2c38:	648841b7          	lui	gp,0x64884
    2c3c:	c4d00097          	auipc	ra,0xc4d00
    2c40:	acc071b7          	lui	gp,0xacc07
    2c44:	f91e60b7          	lui	ra,0xf91e6
    2c48:	00018133          	add	sp,gp,zero
    2c4c:	209b71b7          	lui	gp,0x209b7
    2c50:	01934093          	xori	ra,t1,25
    2c54:	d8018193          	addi	gp,gp,-640 # 0x209b6d80
    2c58:	0010f1b3          	and	gp,ra,ra
    2c5c:	006170b3          	and	ra,sp,t1
    2c60:	caa16493          	ori	s1,sp,-854
    2c64:	412620b7          	lui	ra,0x41262
    2c68:	e4e0f193          	andi	gp,ra,-434
    2c6c:	00018093          	mv	ra,gp
    2c70:	c23080e3          	beq	ra,gp,0x2890
    2c74:	003181b3          	add	gp,gp,gp
    2c78:	85845117          	auipc	sp,0x85845
    2c7c:	e5d08213          	addi	tp,ra,-419 # 0x41261e5d
    2c80:	007000b3          	add	ra,zero,t2
    2c84:	32927313          	andi	t1,tp,809
    2c88:	db3f6137          	lui	sp,0xdb3f6
    2c8c:	3350c093          	xori	ra,ra,821
    2c90:	92993b97          	auipc	s7,0x92993
    2c94:	aa287117          	auipc	sp,0xaa287
    2c98:	d649c397          	auipc	t2,0xd649c
    2c9c:	d5fed1b7          	lui	gp,0xd5fed
    2ca0:	e9c1c113          	xori	sp,gp,-356
    2ca4:	402302b3          	sub	t0,t1,sp
    2ca8:	401180b3          	sub	ra,gp,ra
    2cac:	0010e133          	or	sp,ra,ra
    2cb0:	4fa0c093          	xori	ra,ra,1274
    2cb4:	0016e0b3          	or	ra,a3,ra
    2cb8:	1a4821b7          	lui	gp,0x1a482
    2cbc:	b2188137          	lui	sp,0xb2188
    2cc0:	af325117          	auipc	sp,0xaf325
    2cc4:	0010c7b3          	xor	a5,ra,ra
    2cc8:	58c16193          	ori	gp,sp,1420
    2ccc:	8f1b8117          	auipc	sp,0x8f1b8
    2cd0:	0031c133          	xor	sp,gp,gp
    2cd4:	9d5ff117          	auipc	sp,0x9d5ff
    2cd8:	140ea0b7          	lui	ra,0x140ea
    2cdc:	0301ef13          	ori	t5,gp,48
    2ce0:	4aa0f093          	andi	ra,ra,1194
    2ce4:	0d5ec137          	lui	sp,0xd5ec
    2ce8:	00238133          	add	sp,t2,sp
    2cec:	0020e0b3          	or	ra,ra,sp
    2cf0:	402281b3          	sub	gp,t0,sp
    2cf4:	945da1b7          	lui	gp,0x945da
    2cf8:	13c16213          	ori	tp,sp,316
    2cfc:	fc15f293          	andi	t0,a1,-63
    2d00:	e151e193          	ori	gp,gp,-491
    2d04:	5aa7a597          	auipc	a1,0x5aa7a
    2d08:	37ac8197          	auipc	gp,0x37ac8
    2d0c:	da5386e3          	beq	t2,t0,0x2ab8
    2d10:	da9ff0ef          	jal	ra,0x2ab8
    2d14:	2a076317          	auipc	t1,0x2a076
    2d18:	40218033          	sub	zero,gp,sp
    2d1c:	6cf17193          	andi	gp,sp,1743
    2d20:	e25fa197          	auipc	gp,0xe25fa
    2d24:	34ba4197          	auipc	gp,0x34ba4
    2d28:	e3e73097          	auipc	ra,0xe3e73
    2d2c:	401085b3          	sub	a1,ra,ra
    2d30:	48b17113          	andi	sp,sp,1163
    2d34:	8822bc97          	auipc	s9,0x8822b
    2d38:	c7103137          	lui	sp,0xc7103
    2d3c:	230c0097          	auipc	ra,0x230c0
    2d40:	64b48b97          	auipc	s7,0x64b48
    2d44:	a4c58093          	addi	ra,a1,-1460 # 0x5aa7c750
    2d48:	003c64b3          	or	s1,s8,gp
    2d4c:	c0291137          	lui	sp,0xc0291
    2d50:	e9179097          	auipc	ra,0xe9179
    2d54:	007172b3          	and	t0,sp,t2
    2d58:	f540c293          	xori	t0,ra,-172
    2d5c:	9a4c4297          	auipc	t0,0x9a4c4
    2d60:	cbc2e113          	ori	sp,t0,-836
    2d64:	c39a9017          	auipc	zero,0xc39a9
    2d68:	32e14293          	xori	t0,sp,814
    2d6c:	9c89d3b7          	lui	t2,0x9c89d
    2d70:	346391b7          	lui	gp,0x34639
    2d74:	56ac2137          	lui	sp,0x56ac2
    2d78:	e1c01317          	auipc	t1,0xe1c01
    2d7c:	24cec1b7          	lui	gp,0x24cec
    2d80:	a8216193          	ori	gp,sp,-1406
    2d84:	dc9bf737          	lui	a4,0xdc9bf
    2d88:	0031c133          	xor	sp,gp,gp
    2d8c:	9464a2b7          	lui	t0,0x9464a
    2d90:	43261197          	auipc	gp,0x43261
    2d94:	98c73117          	auipc	sp,0x98c73
    2d98:	44437193          	andi	gp,t1,1092
    2d9c:	a9382117          	auipc	sp,0xa9382
    2da0:	bd3910b7          	lui	ra,0xbd391
    2da4:	00d0c233          	xor	tp,ra,a3
    2da8:	97868013          	addi	zero,a3,-1672 # 0x6d3f10e8
    2dac:	00010113          	mv	sp,sp
    2db0:	18210863          	beq	sp,sp,0x2f40
    2db4:	402182b3          	sub	t0,gp,sp
    2db8:	85a98637          	lui	a2,0x85a98
    2dbc:	3bfb4797          	auipc	a5,0x3bfb4
    2dc0:	86c0c093          	xori	ra,ra,-1940
    2dc4:	af114093          	xori	ra,sp,-1295
    2dc8:	73d0f193          	andi	gp,ra,1853
    2dcc:	0010f1b3          	and	gp,ra,ra
    2dd0:	5ace2637          	lui	a2,0x5ace2
    2dd4:	c6918c13          	addi	s8,gp,-919 # 0x432639f9
    2dd8:	007046b3          	xor	a3,zero,t2
    2ddc:	002100b3          	add	ra,sp,sp
    2de0:	004180b3          	add	ra,gp,tp
    2de4:	d3d31137          	lui	sp,0xd3d31
    2de8:	00304133          	xor	sp,zero,gp
    2dec:	40c29397          	auipc	t2,0x40c29
    2df0:	588d81b7          	lui	gp,0x588d8
    2df4:	3363deb7          	lui	t4,0x3363d
    2df8:	9ca22197          	auipc	gp,0x9ca22
    2dfc:	0031c933          	xor	s2,gp,gp
    2e00:	06b1c113          	xori	sp,gp,107
    2e04:	be71f113          	andi	sp,gp,-1049
    2e08:	868101b7          	lui	gp,0x86810
    2e0c:	c791f113          	andi	sp,gp,-903
    2e10:	00a14133          	xor	sp,sp,a0
    2e14:	e3e67397          	auipc	t2,0xe3e67
    2e18:	9655cf97          	auipc	t6,0x9655c
    2e1c:	2e76e097          	auipc	ra,0x2e76e
    2e20:	1831d137          	lui	sp,0x1831d
    2e24:	f5c68117          	auipc	sp,0xf5c68
    2e28:	24320393          	addi	t2,tp,579 # 0xfffffffff30e4c93
    2e2c:	4f80c193          	xori	gp,ra,1272
    2e30:	3a35f097          	auipc	ra,0x3a35f
    2e34:	6e48f197          	auipc	gp,0x6e48f
    2e38:	0021f1b3          	and	gp,gp,sp
    2e3c:	00128263          	beq	t0,ra,0x2e40
    2e40:	659001ef          	jal	gp,0x3c98
    2e44:	0361e193          	ori	gp,gp,54
    2e48:	0031f2b3          	and	t0,gp,gp
    2e4c:	2a208513          	addi	a0,ra,674 # 0x3a3620d2
    2e50:	0010f0b3          	and	ra,ra,ra
    2e54:	d0f16093          	ori	ra,sp,-753
    2e58:	40218133          	sub	sp,gp,sp
    2e5c:	9b2c12b7          	lui	t0,0x9b2c1
    2e60:	9aada337          	lui	t1,0x9aada
    2e64:	880860b7          	lui	ra,0x88086
    2e68:	bda2c093          	xori	ra,t0,-1062
    2e6c:	002109b3          	add	s3,sp,sp
    2e70:	ddd36193          	ori	gp,t1,-547
    2e74:	001070b3          	and	ra,zero,ra
    2e78:	b01d40b7          	lui	ra,0xb01d4
    2e7c:	18216693          	ori	a3,sp,386
    2e80:	92d5c117          	auipc	sp,0x92d5c
    2e84:	f9cf0197          	auipc	gp,0xf9cf0
    2e88:	8fb10213          	addi	tp,sp,-1797 # 0xffffffff92d5e77b
    2e8c:	0011f133          	and	sp,gp,ra
    2e90:	192cc197          	auipc	gp,0x192cc
    2e94:	003141b3          	xor	gp,sp,gp
    2e98:	1f062117          	auipc	sp,0x1f062
    2e9c:	e2108093          	addi	ra,ra,-479 # 0xffffffffb01d3e21
    2ea0:	144413b7          	lui	t2,0x14441
    2ea4:	00107333          	and	t1,zero,ra
    2ea8:	55a570b7          	lui	ra,0x55a57
    2eac:	00316033          	or	zero,sp,gp
    2eb0:	a17543b7          	lui	t2,0xa1754
    2eb4:	4b6e9197          	auipc	gp,0x4b6e9
    2eb8:	e4518ee3          	beq	gp,t0,0x2d14
    2ebc:	e59ff06f          	j	0x2d14
    2ec0:	b55bf197          	auipc	gp,0xb55bf
    2ec4:	003160b3          	or	ra,sp,gp
    2ec8:	cd0ed097          	auipc	ra,0xcd0ed
    2ecc:	755341b7          	lui	gp,0x75534
    2ed0:	ee53e097          	auipc	ra,0xee53e
    2ed4:	95a1e113          	ori	sp,gp,-1702
    2ed8:	40100133          	neg	sp,ra
    2edc:	2481c093          	xori	ra,gp,584
    2ee0:	002180b3          	add	ra,gp,sp
    2ee4:	c1ab9597          	auipc	a1,0xc1ab9
    2ee8:	28ddb297          	auipc	t0,0x28ddb
    2eec:	afd81137          	lui	sp,0xafd81
    2ef0:	c1a0c293          	xori	t0,ra,-998
    2ef4:	2cf17213          	andi	tp,sp,719
    2ef8:	40318333          	sub	t1,gp,gp
    2efc:	58246297          	auipc	t0,0x58246
    2f00:	0037e1b3          	or	gp,a5,gp
    2f04:	2aff72b7          	lui	t0,0x2aff7
    2f08:	0022c233          	xor	tp,t0,sp
    2f0c:	892a80b7          	lui	ra,0x892a8
    2f10:	6a0d5117          	auipc	sp,0x6a0d5
    2f14:	401301b3          	sub	gp,t1,ra
    2f18:	b28e6117          	auipc	sp,0xb28e6
    2f1c:	37560117          	auipc	sp,0x37560
    2f20:	b351c113          	xori	sp,gp,-1227
    2f24:	19f5b117          	auipc	sp,0x19f5b
    2f28:	81097197          	auipc	gp,0x81097
    2f2c:	00914133          	xor	sp,sp,s1
    2f30:	b0b1ec13          	ori	s8,gp,-1269
    2f34:	f238e1b7          	lui	gp,0xf238e
    2f38:	00018193          	mv	gp,gp
    2f3c:	f03184e3          	beq	gp,gp,0x2e44
    2f40:	001100b3          	add	ra,sp,ra
    2f44:	6260c0b7          	lui	ra,0x6260c
    2f48:	80f0e093          	ori	ra,ra,-2033
    2f4c:	7f414213          	xori	tp,sp,2036
    2f50:	40700213          	li	tp,1031
    2f54:	559f91b7          	lui	gp,0x559f9
    2f58:	1eee0093          	addi	ra,t3,494 # 0x7906b1ee
    2f5c:	172a73b7          	lui	t2,0x172a7
    2f60:	b7976017          	auipc	zero,0xb7976
    2f64:	007201b3          	add	gp,tp,t2
    2f68:	b5c37097          	auipc	ra,0xb5c37
    2f6c:	42324293          	xori	t0,tp,1059
    2f70:	42fe3497          	auipc	s1,0x42fe3
    2f74:	7473e097          	auipc	ra,0x7473e
    2f78:	002087b3          	add	a5,ra,sp
    2f7c:	0011f133          	and	sp,gp,ra
    2f80:	77fcc197          	auipc	gp,0x77fcc
    2f84:	0138e0b7          	lui	ra,0x138e
    2f88:	6e19f017          	auipc	zero,0x6e19f
    2f8c:	251bf337          	lui	t1,0x251bf
    2f90:	25314093          	xori	ra,sp,595
    2f94:	0020e0b3          	or	ra,ra,sp
    2f98:	9a610193          	addi	gp,sp,-1626 # 0x19f5d8ca
    2f9c:	d891c393          	xori	t2,gp,-631
    2fa0:	1a742097          	auipc	ra,0x1a742
    2fa4:	47a31137          	lui	sp,0x47a31
    2fa8:	0011e033          	or	zero,gp,ra
    2fac:	40758033          	sub	zero,a1,t2
    2fb0:	6ca10213          	addi	tp,sp,1738 # 0x47a316ca
    2fb4:	9e737193          	andi	gp,t1,-1561
    2fb8:	14017313          	andi	t1,sp,320
    2fbc:	bab3e193          	ori	gp,t2,-1109
    2fc0:	7fb30093          	addi	ra,t1,2043 # 0x251bf7fb
    2fc4:	a5fff137          	lui	sp,0xa5fff
    2fc8:	08218a63          	beq	gp,sp,0x305c
    2fcc:	09000c6f          	jal	s8,0x305c
    2fd0:	d6463097          	auipc	ra,0xd6463
    2fd4:	0021e133          	or	sp,gp,sp
    2fd8:	63e50337          	lui	t1,0x63e50
    2fdc:	1144c137          	lui	sp,0x1144c
    2fe0:	00116133          	or	sp,sp,ra
    2fe4:	98cab137          	lui	sp,0x98cab
    2fe8:	0011f0b3          	and	ra,gp,ra
    2fec:	87016193          	ori	gp,sp,-1936
    2ff0:	00217133          	and	sp,sp,sp
    2ff4:	36cae0b7          	lui	ra,0x36cae
    2ff8:	c5c201b7          	lui	gp,0xc5c20
    2ffc:	7ef47117          	auipc	sp,0x7ef47
    3000:	06bc2237          	lui	tp,0x6bc2
    3004:	17010313          	addi	t1,sp,368 # 0x7ef4a16c
    3008:	7ff1e093          	ori	ra,gp,2047
    300c:	002680b3          	add	ra,a3,sp
    3010:	9c4e00b7          	lui	ra,0x9c4e0
    3014:	f9014293          	xori	t0,sp,-112
    3018:	ccfaa117          	auipc	sp,0xccfaa
    301c:	6413b337          	lui	t1,0x6413b
    3020:	f760c3b7          	lui	t2,0xf760c
    3024:	a9908193          	addi	gp,ra,-1383 # 0xffffffff9c4dfa99
    3028:	1d1e0937          	lui	s2,0x1d1e0
    302c:	14a01397          	auipc	t2,0x14a01
    3030:	92b61b97          	auipc	s7,0x92b61
    3034:	3a2a4117          	auipc	sp,0x3a2a4
    3038:	c5b6c137          	lui	sp,0xc5b6c
    303c:	9b1bd197          	auipc	gp,0x9b1bd
    3040:	fb961037          	lui	zero,0xfb961
    3044:	bec68097          	auipc	ra,0xbec68
    3048:	2eae50b7          	lui	ra,0x2eae5
    304c:	4bd9f237          	lui	tp,0x4bd9f
    3050:	6c890097          	auipc	ra,0x6c890
    3054:	00010293          	mv	t0,sp
    3058:	62228e63          	beq	t0,sp,0x3694
    305c:	40630133          	sub	sp,t1,t1
    3060:	d611c297          	auipc	t0,0xd611c
    3064:	0010c1b3          	xor	gp,ra,ra
    3068:	002c6133          	or	sp,s8,sp
    306c:	002180b3          	add	ra,gp,sp
    3070:	6371c193          	xori	gp,gp,1591
    3074:	40118333          	sub	t1,gp,ra
    3078:	0035c033          	xor	zero,a1,gp
    307c:	4beb6097          	auipc	ra,0x4beb6
    3080:	002181b3          	add	gp,gp,sp
    3084:	3170e113          	ori	sp,ra,791
    3088:	252fe497          	auipc	s1,0x252fe
    308c:	018c6097          	auipc	ra,0x18c6
    3090:	e554c093          	xori	ra,s1,-427
    3094:	cd216113          	ori	sp,sp,-814
    3098:	3df5c093          	xori	ra,a1,991
    309c:	96241097          	auipc	ra,0x96241
    30a0:	c4b27293          	andi	t0,tp,-949
    30a4:	cdf165b7          	lui	a1,0xcdf16
    30a8:	93301137          	lui	sp,0x93301
    30ac:	9b81b137          	lui	sp,0x9b81b
    30b0:	cc50c213          	xori	tp,ra,-827
    30b4:	00d1c0b3          	xor	ra,gp,a3
    30b8:	c2814d13          	xori	s10,sp,-984
    30bc:	2cf60317          	auipc	t1,0x2cf60
    30c0:	d3a0c0b7          	lui	ra,0xd3a0c
    30c4:	402083b3          	sub	t2,ra,sp
    30c8:	00110033          	add	zero,sp,ra
    30cc:	40f6d1b7          	lui	gp,0x40f6d
    30d0:	6f716393          	ori	t2,sp,1783
    30d4:	03ce2337          	lui	t1,0x3ce2
    30d8:	00008093          	mv	ra,ra
    30dc:	40108263          	beq	ra,ra,0x34e0
    30e0:	45c04993          	xori	s3,zero,1116
    30e4:	0000c5b3          	xor	a1,ra,zero
    30e8:	f7410293          	addi	t0,sp,-140 # 0xffffffff9b81af74
    30ec:	0031e0b3          	or	ra,gp,gp
    30f0:	81d44093          	xori	ra,s0,-2019
    30f4:	989c6137          	lui	sp,0x989c6
    30f8:	002161b3          	or	gp,sp,sp
    30fc:	5ac75117          	auipc	sp,0x5ac75
    3100:	26a53397          	auipc	t2,0x26a53
    3104:	63dad0b7          	lui	ra,0x63dad
    3108:	0632d0b7          	lui	ra,0x632d
    310c:	eb685237          	lui	tp,0xeb685
    3110:	be591117          	auipc	sp,0xbe591
    3114:	dc33e193          	ori	gp,t2,-573
    3118:	40208133          	sub	sp,ra,sp
    311c:	403300b3          	sub	ra,t1,gp
    3120:	6cb471b7          	lui	gp,0x6cb47
    3124:	ab6293b7          	lui	t2,0xab629
    3128:	001271b3          	and	gp,tp,ra
    312c:	40143097          	auipc	ra,0x40143
    3130:	002272b3          	and	t0,tp,sp
    3134:	0010e133          	or	sp,ra,ra
    3138:	00520033          	add	zero,tp,t0
    313c:	8f1080b7          	lui	ra,0x8f108
    3140:	46164297          	auipc	t0,0x46164
    3144:	c00b40b7          	lui	ra,0xc00b4
    3148:	de0d1137          	lui	sp,0xde0d1
    314c:	8ac8a097          	auipc	ra,0x8ac8a
    3150:	4b9650b7          	lui	ra,0x4b965
    3154:	d48472b7          	lui	t0,0xd4847
    3158:	16b156b7          	lui	a3,0x16b15
    315c:	0778f137          	lui	sp,0x778f
    3160:	7f31f193          	andi	gp,gp,2035
    3164:	00008093          	mv	ra,ra
    3168:	5a108063          	beq	ra,ra,0x3708
    316c:	0466a017          	auipc	zero,0x466a
    3170:	40630133          	sub	sp,t1,t1
    3174:	fda20137          	lui	sp,0xfda20
    3178:	2d86d1b7          	lui	gp,0x2d86d
    317c:	0031f133          	and	sp,gp,gp
    3180:	0040e1b3          	or	gp,ra,tp
    3184:	a9416193          	ori	gp,sp,-1388
    3188:	776b1097          	auipc	ra,0x776b1
    318c:	8857d097          	auipc	ra,0x8857d
    3190:	e7a79197          	auipc	gp,0xe7a79
    3194:	41d18033          	sub	zero,gp,t4
    3198:	76c181b7          	lui	gp,0x76c18
    319c:	07ab3337          	lui	t1,0x7ab3
    31a0:	bfc49097          	auipc	ra,0xbfc49
    31a4:	89fd41b7          	lui	gp,0x89fd4
    31a8:	7d66ba37          	lui	s4,0x7d66b
    31ac:	0020f533          	and	a0,ra,sp
    31b0:	ff40c093          	xori	ra,ra,-12
    31b4:	00010233          	add	tp,sp,zero
    31b8:	08235117          	auipc	sp,0x8235
    31bc:	dad7c117          	auipc	sp,0xdad7c
    31c0:	c36c4137          	lui	sp,0xc36c4
    31c4:	42d16313          	ori	t1,sp,1069
    31c8:	001141b3          	xor	gp,sp,ra
    31cc:	bac2a197          	auipc	gp,0xbac2a
    31d0:	6ef30117          	auipc	sp,0x6ef30
    31d4:	595ab017          	auipc	zero,0x595ab
    31d8:	0d529097          	auipc	ra,0xd529
    31dc:	fb58d3b7          	lui	t2,0xfb58d
    31e0:	c6bf71b7          	lui	gp,0xc6bf7
    31e4:	9e13d117          	auipc	sp,0x9e13d
    31e8:	be80c2b7          	lui	t0,0xbe80c
    31ec:	401180b3          	sub	ra,gp,ra
    31f0:	00000117          	auipc	sp,0x0
    31f4:	de010167          	jalr	sp,-544(sp) # 0x2fd0
    31f8:	97030093          	addi	ra,t1,-1680 # 0x7ab2970
    31fc:	0030c0b3          	xor	ra,ra,gp
    3200:	002084b3          	add	s1,ra,sp
    3204:	c8b14113          	xori	sp,sp,-885
    3208:	8c4fa137          	lui	sp,0x8c4fa
    320c:	d1063397          	auipc	t2,0xd1063
    3210:	402080b3          	sub	ra,ra,sp
    3214:	007dc1b3          	xor	gp,s11,t2
    3218:	a7999197          	auipc	gp,0xa7999
    321c:	0193e033          	or	zero,t2,s9
    3220:	3ad9b0b7          	lui	ra,0x3ad9b
    3224:	00318133          	add	sp,gp,gp
    3228:	0d12c113          	xori	sp,t0,209
    322c:	f9e1c193          	xori	gp,gp,-98
    3230:	1b71e093          	ori	ra,gp,439
    3234:	d510c193          	xori	gp,ra,-687
    3238:	79e3d317          	auipc	t1,0x79e3d
    323c:	40b0c113          	xori	sp,ra,1035
    3240:	a2692237          	lui	tp,0xa2692
    3244:	96258117          	auipc	sp,0x96258
    3248:	0341c093          	xori	ra,gp,52
    324c:	733391b7          	lui	gp,0x73339
    3250:	401100b3          	sub	ra,sp,ra
    3254:	40308133          	sub	sp,ra,gp
    3258:	a4e8b0b7          	lui	ra,0xa4e8b
    325c:	6fb0c093          	xori	ra,ra,1787
    3260:	f9d44337          	lui	t1,0xf9d44
    3264:	ee7610b7          	lui	ra,0xee761
    3268:	169e2637          	lui	a2,0x169e2
    326c:	01910093          	addi	ra,sp,25 # 0xffffffff9625b25d
    3270:	5f28e117          	auipc	sp,0x5f28e
    3274:	46405297          	auipc	t0,0x46405
    3278:	0010c133          	xor	sp,ra,ra
    327c:	75518113          	addi	sp,gp,1877 # 0x73339755
    3280:	40338233          	sub	tp,t2,gp
    3284:	6b6fc097          	auipc	ra,0x6b6fc
    3288:	7c64a1b7          	lui	gp,0x7c64a
    328c:	df210093          	addi	ra,sp,-526 # 0x5f291062
    3290:	ec718ee3          	beq	gp,t2,0x316c
    3294:	ed9ff5ef          	jal	a1,0x316c
    3298:	98587117          	auipc	sp,0x98587
    329c:	6420c0b7          	lui	ra,0x6420c
    32a0:	44c91117          	auipc	sp,0x44c91
    32a4:	0041c133          	xor	sp,gp,tp
    32a8:	00330333          	add	t1,t1,gp
    32ac:	00217133          	and	sp,sp,sp
    32b0:	c5af80b7          	lui	ra,0xc5af8
    32b4:	411eb0b7          	lui	ra,0x411eb
    32b8:	9f378597          	auipc	a1,0x9f378
    32bc:	fbc730b7          	lui	ra,0xfbc73
    32c0:	cab18293          	addi	t0,gp,-853 # 0x7c649cab
    32c4:	f6892197          	auipc	gp,0xf6892
    32c8:	3a5790b7          	lui	ra,0x3a579
    32cc:	0040f1b3          	and	gp,ra,tp
    32d0:	0db26193          	ori	gp,tp,219
    32d4:	ffae5137          	lui	sp,0xffae5
    32d8:	2e118193          	addi	gp,gp,737 # 0xfffffffff68955a5
    32dc:	0010f0b3          	and	ra,ra,ra
    32e0:	00324033          	xor	zero,tp,gp
    32e4:	95536513          	ori	a0,t1,-1707
    32e8:	8c47b117          	auipc	sp,0x8c47b
    32ec:	1e4bf117          	auipc	sp,0x1e4bf
    32f0:	cb15d137          	lui	sp,0xcb15d
    32f4:	4a666137          	lui	sp,0x4a666
    32f8:	8337b317          	auipc	t1,0x8337b
    32fc:	b2c1e093          	ori	ra,gp,-1236
    3300:	00418133          	add	sp,gp,tp
    3304:	3e8a5117          	auipc	sp,0x3e8a5
    3308:	59020117          	auipc	sp,0x59020
    330c:	2a61f093          	andi	ra,gp,678
    3310:	00000197          	auipc	gp,0x0
    3314:	ee8180e7          	jalr	-280(gp) # 0x31f8
    3318:	dff87093          	andi	ra,a6,-513
    331c:	5b52b237          	lui	tp,0x5b52b
    3320:	67114117          	auipc	sp,0x67114
    3324:	0046e133          	or	sp,a3,tp
    3328:	7805e097          	auipc	ra,0x7805e
    332c:	b6718113          	addi	sp,gp,-1177
    3330:	28c1c193          	xori	gp,gp,652
    3334:	f30ee097          	auipc	ra,0xf30ee
    3338:	623da197          	auipc	gp,0x623da
    333c:	0050f1b3          	and	gp,ra,t0
    3340:	41e7f1b7          	lui	gp,0x41e7f
    3344:	17c45197          	auipc	gp,0x17c45
    3348:	002178b3          	and	a7,sp,sp
    334c:	bcd1c113          	xori	sp,gp,-1075
    3350:	37f120b7          	lui	ra,0x37f12
    3354:	bb191197          	auipc	gp,0xbb191
    3358:	d0d80117          	auipc	sp,0xd0d80
    335c:	8c30c593          	xori	a1,ra,-1853
    3360:	40508133          	sub	sp,ra,t0
    3364:	50576337          	lui	t1,0x50576
    3368:	00118033          	add	zero,gp,ra
    336c:	007160b3          	or	ra,sp,t2
    3370:	45301197          	auipc	gp,0x45301
    3374:	9a414293          	xori	t0,sp,-1628
    3378:	bf52e197          	auipc	gp,0xbf52e
    337c:	fedd81b7          	lui	gp,0xfedd8
    3380:	36c8e137          	lui	sp,0x36c8e
    3384:	0091c033          	xor	zero,gp,s1
    3388:	4b11e013          	ori	zero,gp,1201
    338c:	1e316013          	ori	zero,sp,483
    3390:	0031f1b3          	and	gp,gp,gp
    3394:	d883f197          	auipc	gp,0xd883f
    3398:	00118133          	add	sp,gp,ra
    339c:	00337133          	and	sp,t1,gp
    33a0:	bfe16093          	ori	ra,sp,-1026
    33a4:	6cb3f313          	andi	t1,t2,1739
    33a8:	001081b3          	add	gp,ra,ra
    33ac:	f8e1c113          	xori	sp,gp,-114
    33b0:	07165197          	auipc	gp,0x7165
    33b4:	00000217          	auipc	tp,0x0
    33b8:	d2c20367          	jalr	t1,-724(tp) # 0x0
    33bc:	0e11f093          	andi	ra,gp,225
    33c0:	005281b3          	add	gp,t0,t0
    33c4:	003102b3          	add	t0,sp,gp
    33c8:	01ce73b7          	lui	t2,0x1ce7
    33cc:	5da1c193          	xori	gp,gp,1498
    33d0:	1d65f937          	lui	s2,0x1d65f
    33d4:	65c1e393          	ori	t2,gp,1628
    33d8:	b573e197          	auipc	gp,0xb573e
    33dc:	002101b3          	add	gp,sp,sp
    33e0:	0051f7b3          	and	a5,gp,t0
    33e4:	00f170b3          	and	ra,sp,a5
    33e8:	32a6b717          	auipc	a4,0x32a6b
    33ec:	62f6e0b7          	lui	ra,0x62f6e
    33f0:	f8300197          	auipc	gp,0xf8300
    33f4:	8f856037          	lui	zero,0x8f856
    33f8:	10f14193          	xori	gp,sp,271
    33fc:	0050f0b3          	and	ra,ra,t0
    3400:	61f04093          	xori	ra,zero,1567
    3404:	00316133          	or	sp,sp,gp
    3408:	003180b3          	add	ra,gp,gp
    340c:	cab801b7          	lui	gp,0xcab80
    3410:	ad6ca197          	auipc	gp,0xad6ca
    3414:	f6546297          	auipc	t0,0xf6546
    3418:	88c1e113          	ori	sp,gp,-1908
    341c:	b6710013          	addi	zero,sp,-1177 # 0x36c8db67
    3420:	d040e093          	ori	ra,ra,-764
    3424:	bb82ee37          	lui	t3,0xbb82e
    3428:	e6308093          	addi	ra,ra,-413 # 0x62f6de63
    342c:	8cb6ea97          	auipc	s5,0x8cb6e
    3430:	0030c3b3          	xor	t2,ra,gp
    3434:	00d180b3          	add	ra,gp,a3
    3438:	ff4ef137          	lui	sp,0xff4ef
    343c:	b800c113          	xori	sp,ra,-1152
    3440:	002100b3          	add	ra,sp,sp
    3444:	ec308ae3          	beq	ra,gp,0x3318
    3448:	ed1ff16f          	jal	sp,0x3318
    344c:	ba50f113          	andi	sp,ra,-1115
    3450:	263a43b7          	lui	t2,0x263a4
    3454:	003083b3          	add	t2,ra,gp
    3458:	5ec0f093          	andi	ra,ra,1516
    345c:	c1ee0417          	auipc	s0,0xc1ee0
    3460:	0031c333          	xor	t1,gp,gp
    3464:	0020feb3          	and	t4,ra,sp
    3468:	0011f333          	and	t1,gp,ra
    346c:	00326133          	or	sp,tp,gp
    3470:	6e010193          	addi	gp,sp,1760 # 0xffffffffff4ef6e0
    3474:	f520f393          	andi	t2,ra,-174
    3478:	8cb14093          	xori	ra,sp,-1845
    347c:	e0d2c393          	xori	t2,t0,-499
    3480:	c962a117          	auipc	sp,0xc962a
    3484:	dd3ef1b7          	lui	gp,0xdd3ef
    3488:	3f6691b7          	lui	gp,0x3f669
    348c:	54863097          	auipc	ra,0x54863
    3490:	0032c133          	xor	sp,t0,gp
    3494:	001161b3          	or	gp,sp,ra
    3498:	68389797          	auipc	a5,0x68389
    349c:	abea2197          	auipc	gp,0xabea2
    34a0:	5e904093          	xori	ra,zero,1513
    34a4:	bc2c01b7          	lui	gp,0xbc2c0
    34a8:	0000e1b3          	or	gp,ra,zero
    34ac:	e2c00193          	li	gp,-468
    34b0:	713cc197          	auipc	gp,0x713cc
    34b4:	0021f6b3          	and	a3,gp,sp
    34b8:	be61e293          	ori	t0,gp,-1050
    34bc:	8142e113          	ori	sp,t0,-2028
    34c0:	5d89d117          	auipc	sp,0x5d89d
    34c4:	631fb1b7          	lui	gp,0x631fb
    34c8:	00e3e133          	or	sp,t2,a4
    34cc:	00708333          	add	t1,ra,t2
    34d0:	9fcac317          	auipc	t1,0x9fcac
    34d4:	5dd111b7          	lui	gp,0x5dd11
    34d8:	00000317          	auipc	t1,0x0
    34dc:	ee430067          	jr	-284(t1) # 0x33bc
    34e0:	00114133          	xor	sp,sp,ra
    34e4:	9060c113          	xori	sp,ra,-1786
    34e8:	2c2c31b7          	lui	gp,0x2c2c3
    34ec:	0031c1b3          	xor	gp,gp,gp
    34f0:	40218133          	sub	sp,gp,sp
    34f4:	3711f213          	andi	tp,gp,881
    34f8:	0035e0b3          	or	ra,a1,gp
    34fc:	72bd5097          	auipc	ra,0x72bd5
    3500:	53b30197          	auipc	gp,0x53b30
    3504:	7cf5b1b7          	lui	gp,0x7cf5b
    3508:	4202c093          	xori	ra,t0,1056
    350c:	aa1fe137          	lui	sp,0xaa1fe
    3510:	75c18393          	addi	t2,gp,1884 # 0x7cf5b75c
    3514:	0032e0b3          	or	ra,t0,gp
    3518:	8bc7b317          	auipc	t1,0x8bc7b
    351c:	4240fc93          	andi	s9,ra,1060
    3520:	91b75097          	auipc	ra,0x91b75
    3524:	c5e0f313          	andi	t1,ra,-930
    3528:	17bbc4b7          	lui	s1,0x17bbc
    352c:	921a41b7          	lui	gp,0x921a4
    3530:	0036f5b3          	and	a1,a3,gp
    3534:	0010f0b3          	and	ra,ra,ra
    3538:	0fdf5337          	lui	t1,0xfdf5
    353c:	df16a197          	auipc	gp,0xdf16a
    3540:	7282f037          	lui	zero,0x7282f
    3544:	536710b7          	lui	ra,0x53671
    3548:	8c436113          	ori	sp,t1,-1852
    354c:	27fc4297          	auipc	t0,0x27fc4
    3550:	001140b3          	xor	ra,sp,ra
    3554:	002174b3          	and	s1,sp,sp
    3558:	403300b3          	sub	ra,t1,gp
    355c:	55b16193          	ori	gp,sp,1371
    3560:	eb118093          	addi	ra,gp,-335 # 0xffffffffdf16d3ed
    3564:	00118033          	add	zero,gp,ra
    3568:	34b9b117          	auipc	sp,0x34b9b
    356c:	00060113          	mv	sp,a2
    3570:	ecc10ee3          	beq	sp,a2,0x344c
    3574:	ea7d3197          	auipc	gp,0xea7d3
    3578:	c38546b7          	lui	a3,0xc3854
    357c:	93b441b7          	lui	gp,0x93b44
    3580:	de62b197          	auipc	gp,0xde62b
    3584:	11a1e193          	ori	gp,gp,282
    3588:	029ec197          	auipc	gp,0x29ec
    358c:	5ba78113          	addi	sp,a5,1466 # 0x6838ca52
    3590:	45d63197          	auipc	gp,0x45d63
    3594:	61900137          	lui	sp,0x61900
    3598:	6e99c0b7          	lui	ra,0x6e99c
    359c:	0c414093          	xori	ra,sp,196
    35a0:	5f517093          	andi	ra,sp,1525
    35a4:	4e7e25b7          	lui	a1,0x4e7e2
    35a8:	36bb6017          	auipc	zero,0x36bb6
    35ac:	5310f793          	andi	a5,ra,1329
    35b0:	31c7f1b7          	lui	gp,0x31c7f
    35b4:	1ca36093          	ori	ra,t1,458
    35b8:	0031f133          	and	sp,gp,gp
    35bc:	fa750697          	auipc	a3,0xfa750
    35c0:	6a0d7097          	auipc	ra,0x6a0d7
    35c4:	7df3a2b7          	lui	t0,0x7df3a
    35c8:	ccafb137          	lui	sp,0xccafb
    35cc:	007170b3          	and	ra,sp,t2
    35d0:	7060f193          	andi	gp,ra,1798
    35d4:	2896d017          	auipc	zero,0x2896d
    35d8:	0026f0b3          	and	ra,a3,sp
    35dc:	002300b3          	add	ra,t1,sp
    35e0:	42cd11b7          	lui	gp,0x42cd1
    35e4:	8c37c137          	lui	sp,0x8c37c
    35e8:	4660e037          	lui	zero,0x4660e
    35ec:	4951c113          	xori	sp,gp,1173
    35f0:	00518463          	beq	gp,t0,0x35f8
    35f4:	004000ef          	jal	ra,0x35f8
    35f8:	684cf137          	lui	sp,0x684cf
    35fc:	4bd361b7          	lui	gp,0x4bd36
    3600:	905c3337          	lui	t1,0x905c3
    3604:	c4e11017          	auipc	zero,0xc4e11
    3608:	02680297          	auipc	t0,0x2680
    360c:	006141b3          	xor	gp,sp,t1
    3610:	0021c1b3          	xor	gp,gp,sp
    3614:	95017393          	andi	t2,sp,-1712
    3618:	993133b7          	lui	t2,0x99313
    361c:	00118333          	add	t1,gp,ra
    3620:	0013c333          	xor	t1,t2,ra
    3624:	e851a0b7          	lui	ra,0xe851a
    3628:	17d16113          	ori	sp,sp,381
    362c:	14a18193          	addi	gp,gp,330 # 0x4bd3614a
    3630:	5345d397          	auipc	t2,0x5345d
    3634:	c270c213          	xori	tp,ra,-985
    3638:	602c3337          	lui	t1,0x602c3
    363c:	f80302b7          	lui	t0,0xf8030
    3640:	002162b3          	or	t0,sp,sp
    3644:	407101b3          	sub	gp,sp,t2
    3648:	1ef4b317          	auipc	t1,0x1ef4b
    364c:	0030e1b3          	or	gp,ra,gp
    3650:	6326b237          	lui	tp,0x6326b
    3654:	31f030b7          	lui	ra,0x31f03
    3658:	a5fa3797          	auipc	a5,0xa5fa3
    365c:	0023c1b3          	xor	gp,t2,sp
    3660:	41e9d137          	lui	sp,0x41e9d
    3664:	6d9ed037          	lui	zero,0x6d9ed
    3668:	00720333          	add	t1,tp,t2
    366c:	a13ae137          	lui	sp,0xa13ae
    3670:	b25d8137          	lui	sp,0xb25d8
    3674:	8d1440b7          	lui	ra,0x8d144
    3678:	13614097          	auipc	ra,0x13614
    367c:	00d271b3          	and	gp,tp,a3
    3680:	001043b3          	xor	t2,zero,ra
    3684:	40110133          	sub	sp,sp,ra
    3688:	da3770b7          	lui	ra,0xda377
    368c:	82018ae3          	beqz	gp,0x2ec0
    3690:	831ff4ef          	jal	s1,0x2ec0
    3694:	0030c0b3          	xor	ra,ra,gp
    3698:	fe555137          	lui	sp,0xfe555
    369c:	24afb1b7          	lui	gp,0x24afb
    36a0:	ade48137          	lui	sp,0xade48
    36a4:	402181b3          	sub	gp,gp,sp
    36a8:	cf4b9237          	lui	tp,0xcf4b9
    36ac:	e36131b7          	lui	gp,0xe3613
    36b0:	41c1f093          	andi	ra,gp,1052
    36b4:	aaf10193          	addi	gp,sp,-1361 # 0xffffffffade47aaf
    36b8:	001261b3          	or	gp,tp,ra
    36bc:	7f50f193          	andi	gp,ra,2037
    36c0:	40108133          	sub	sp,ra,ra
    36c4:	0021f6b3          	and	a3,gp,sp
    36c8:	18f1e093          	ori	ra,gp,399
    36cc:	40300333          	neg	t1,gp
    36d0:	ef8275b7          	lui	a1,0xef827
    36d4:	25b6f1b7          	lui	gp,0x25b6f
    36d8:	977162b7          	lui	t0,0x97716
    36dc:	93f84197          	auipc	gp,0x93f84
    36e0:	b1b5d117          	auipc	sp,0xb1b5d
    36e4:	00208333          	add	t1,ra,sp
    36e8:	0c7bf137          	lui	sp,0xc7bf
    36ec:	1c518393          	addi	t2,gp,453 # 0xffffffff93f878a1
    36f0:	6c9351b7          	lui	gp,0x6c935
    36f4:	0070e1b3          	or	gp,ra,t2
    36f8:	0031c0b3          	xor	ra,gp,gp
    36fc:	002171b3          	and	gp,sp,sp
    3700:	00028b93          	mv	s7,t0
    3704:	085b8c63          	beq	s7,t0,0x379c
    3708:	6a517313          	andi	t1,sp,1701
    370c:	006171b3          	and	gp,sp,t1
    3710:	0006f133          	and	sp,a3,zero
    3714:	0023cbb3          	xor	s7,t2,sp
    3718:	e79df197          	auipc	gp,0xe79df
    371c:	f6316113          	ori	sp,sp,-157
    3720:	0021c133          	xor	sp,gp,sp
    3724:	003a82b3          	add	t0,s5,gp
    3728:	01126133          	or	sp,tp,a7
    372c:	cecca0b7          	lui	ra,0xcecca
    3730:	4545e217          	auipc	tp,0x4545e
    3734:	d3457197          	auipc	gp,0xd3457
    3738:	004301b3          	add	gp,t1,tp
    373c:	3d9ba317          	auipc	t1,0x3d9ba
    3740:	56e30097          	auipc	ra,0x56e30
    3744:	22b1f097          	auipc	ra,0x22b1f
    3748:	003100b3          	add	ra,sp,gp
    374c:	bbe1e393          	ori	t2,gp,-1090
    3750:	3683e0b7          	lui	ra,0x3683e
    3754:	9776f313          	andi	t1,a3,-1673
    3758:	bca16137          	lui	sp,0xbca16
    375c:	4d010193          	addi	gp,sp,1232 # 0xffffffffbca164d0
    3760:	6b110093          	addi	ra,sp,1713
    3764:	3b80e013          	ori	zero,ra,952
    3768:	16092197          	auipc	gp,0x16092
    376c:	a42c1c17          	auipc	s8,0xa42c1
    3770:	4b6f7317          	auipc	t1,0x4b6f7
    3774:	7886d2b7          	lui	t0,0x7886d
    3778:	002080b3          	add	ra,ra,sp
    377c:	af417093          	andi	ra,sp,-1292
    3780:	32dba197          	auipc	gp,0x32dba
    3784:	84a0e1b7          	lui	gp,0x84a0e
    3788:	38816113          	ori	sp,sp,904
    378c:	1f496217          	auipc	tp,0x1f496
    3790:	58a10097          	auipc	ra,0x58a10
    3794:	01320263          	beq	tp,s3,0x3798
    3798:	e1cff2ef          	jal	t0,0x2db4
    379c:	635fc3b7          	lui	t2,0x635fc
    37a0:	2ea1f113          	andi	sp,gp,746
    37a4:	6d61b197          	auipc	gp,0x6d61b
    37a8:	9e6f51b7          	lui	gp,0x9e6f5
    37ac:	e2e8b1b7          	lui	gp,0xe2e8b
    37b0:	fb5f1137          	lui	sp,0xfb5f1
    37b4:	710f7093          	andi	ra,t5,1808
    37b8:	b750c1b7          	lui	gp,0xb750c
    37bc:	e1eb91b7          	lui	gp,0xe1eb9
    37c0:	d0128093          	addi	ra,t0,-767 # 0x7886cd01
    37c4:	0031e1b3          	or	gp,gp,gp
    37c8:	7cd06793          	ori	a5,zero,1997
    37cc:	26d53137          	lui	sp,0x26d53
    37d0:	a8b6f0b7          	lui	ra,0xa8b6f
    37d4:	1edf7197          	auipc	gp,0x1edf7
    37d8:	2c2621b7          	lui	gp,0x2c262
    37dc:	00218033          	add	zero,gp,sp
    37e0:	41c00097          	auipc	ra,0x41c00
    37e4:	0030f0b3          	and	ra,ra,gp
    37e8:	a46fd317          	auipc	t1,0xa46fd
    37ec:	8076c017          	auipc	zero,0x8076c
    37f0:	a127f317          	auipc	t1,0xa127f
    37f4:	15ffb1b7          	lui	gp,0x15ffb
    37f8:	81318193          	addi	gp,gp,-2029 # 0x15ffa813
    37fc:	6559b137          	lui	sp,0x6559b
    3800:	e457d1b7          	lui	gp,0xe457d
    3804:	1ea10137          	lui	sp,0x1ea10
    3808:	7551c393          	xori	t2,gp,1877
    380c:	5ff18693          	addi	a3,gp,1535 # 0xffffffffe457d5ff
    3810:	27df1397          	auipc	t2,0x27df1
    3814:	00000197          	auipc	gp,0x0
    3818:	d60180e7          	jalr	-672(gp) # 0x3574
    381c:	7295b0b7          	lui	ra,0x7295b
    3820:	30f1f093          	andi	ra,gp,783
    3824:	00517233          	and	tp,sp,t0
    3828:	c443e093          	ori	ra,t2,-956
    382c:	93603197          	auipc	gp,0x93603
    3830:	d83a60b7          	lui	ra,0xd83a6
    3834:	3b41c313          	xori	t1,gp,948
    3838:	00018233          	add	tp,gp,zero
    383c:	74618113          	addi	sp,gp,1862 # 0xffffffff93606f72
    3840:	003187b3          	add	a5,gp,gp
    3844:	402381b3          	sub	gp,t2,sp
    3848:	002170b3          	and	ra,sp,sp
    384c:	40210133          	sub	sp,sp,sp
    3850:	1db1f313          	andi	t1,gp,475
    3854:	b57b4117          	auipc	sp,0xb57b4
    3858:	1616f113          	andi	sp,a3,353
    385c:	2785d1b7          	lui	gp,0x2785d
    3860:	ae6f6097          	auipc	ra,0xae6f6
    3864:	d56581b7          	lui	gp,0xd5658
    3868:	5e70e093          	ori	ra,ra,1511
    386c:	0000e0b3          	or	ra,ra,zero
    3870:	0028f0b3          	and	ra,a7,sp
    3874:	2c625037          	lui	zero,0x2c625
    3878:	428670b7          	lui	ra,0x42867
    387c:	002181b3          	add	gp,gp,sp
    3880:	00008333          	add	t1,ra,zero
    3884:	6710c093          	xori	ra,ra,1649
    3888:	b7581117          	auipc	sp,0xb7581
    388c:	15618313          	addi	t1,gp,342 # 0xffffffffd5658156
    3890:	ffa1c093          	xori	ra,gp,-6
    3894:	dab4f117          	auipc	sp,0xdab4f
    3898:	c67751b7          	lui	gp,0xc6775
    389c:	203151b7          	lui	gp,0x20315
    38a0:	11280297          	auipc	t0,0x11280
    38a4:	00350263          	beq	a0,gp,0x38a8
    38a8:	0590016f          	jal	sp,0x4100
    38ac:	403101b3          	sub	gp,sp,gp
    38b0:	fdfbb297          	auipc	t0,0xfdfbb
    38b4:	e5bfe137          	lui	sp,0xe5bfe
    38b8:	5265b397          	auipc	t2,0x5265b
    38bc:	207dd497          	auipc	s1,0x207dd
    38c0:	0101e3b3          	or	t2,gp,a6
    38c4:	175e5197          	auipc	gp,0x175e5
    38c8:	bc61e097          	auipc	ra,0xbc61e
    38cc:	06f301b7          	lui	gp,0x6f30
    38d0:	f12d81b7          	lui	gp,0xf12d8
    38d4:	86754037          	lui	zero,0x86754
    38d8:	406181b3          	sub	gp,gp,t1
    38dc:	4d217113          	andi	sp,sp,1234
    38e0:	98a2e2b7          	lui	t0,0x98a2e
    38e4:	0060e0b3          	or	ra,ra,t1
    38e8:	d0516f13          	ori	t5,sp,-763
    38ec:	cca111b7          	lui	gp,0xcca11
    38f0:	d3d643b7          	lui	t2,0xd3d64
    38f4:	b64111b7          	lui	gp,0xb6411
    38f8:	1bcd5097          	auipc	ra,0x1bcd5
    38fc:	3b80c113          	xori	sp,ra,952
    3900:	02053037          	lui	zero,0x2053
    3904:	c66b7193          	andi	gp,s6,-922
    3908:	f5677117          	auipc	sp,0xf5677
    390c:	71abd097          	auipc	ra,0x71abd
    3910:	e5c10213          	addi	tp,sp,-420 # 0xfffffffff567a764
    3914:	56593117          	auipc	sp,0x56593
    3918:	52ff5117          	auipc	sp,0x52ff5
    391c:	84c57097          	auipc	ra,0x84c57
    3920:	52307117          	auipc	sp,0x52307
    3924:	b7050317          	auipc	t1,0xb7050
    3928:	92abb297          	auipc	t0,0x92abb
    392c:	00000297          	auipc	t0,0x0
    3930:	1b428167          	jalr	sp,436(t0) # 0x3ae0
    3934:	003140b3          	xor	ra,sp,gp
    3938:	8d276337          	lui	t1,0x8d276
    393c:	4a20c113          	xori	sp,ra,1186
    3940:	6027b117          	auipc	sp,0x6027b
    3944:	0033f1b3          	and	gp,t2,gp
    3948:	ea8970b7          	lui	ra,0xea897
    394c:	749cf0b7          	lui	ra,0x749cf
    3950:	d0900013          	li	zero,-759
    3954:	40120033          	sub	zero,tp,ra
    3958:	45c2c337          	lui	t1,0x45c2c
    395c:	0021c933          	xor	s2,gp,sp
    3960:	24418293          	addi	t0,gp,580 # 0xffffffffb6411244
    3964:	b9bad217          	auipc	tp,0xb9bad
    3968:	0021c0b3          	xor	ra,gp,sp
    396c:	1a149017          	auipc	zero,0x1a149
    3970:	e8b3e113          	ori	sp,t2,-373
    3974:	91318193          	addi	gp,gp,-1773
    3978:	9a93b097          	auipc	ra,0x9a93b
    397c:	ccc8e137          	lui	sp,0xccc8e
    3980:	41f0f393          	andi	t2,ra,1055
    3984:	d7a7a137          	lui	sp,0xd7a7a
    3988:	e224ed17          	auipc	s10,0xe224e
    398c:	9f11f113          	andi	sp,gp,-1551
    3990:	94adf397          	auipc	t2,0x94adf
    3994:	769460b7          	lui	ra,0x76946
    3998:	7d7d40b7          	lui	ra,0x7d7d4
    399c:	40328133          	sub	sp,t0,gp
    39a0:	00126133          	or	sp,tp,ra
    39a4:	dbf66397          	auipc	t2,0xdbf66
    39a8:	9ed18213          	addi	tp,gp,-1555
    39ac:	b3218113          	addi	sp,gp,-1230
    39b0:	77836113          	ori	sp,t1,1912
    39b4:	71864297          	auipc	t0,0x71864
    39b8:	cdd471b7          	lui	gp,0xcdd47
    39bc:	00000117          	auipc	sp,0x0
    39c0:	e60103e7          	jalr	t2,-416(sp) # 0x381c
    39c4:	58450313          	addi	t1,a0,1412
    39c8:	ace3c593          	xori	a1,t2,-1330
    39cc:	8fd26113          	ori	sp,tp,-1795
    39d0:	f4b25197          	auipc	gp,0xf4b25
    39d4:	d791c193          	xori	gp,gp,-647
    39d8:	ca5ed097          	auipc	ra,0xca5ed
    39dc:	2353a0b7          	lui	ra,0x2353a
    39e0:	9960c093          	xori	ra,ra,-1642
    39e4:	29e63117          	auipc	sp,0x29e63
    39e8:	9f71f193          	andi	gp,gp,-1545
    39ec:	f791d117          	auipc	sp,0xf791d
    39f0:	6252c117          	auipc	sp,0x6252c
    39f4:	b4d72797          	auipc	a5,0xb4d72
    39f8:	ce17ddb7          	lui	s11,0xce17d
    39fc:	19308193          	addi	gp,ra,403 # 0x2353a193
    3a00:	39610093          	addi	ra,sp,918 # 0x6252fd86
    3a04:	0031c133          	xor	sp,gp,gp
    3a08:	00218133          	add	sp,gp,sp
    3a0c:	40e040b7          	lui	ra,0x40e04
    3a10:	9e89cb97          	auipc	s7,0x9e89c
    3a14:	3f72a137          	lui	sp,0x3f72a
    3a18:	27716793          	ori	a5,sp,631
    3a1c:	40178133          	sub	sp,a5,ra
    3a20:	51e1e093          	ori	ra,gp,1310
    3a24:	7a1100b7          	lui	ra,0x7a110
    3a28:	003088b3          	add	a7,ra,gp
    3a2c:	a440d1b7          	lui	gp,0xa440d
    3a30:	67c8a4b7          	lui	s1,0x67c8a
    3a34:	00314133          	xor	sp,sp,gp
    3a38:	403301b3          	sub	gp,t1,gp
    3a3c:	33717193          	andi	gp,sp,823
    3a40:	40708133          	sub	sp,ra,t2
    3a44:	4b0813b7          	lui	t2,0x4b081
    3a48:	13746137          	lui	sp,0x13746
    3a4c:	43f59117          	auipc	sp,0x43f59
    3a50:	00008313          	mv	t1,ra
    3a54:	2c130c63          	beq	t1,ra,0x3d2c
    3a58:	c1f6e093          	ori	ra,a3,-993
    3a5c:	003141b3          	xor	gp,sp,gp
    3a60:	fc324093          	xori	ra,tp,-61
    3a64:	403084b3          	sub	s1,ra,gp
    3a68:	00208133          	add	sp,ra,sp
    3a6c:	e9e1c193          	xori	gp,gp,-354
    3a70:	de7c9637          	lui	a2,0xde7c9
    3a74:	003181b3          	add	gp,gp,gp
    3a78:	3381f313          	andi	t1,gp,824
    3a7c:	62f281b7          	lui	gp,0x62f28
    3a80:	7c2d61b7          	lui	gp,0x7c2d6
    3a84:	063bb137          	lui	sp,0x63bb
    3a88:	0020e1b3          	or	gp,ra,sp
    3a8c:	0f4fa117          	auipc	sp,0xf4fa
    3a90:	fd3ae317          	auipc	t1,0xfd3ae
    3a94:	b8a1f093          	andi	ra,gp,-1142
    3a98:	6587c497          	auipc	s1,0x6587c
    3a9c:	00114133          	xor	sp,sp,ra
    3aa0:	72f16013          	ori	zero,sp,1839
    3aa4:	b9717193          	andi	gp,sp,-1129
    3aa8:	401101b3          	sub	gp,sp,ra
    3aac:	4abad097          	auipc	ra,0x4abad
    3ab0:	0131f133          	and	sp,gp,s3
    3ab4:	d8436093          	ori	ra,t1,-636
    3ab8:	dd40e197          	auipc	gp,0xdd40e
    3abc:	cfa8c197          	auipc	gp,0xcfa8c
    3ac0:	87f2f117          	auipc	sp,0x87f2f
    3ac4:	9d46f0b7          	lui	ra,0x9d46f
    3ac8:	00114133          	xor	sp,sp,ra
    3acc:	a1f7d097          	auipc	ra,0xa1f7d
    3ad0:	00317133          	and	sp,sp,gp
    3ad4:	d12b7117          	auipc	sp,0xd12b7
    3ad8:	46208c63          	beq	ra,sp,0x3f50
    3adc:	4740006f          	j	0x3f50
    3ae0:	002271b3          	and	gp,tp,sp
    3ae4:	13e12217          	auipc	tp,0x13e12
    3ae8:	16311397          	auipc	t2,0x16311
    3aec:	00218133          	add	sp,gp,sp
    3af0:	e5813197          	auipc	gp,0xe5813
    3af4:	0091f033          	and	zero,gp,s1
    3af8:	3cd73197          	auipc	gp,0x3cd73
    3afc:	8fbdb0b7          	lui	ra,0x8fbdb
    3b00:	7ba2e1b7          	lui	gp,0x7ba2e
    3b04:	a7a16093          	ori	ra,sp,-1414
    3b08:	32748117          	auipc	sp,0x32748
    3b0c:	d6ead297          	auipc	t0,0xd6ead
    3b10:	a8d640b7          	lui	ra,0xa8d64
    3b14:	2f0a9097          	auipc	ra,0x2f0a9
    3b18:	c9d711b7          	lui	gp,0xc9d71
    3b1c:	0061f0b3          	and	ra,gp,t1
    3b20:	404101b3          	sub	gp,sp,tp
    3b24:	c093c097          	auipc	ra,0xc093c
    3b28:	fa9870b7          	lui	ra,0xfa987
    3b2c:	7a718093          	addi	ra,gp,1959 # 0xffffffffc9d717a7
    3b30:	000100b3          	add	ra,sp,zero
    3b34:	0030f333          	and	t1,ra,gp
    3b38:	5183a197          	auipc	gp,0x5183a
    3b3c:	002163b3          	or	t2,sp,sp
    3b40:	001171b3          	and	gp,sp,ra
    3b44:	cc296317          	auipc	t1,0xcc296
    3b48:	83f9f317          	auipc	t1,0x83f9f
    3b4c:	f07d12b7          	lui	t0,0xf07d1
    3b50:	002170b3          	and	ra,sp,sp
    3b54:	41cfb137          	lui	sp,0x41cfb
    3b58:	0020e1b3          	or	gp,ra,sp
    3b5c:	2be68137          	lui	sp,0x2be68
    3b60:	004102b3          	add	t0,sp,tp
    3b64:	5d3c3097          	auipc	ra,0x5d3c3
    3b68:	12c24113          	xori	sp,tp,300
    3b6c:	ae436d93          	ori	s11,t1,-1308
    3b70:	86f18093          	addi	ra,gp,-1937 # 0x5183d3a7
    3b74:	6a200663          	beq	zero,sp,0x4220
    3b78:	6a800d6f          	jal	s10,0x4220
    3b7c:	03f30117          	auipc	sp,0x3f30
    3b80:	297e33b7          	lui	t2,0x297e3
    3b84:	de04e1b7          	lui	gp,0xde04e
    3b88:	5e955137          	lui	sp,0x5e955
    3b8c:	bc107193          	andi	gp,zero,-1087
    3b90:	c6c31117          	auipc	sp,0xc6c31
    3b94:	c26d1097          	auipc	ra,0xc26d1
    3b98:	a724b097          	auipc	ra,0xa724b
    3b9c:	00a0c333          	xor	t1,ra,a0
    3ba0:	0033c133          	xor	sp,t2,gp
    3ba4:	efc1f113          	andi	sp,gp,-260
    3ba8:	2de10093          	addi	ra,sp,734 # 0xffffffffc6c34e6e
    3bac:	c1f991b7          	lui	gp,0xc1f99
    3bb0:	00510133          	add	sp,sp,t0
    3bb4:	cc4a9397          	auipc	t2,0xcc4a9
    3bb8:	c020c093          	xori	ra,ra,-1022
    3bbc:	b3350197          	auipc	gp,0xb3350
    3bc0:	00fcc133          	xor	sp,s9,a5
    3bc4:	2d711097          	auipc	ra,0x2d711
    3bc8:	00016233          	or	tp,sp,zero
    3bcc:	002161b3          	or	gp,sp,sp
    3bd0:	a6121ab7          	lui	s5,0xa6121
    3bd4:	2201c1b7          	lui	gp,0x2201c
    3bd8:	b6018213          	addi	tp,gp,-1184 # 0x2201bb60
    3bdc:	16916193          	ori	gp,sp,361
    3be0:	577b0113          	addi	sp,s6,1399
    3be4:	5280f113          	andi	sp,ra,1320
    3be8:	767c01b7          	lui	gp,0x767c0
    3bec:	44614b93          	xori	s7,sp,1094
    3bf0:	f6d17113          	andi	sp,sp,-147
    3bf4:	4fe6e093          	ori	ra,a3,1278
    3bf8:	00008093          	mv	ra,ra
    3bfc:	24108863          	beq	ra,ra,0x3e4c
    3c00:	c6601217          	auipc	tp,0xc6601
    3c04:	402d8033          	sub	zero,s11,sp
    3c08:	d8a08097          	auipc	ra,0xd8a08
    3c0c:	403100b3          	sub	ra,sp,gp
    3c10:	595bb1b7          	lui	gp,0x595bb
    3c14:	0021f1b3          	and	gp,gp,sp
    3c18:	08912017          	auipc	zero,0x8912
    3c1c:	00206033          	or	zero,zero,sp
    3c20:	7c74c297          	auipc	t0,0x7c74c
    3c24:	d19ae337          	lui	t1,0xd19ae
    3c28:	cf8a81b7          	lui	gp,0xcf8a8
    3c2c:	c3049337          	lui	t1,0xc3049
    3c30:	477f12b7          	lui	t0,0x477f1
    3c34:	0ca501b7          	lui	gp,0xca50
    3c38:	a4138093          	addi	ra,t2,-1471 # 0xffffffffcc4ac5f5
    3c3c:	8e98d037          	lui	zero,0x8e98d
    3c40:	51767317          	auipc	t1,0x51767
    3c44:	3cb08193          	addi	gp,ra,971 # 0xffffffffd8a0bfd3
    3c48:	4cb9b7b7          	lui	a5,0x4cb9b
    3c4c:	e314c217          	auipc	tp,0xe314c
    3c50:	00378033          	add	zero,a5,gp
    3c54:	99a0f193          	andi	gp,ra,-1638
    3c58:	4eadf0b7          	lui	ra,0x4eadf
    3c5c:	dc810113          	addi	sp,sp,-568
    3c60:	76d7e097          	auipc	ra,0x76d7e
    3c64:	ddb0d237          	lui	tp,0xddb0d
    3c68:	3045e197          	auipc	gp,0x3045e
    3c6c:	bd01e193          	ori	gp,gp,-1072
    3c70:	fd037337          	lui	t1,0xfd037
    3c74:	7c71e193          	ori	gp,gp,1991
    3c78:	00107133          	and	sp,zero,ra
    3c7c:	0010e133          	or	sp,ra,ra
    3c80:	0221e093          	ori	ra,gp,34
    3c84:	4741c1b7          	lui	gp,0x4741c
    3c88:	044a1397          	auipc	t2,0x44a1
    3c8c:	00216eb3          	or	t4,sp,sp
    3c90:	ee3106e3          	beq	sp,gp,0x3b7c
    3c94:	ee9ff0ef          	jal	ra,0x3b7c
    3c98:	1e8f1117          	auipc	sp,0x1e8f1
    3c9c:	9b90e213          	ori	tp,ra,-1607
    3ca0:	4de2c113          	xori	sp,t0,1246
    3ca4:	f697f237          	lui	tp,0xf697f
    3ca8:	61d30193          	addi	gp,t1,1565 # 0xfffffffffd03761d
    3cac:	2f21e1b7          	lui	gp,0x2f21e
    3cb0:	8870e113          	ori	sp,ra,-1913
    3cb4:	14412317          	auipc	t1,0x14412
    3cb8:	ed89f097          	auipc	ra,0xed89f
    3cbc:	402083b3          	sub	t2,ra,sp
    3cc0:	c268d037          	lui	zero,0xc268d
    3cc4:	0040ce33          	xor	t3,ra,tp
    3cc8:	bf217193          	andi	gp,sp,-1038
    3ccc:	006161b3          	or	gp,sp,t1
    3cd0:	a090d0b7          	lui	ra,0xa090d
    3cd4:	a298c3b7          	lui	t2,0xa298c
    3cd8:	25865037          	lui	zero,0x25865
    3cdc:	c1f1e137          	lui	sp,0xc1f1e
    3ce0:	0011e133          	or	sp,gp,ra
    3ce4:	e59cd2b7          	lui	t0,0xe59cd
    3ce8:	ac60f093          	andi	ra,ra,-1338
    3cec:	7de2f113          	andi	sp,t0,2014
    3cf0:	481641b7          	lui	gp,0x48164
    3cf4:	3371f313          	andi	t1,gp,823
    3cf8:	22304117          	auipc	sp,0x22304
    3cfc:	aa08f097          	auipc	ra,0xaa08f
    3d00:	9761d137          	lui	sp,0x9761d
    3d04:	75116213          	ori	tp,sp,1873
    3d08:	e43a7037          	lui	zero,0xe43a7
    3d0c:	61e6b197          	auipc	gp,0x61e6b
    3d10:	babe4197          	auipc	gp,0xbabe4
    3d14:	ba238197          	auipc	gp,0xba238
    3d18:	0022f0b3          	and	ra,t0,sp
    3d1c:	c431e193          	ori	gp,gp,-957
    3d20:	68f0e193          	ori	gp,ra,1679
    3d24:	00078193          	mv	gp,a5
    3d28:	08f18463          	beq	gp,a5,0x3db0
    3d2c:	0060c133          	xor	sp,ra,t1
    3d30:	9c53a1b7          	lui	gp,0x9c53a
    3d34:	cf207113          	andi	sp,zero,-782
    3d38:	003c01b3          	add	gp,s8,gp
    3d3c:	17118393          	addi	t2,gp,369 # 0xffffffff9c53a171
    3d40:	66614193          	xori	gp,sp,1638
    3d44:	ceb75337          	lui	t1,0xceb75
    3d48:	f7d34097          	auipc	ra,0xf7d34
    3d4c:	403080b3          	sub	ra,ra,gp
    3d50:	cfab81b7          	lui	gp,0xcfab8
    3d54:	2bc61197          	auipc	gp,0x2bc61
    3d58:	a65a9197          	auipc	gp,0xa65a9
    3d5c:	fd9f6137          	lui	sp,0xfd9f6
    3d60:	00327133          	and	sp,tp,gp
    3d64:	9ce16193          	ori	gp,sp,-1586
    3d68:	eb41a397          	auipc	t2,0xeb41a
    3d6c:	d66f0197          	auipc	gp,0xd66f0
    3d70:	001140b3          	xor	ra,sp,ra
    3d74:	400480b3          	sub	ra,s1,zero
    3d78:	06636193          	ori	gp,t1,102
    3d7c:	f7604093          	xori	ra,zero,-138
    3d80:	f0b900b7          	lui	ra,0xf0b90
    3d84:	9331c313          	xori	t1,gp,-1741
    3d88:	41b6e1b7          	lui	gp,0x41b6e
    3d8c:	6db8c117          	auipc	sp,0x6db8c
    3d90:	a6518593          	addi	a1,gp,-1435 # 0x41b6da65
    3d94:	57b9e137          	lui	sp,0x57b9e
    3d98:	b565b3b7          	lui	t2,0xb565b
    3d9c:	003261b3          	or	gp,tp,gp
    3da0:	0fe04293          	xori	t0,zero,254
    3da4:	e51b1117          	auipc	sp,0xe51b1
    3da8:	00118263          	beq	gp,ra,0x3dac
    3dac:	3c90026f          	jal	tp,0x4974
    3db0:	00226933          	or	s2,tp,sp
    3db4:	01338133          	add	sp,t2,s3
    3db8:	7d120513          	addi	a0,tp,2001 # 0xfffffffff697f7d1
    3dbc:	0061f333          	and	t1,gp,t1
    3dc0:	7420fa93          	andi	s5,ra,1858
    3dc4:	1d820093          	addi	ra,tp,472 # 0x1d8
    3dc8:	333c80b7          	lui	ra,0x333c8
    3dcc:	002200b3          	add	ra,tp,sp
    3dd0:	42b4a117          	auipc	sp,0x42b4a
    3dd4:	c2077013          	andi	zero,a4,-992
    3dd8:	003180b3          	add	ra,gp,gp
    3ddc:	ee3660b7          	lui	ra,0xee366
    3de0:	00b101b3          	add	gp,sp,a1
    3de4:	77008393          	addi	t2,ra,1904 # 0xffffffffee366770
    3de8:	3bc7a7b7          	lui	a5,0x3bc7a
    3dec:	3f258097          	auipc	ra,0x3f258
    3df0:	004167b3          	or	a5,sp,tp
    3df4:	af20f093          	andi	ra,ra,-1294
    3df8:	000170b3          	and	ra,sp,zero
    3dfc:	8b5e41b7          	lui	gp,0x8b5e4
    3e00:	551ad1b7          	lui	gp,0x551ad
    3e04:	c942c117          	auipc	sp,0xc942c
    3e08:	7ab531b7          	lui	gp,0x7ab53
    3e0c:	0041f133          	and	sp,gp,tp
    3e10:	82a30093          	addi	ra,t1,-2006 # 0xffffffffceb7482a
    3e14:	0021c0b3          	xor	ra,gp,sp
    3e18:	35f83597          	auipc	a1,0x35f83
    3e1c:	01d14193          	xori	gp,sp,29
    3e20:	1a370197          	auipc	gp,0x1a370
    3e24:	0021e133          	or	sp,gp,sp
    3e28:	b3194097          	auipc	ra,0xb3194
    3e2c:	76343017          	auipc	zero,0x76343
    3e30:	4610f113          	andi	sp,ra,1121
    3e34:	6900e093          	ori	ra,ra,1680
    3e38:	7aead0b7          	lui	ra,0x7aead
    3e3c:	87a2b097          	auipc	ra,0x87a2b
    3e40:	06f521b7          	lui	gp,0x6f52
    3e44:	00018493          	mv	s1,gp
    3e48:	c03488e3          	beq	s1,gp,0x3a58
    3e4c:	7bd30113          	addi	sp,t1,1981
    3e50:	1501e397          	auipc	t2,0x1501e
    3e54:	75d2a0b7          	lui	ra,0x75d2a
    3e58:	0ee04093          	xori	ra,zero,238
    3e5c:	fb411317          	auipc	t1,0xfb411
    3e60:	ea15ecb7          	lui	s9,0xea15e
    3e64:	007181b3          	add	gp,gp,t2
    3e68:	4529f197          	auipc	gp,0x4529f
    3e6c:	0030e2b3          	or	t0,ra,gp
    3e70:	0030f1b3          	and	gp,ra,gp
    3e74:	03b10113          	addi	sp,sp,59 # 0xffffffffc942fe3f
    3e78:	74b7b2b7          	lui	t0,0x74b7b
    3e7c:	367841b7          	lui	gp,0x36784
    3e80:	0021f1b3          	and	gp,gp,sp
    3e84:	2ade42b7          	lui	t0,0x2ade4
    3e88:	bfd14093          	xori	ra,sp,-1027
    3e8c:	819eb1b7          	lui	gp,0x819eb
    3e90:	7b648593          	addi	a1,s1,1974 # 0x6588024e
    3e94:	82fab097          	auipc	ra,0x82fab
    3e98:	0024e1b3          	or	gp,s1,sp
    3e9c:	0031e333          	or	t1,gp,gp
    3ea0:	989361b7          	lui	gp,0x98936
    3ea4:	4ce0d217          	auipc	tp,0x4ce0d
    3ea8:	06f16193          	ori	gp,sp,111
    3eac:	15f36493          	ori	s1,t1,351
    3eb0:	0047c2b3          	xor	t0,a5,tp
    3eb4:	005101b3          	add	gp,sp,t0
    3eb8:	0031c1b3          	xor	gp,gp,gp
    3ebc:	8161c1b7          	lui	gp,0x8161c
    3ec0:	40518d33          	sub	s10,gp,t0
    3ec4:	00008113          	mv	sp,ra
    3ec8:	00110263          	beq	sp,ra,0x3ecc
    3ecc:	ce21e093          	ori	ra,gp,-798
    3ed0:	00920117          	auipc	sp,0x920
    3ed4:	0194f1b3          	and	gp,s1,s9
    3ed8:	0033f033          	and	zero,t2,gp
    3edc:	fd69b137          	lui	sp,0xfd69b
    3ee0:	12538113          	addi	sp,t2,293 # 0x15021f75
    3ee4:	d1c86097          	auipc	ra,0xd1c86
    3ee8:	413090b7          	lui	ra,0x41309
    3eec:	0a49c217          	auipc	tp,0xa49c
    3ef0:	00f170b3          	and	ra,sp,a5
    3ef4:	5c91e113          	ori	sp,gp,1481
    3ef8:	8a306113          	ori	sp,zero,-1885
    3efc:	9a7ea2b7          	lui	t0,0x9a7ea
    3f00:	00218833          	add	a6,gp,sp
    3f04:	ac69f097          	auipc	ra,0xac69f
    3f08:	70816193          	ori	gp,sp,1800
    3f0c:	002280b3          	add	ra,t0,sp
    3f10:	9a117113          	andi	sp,sp,-1631
    3f14:	70410213          	addi	tp,sp,1796 # 0xfffffffffd69b704
    3f18:	010fd097          	auipc	ra,0x10fd
    3f1c:	ff580137          	lui	sp,0xff580
    3f20:	0031e133          	or	sp,gp,gp
    3f24:	dc8f8097          	auipc	ra,0xdc8f8
    3f28:	109a2137          	lui	sp,0x109a2
    3f2c:	5c07b0b7          	lui	ra,0x5c07b
    3f30:	bea08113          	addi	sp,ra,-1046 # 0x5c07abea
    3f34:	13fee137          	lui	sp,0x13fee
    3f38:	0034c2b3          	xor	t0,s1,gp
    3f3c:	00208133          	add	sp,ra,sp
    3f40:	00114233          	xor	tp,sp,ra
    3f44:	78ca4237          	lui	tp,0x78ca4
    3f48:	000f0093          	mv	ra,t5
    3f4c:	9fe084e3          	beq	ra,t5,0x3934
    3f50:	2c378093          	addi	ra,a5,707 # 0x3bc7a2c3
    3f54:	1f10c117          	auipc	sp,0x1f10c
    3f58:	00618133          	add	sp,gp,t1
    3f5c:	11607093          	andi	ra,zero,278
    3f60:	9a9ba197          	auipc	gp,0x9a9ba
    3f64:	0010e133          	or	sp,ra,ra
    3f68:	7a63b0b7          	lui	ra,0x7a63b
    3f6c:	e0a1e293          	ori	t0,gp,-502
    3f70:	0abfb097          	auipc	ra,0xabfb
    3f74:	0021f0b3          	and	ra,gp,sp
    3f78:	a2fc1217          	auipc	tp,0xa2fc1
    3f7c:	0053c1b3          	xor	gp,t2,t0
    3f80:	962304b7          	lui	s1,0x96230
    3f84:	1acc9237          	lui	tp,0x1acc9
    3f88:	9a41c293          	xori	t0,gp,-1628
    3f8c:	8aad4097          	auipc	ra,0x8aad4
    3f90:	c3808193          	addi	gp,ra,-968 # 0xffffffff8aad7bc4
    3f94:	87b0c113          	xori	sp,ra,-1925
    3f98:	b921f213          	andi	tp,gp,-1134
    3f9c:	0033e133          	or	sp,t2,gp
    3fa0:	33d1c113          	xori	sp,gp,829
    3fa4:	9d726213          	ori	tp,tp,-1577
    3fa8:	efff6197          	auipc	gp,0xefff6
    3fac:	17318093          	addi	ra,gp,371 # 0xffffffffefffa11b
    3fb0:	ffd06097          	auipc	ra,0xffd06
    3fb4:	58baf337          	lui	t1,0x58baf
    3fb8:	406100b3          	sub	ra,sp,t1
    3fbc:	406280b3          	sub	ra,t0,t1
    3fc0:	5bb1c093          	xori	ra,gp,1467
    3fc4:	d0c0b217          	auipc	tp,0xd0c0b
    3fc8:	a3142097          	auipc	ra,0xa3142
    3fcc:	3c7c51b7          	lui	gp,0x3c7c5
    3fd0:	b6016793          	ori	a5,sp,-1184
    3fd4:	25374197          	auipc	gp,0x25374
    3fd8:	00100133          	add	sp,zero,ra
    3fdc:	af5c81b7          	lui	gp,0xaf5c8
    3fe0:	00236133          	or	sp,t1,sp
    3fe4:	00000117          	auipc	sp,0x0
    3fe8:	2c8100e7          	jalr	712(sp) # 0x42ac
    3fec:	003380b3          	add	ra,t2,gp
    3ff0:	01f17133          	and	sp,sp,t6
    3ff4:	9bef2137          	lui	sp,0x9bef2
    3ff8:	0021f5b3          	and	a1,gp,sp
    3ffc:	0041c1b3          	xor	gp,gp,tp
    4000:	e71453b7          	lui	t2,0xe7145
    4004:	80fec0b7          	lui	ra,0x80fec
    4008:	e61e7317          	auipc	t1,0xe61e7
    400c:	9fb1f193          	andi	gp,gp,-1541
    4010:	00106133          	or	sp,zero,ra
    4014:	003381b3          	add	gp,t2,gp
    4018:	6f96a317          	auipc	t1,0x6f96a
    401c:	58507337          	lui	t1,0x58507
    4020:	09d7b137          	lui	sp,0x9d7b
    4024:	eb34e317          	auipc	t1,0xeb34e
    4028:	aae1c393          	xori	t2,gp,-1362
    402c:	0020c133          	xor	sp,ra,sp
    4030:	0020e0b3          	or	ra,ra,sp
    4034:	5e016113          	ori	sp,sp,1504
    4038:	00134133          	xor	sp,t1,ra
    403c:	975170b7          	lui	ra,0x97517
    4040:	0010e0b3          	or	ra,ra,ra
    4044:	40318133          	sub	sp,gp,gp
    4048:	85906197          	auipc	gp,0x85906
    404c:	002081b3          	add	gp,ra,sp
    4050:	00217133          	and	sp,sp,sp
    4054:	9d80f397          	auipc	t2,0x9d80f
    4058:	ffd16093          	ori	ra,sp,-3
    405c:	40110033          	sub	zero,sp,ra
    4060:	73b6a7b7          	lui	a5,0x73b6a
    4064:	d5c29197          	auipc	gp,0xd5c29
    4068:	d800f113          	andi	sp,ra,-640
    406c:	00a161b3          	or	gp,sp,a0
    4070:	01c18133          	add	sp,gp,t3
    4074:	6f7f1317          	auipc	t1,0x6f7f1
    4078:	10218663          	beq	gp,sp,0x4184
    407c:	1080036f          	jal	t1,0x4184
    4080:	ca95e293          	ori	t0,a1,-855
    4084:	c5914193          	xori	gp,sp,-935
    4088:	007081b3          	add	gp,ra,t2
    408c:	2e2d61b7          	lui	gp,0x2e2d6
    4090:	9c40f513          	andi	a0,ra,-1596
    4094:	034e2217          	auipc	tp,0x34e2
    4098:	7ae281b7          	lui	gp,0x7ae28
    409c:	0022e0b3          	or	ra,t0,sp
    40a0:	18a0c197          	auipc	gp,0x18a0c
    40a4:	0011f1b3          	and	gp,gp,ra
    40a8:	00117133          	and	sp,sp,ra
    40ac:	a8012217          	auipc	tp,0xa8012
    40b0:	0021e933          	or	s2,gp,sp
    40b4:	002281b3          	add	gp,t0,sp
    40b8:	70c07793          	andi	a5,zero,1804
    40bc:	001240b3          	xor	ra,tp,ra
    40c0:	1fbed197          	auipc	gp,0x1fbed
    40c4:	97337813          	andi	a6,t1,-1677
    40c8:	0050c3b3          	xor	t2,ra,t0
    40cc:	6214b137          	lui	sp,0x6214b
    40d0:	139ec137          	lui	sp,0x139ec
    40d4:	40308133          	sub	sp,ra,gp
    40d8:	ea80f393          	andi	t2,ra,-344
    40dc:	64848093          	addi	ra,s1,1608 # 0xffffffff96230648
    40e0:	a9014193          	xori	gp,sp,-1392
    40e4:	9e61c213          	xori	tp,gp,-1562
    40e8:	003171b3          	and	gp,sp,gp
    40ec:	9221a137          	lui	sp,0x9221a
    40f0:	32d1e113          	ori	sp,gp,813
    40f4:	6ac621b7          	lui	gp,0x6ac62
    40f8:	00018393          	mv	t2,gp
    40fc:	8c3384e3          	beq	t2,gp,0x39c4
    4100:	90ac21b7          	lui	gp,0x90ac2
    4104:	00314233          	xor	tp,sp,gp
    4108:	1fae8137          	lui	sp,0x1fae8
    410c:	003fe0b3          	or	ra,t6,gp
    4110:	da518093          	addi	ra,gp,-603 # 0xffffffff90ac1da5
    4114:	83999017          	auipc	zero,0x83999
    4118:	1291f093          	andi	ra,gp,297
    411c:	79d2c197          	auipc	gp,0x79d2c
    4120:	af908197          	auipc	gp,0xaf908
    4124:	005200b3          	add	ra,tp,t0
    4128:	002171b3          	and	gp,sp,sp
    412c:	b770c017          	auipc	zero,0xb770c
    4130:	5080f493          	andi	s1,ra,1288
    4134:	bea310b7          	lui	ra,0xbea31
    4138:	d768b137          	lui	sp,0xd768b
    413c:	e504b117          	auipc	sp,0xe504b
    4140:	c9837293          	andi	t0,t1,-872
    4144:	bf1ff117          	auipc	sp,0xbf1ff
    4148:	42f49137          	lui	sp,0x42f49
    414c:	c901e013          	ori	zero,gp,-880
    4150:	48c313b7          	lui	t2,0x48c31
    4154:	00537133          	and	sp,t1,t0
    4158:	756e8237          	lui	tp,0x756e8
    415c:	ed801117          	auipc	sp,0xed801
    4160:	406601b3          	sub	gp,a2,t1
    4164:	00310133          	add	sp,sp,gp
    4168:	006041b3          	xor	gp,zero,t1
    416c:	a6ed7137          	lui	sp,0xa6ed7
    4170:	eee6f197          	auipc	gp,0xeee6f
    4174:	07b3c213          	xori	tp,t2,123
    4178:	90fbb5b7          	lui	a1,0x90fbb
    417c:	00308263          	beq	ra,gp,0x4180
    4180:	f2cff0ef          	jal	ra,0x38ac
    4184:	7c40e293          	ori	t0,ra,1988
    4188:	0e06e117          	auipc	sp,0xe06e
    418c:	00218133          	add	sp,gp,sp
    4190:	8c837097          	auipc	ra,0x8c837
    4194:	001340b3          	xor	ra,t1,ra
    4198:	9a99c117          	auipc	sp,0x9a99c
    419c:	31485117          	auipc	sp,0x31485
    41a0:	8e84d117          	auipc	sp,0x8e84d
    41a4:	036111b7          	lui	gp,0x3611
    41a8:	0057e1b3          	or	gp,a5,t0
    41ac:	9bc23197          	auipc	gp,0x9bc23
    41b0:	95dd41b7          	lui	gp,0x95dd4
    41b4:	c611e1b7          	lui	gp,0xc611e
    41b8:	0030c133          	xor	sp,ra,gp
    41bc:	00717333          	and	t1,sp,t2
    41c0:	f331c513          	xori	a0,gp,-205
    41c4:	0d730093          	addi	ra,t1,215 # 0x6f7f514b
    41c8:	dc336393          	ori	t2,t1,-573
    41cc:	e0e772b7          	lui	t0,0xe0e77
    41d0:	fc0d7097          	auipc	ra,0xfc0d7
    41d4:	7502e093          	ori	ra,t0,1872
    41d8:	9c7f9137          	lui	sp,0x9c7f9
    41dc:	06d790b7          	lui	ra,0x6d79
    41e0:	c6e58117          	auipc	sp,0xc6e58
    41e4:	011181b3          	add	gp,gp,a7
    41e8:	0017c0b3          	xor	ra,a5,ra
    41ec:	0a012117          	auipc	sp,0xa012
    41f0:	2ca9f1b7          	lui	gp,0x2ca9f
    41f4:	0013f0b3          	and	ra,t2,ra
    41f8:	2dbc6217          	auipc	tp,0x2dbc6
    41fc:	966aa337          	lui	t1,0x966aa
    4200:	3dc17097          	auipc	ra,0x3dc17
    4204:	002101b3          	add	gp,sp,sp
    4208:	34e24117          	auipc	sp,0x34e24
    420c:	c327d297          	auipc	t0,0xc327d
    4210:	e7108193          	addi	gp,ra,-399 # 0x3dc1b071
    4214:	43e433b7          	lui	t2,0x43e43
    4218:	00028e13          	mv	t3,t0
    421c:	9e5e02e3          	beq	t3,t0,0x3c00
    4220:	75cca137          	lui	sp,0x75cca
    4224:	89d15237          	lui	tp,0x89d15
    4228:	0031c033          	xor	zero,gp,gp
    422c:	d64b50b7          	lui	ra,0xd64b5
    4230:	0590c313          	xori	t1,ra,89
    4234:	4d946117          	auipc	sp,0x4d946
    4238:	fbca0137          	lui	sp,0xfbca0
    423c:	dfb1c293          	xori	t0,gp,-517
    4240:	9dfe4137          	lui	sp,0x9dfe4
    4244:	d47d8397          	auipc	t2,0xd47d8
    4248:	006141b3          	xor	gp,sp,t1
    424c:	477501b7          	lui	gp,0x47750
    4250:	258c7117          	auipc	sp,0x258c7
    4254:	24d1f193          	andi	gp,gp,589
    4258:	006100b3          	add	ra,sp,t1
    425c:	cef7e137          	lui	sp,0xcef7e
    4260:	2ebfc297          	auipc	t0,0x2ebfc
    4264:	9fef8117          	auipc	sp,0x9fef8
    4268:	7561c013          	xori	zero,gp,1878
    426c:	3f8be137          	lui	sp,0x3f8be
    4270:	17530113          	addi	sp,t1,373 # 0xffffffff966aa175
    4274:	f3230193          	addi	gp,t1,-206
    4278:	eeb2e197          	auipc	gp,0xeeb2e
    427c:	6bbe76b7          	lui	a3,0x6bbe7
    4280:	ff1cb117          	auipc	sp,0xff1cb
    4284:	7420f093          	andi	ra,ra,1858
    4288:	f8980197          	auipc	gp,0xf8980
    428c:	0d216113          	ori	sp,sp,210
    4290:	00906133          	or	sp,zero,s1
    4294:	3db39117          	auipc	sp,0x3db39
    4298:	0010c033          	xor	zero,ra,ra
    429c:	6084c137          	lui	sp,0x6084c
    42a0:	c2927193          	andi	gp,tp,-983
    42a4:	00000197          	auipc	gp,0x0
    42a8:	ddc181e7          	jalr	gp,-548(gp) # 0x4080
    42ac:	4c0f9117          	auipc	sp,0x4c0f9
    42b0:	04417013          	andi	zero,sp,68
    42b4:	2c03e093          	ori	ra,t2,704
    42b8:	79d26313          	ori	t1,tp,1949
    42bc:	213181b7          	lui	gp,0x21318
    42c0:	7b014193          	xori	gp,sp,1968
    42c4:	33f16093          	ori	ra,sp,831
    42c8:	dc6b30b7          	lui	ra,0xdc6b3
    42cc:	a823e193          	ori	gp,t2,-1406
    42d0:	eed17d93          	andi	s11,sp,-275
    42d4:	4f2d71b7          	lui	gp,0x4f2d7
    42d8:	0011f0b3          	and	ra,gp,ra
    42dc:	5fa17393          	andi	t2,sp,1530
    42e0:	139642b7          	lui	t0,0x13964
    42e4:	20317193          	andi	gp,sp,515
    42e8:	403100b3          	sub	ra,sp,gp
    42ec:	5ae7a137          	lui	sp,0x5ae7a
    42f0:	87014093          	xori	ra,sp,-1936
    42f4:	96dc10b7          	lui	ra,0x96dc1
    42f8:	ef0fc0b7          	lui	ra,0xef0fc
    42fc:	40108033          	sub	zero,ra,ra
    4300:	474381b7          	lui	gp,0x47438
    4304:	403384b3          	sub	s1,t2,gp
    4308:	1d29e597          	auipc	a1,0x1d29e
    430c:	314c6097          	auipc	ra,0x314c6
    4310:	c8574117          	auipc	sp,0xc8574
    4314:	4c2d9097          	auipc	ra,0x4c2d9
    4318:	f3730193          	addi	gp,t1,-201
    431c:	7fe10193          	addi	gp,sp,2046 # 0xffffffffc8578b0e
    4320:	408780b3          	sub	ra,a5,s0
    4324:	a2607d93          	andi	s11,zero,-1498
    4328:	21947117          	auipc	sp,0x21947
    432c:	f4808097          	auipc	ra,0xf4808
    4330:	ca300ee3          	beq	zero,gp,0x3fec
    4334:	cb9ff16f          	jal	sp,0x3fec
    4338:	37e18193          	addi	gp,gp,894 # 0x4743837e
    433c:	7d0e70b7          	lui	ra,0x7d0e7
    4340:	57700213          	li	tp,1399
    4344:	0031f1b3          	and	gp,gp,gp
    4348:	65b0c213          	xori	tp,ra,1627
    434c:	bb018193          	addi	gp,gp,-1104
    4350:	7f16c3b7          	lui	t2,0x7f16c
    4354:	d8303117          	auipc	sp,0xd8303
    4358:	91a20193          	addi	gp,tp,-1766 # 0xffffffff89d1491a
    435c:	0020e8b3          	or	a7,ra,sp
    4360:	cfb46097          	auipc	ra,0xcfb46
    4364:	40310133          	sub	sp,sp,gp
    4368:	4120e113          	ori	sp,ra,1042
    436c:	0031f1b3          	and	gp,gp,gp
    4370:	001140b3          	xor	ra,sp,ra
    4374:	645d7597          	auipc	a1,0x645d7
    4378:	39ee7097          	auipc	ra,0x39ee7
    437c:	4848a137          	lui	sp,0x4848a
    4380:	d2cb8797          	auipc	a5,0xd2cb8
    4384:	f7117593          	andi	a1,sp,-143
    4388:	0020e033          	or	zero,ra,sp
    438c:	3eb7f113          	andi	sp,a5,1003
    4390:	9b89b117          	auipc	sp,0x9b89b
    4394:	d4506013          	ori	zero,zero,-699
    4398:	985fd117          	auipc	sp,0x985fd
    439c:	56c2b0b7          	lui	ra,0x56c2b
    43a0:	01b14133          	xor	sp,sp,s11
    43a4:	01e240b3          	xor	ra,tp,t5
    43a8:	72f2a117          	auipc	sp,0x72f2a
    43ac:	8269a1b7          	lui	gp,0x8269a
    43b0:	ce817093          	andi	ra,sp,-792
    43b4:	0020c0b3          	xor	ra,ra,sp
    43b8:	1a118663          	beq	gp,ra,0x4564
    43bc:	1a8002ef          	jal	t0,0x4564
    43c0:	40208033          	sub	zero,ra,sp
    43c4:	0021c0b3          	xor	ra,gp,sp
    43c8:	001240b3          	xor	ra,tp,ra
    43cc:	acc07213          	andi	tp,zero,-1332
    43d0:	c4e88293          	addi	t0,a7,-946 # 0x1fac078e
    43d4:	bd316293          	ori	t0,sp,-1069
    43d8:	1cf23117          	auipc	sp,0x1cf23
    43dc:	6e6871b7          	lui	gp,0x6e687
    43e0:	b4f08313          	addi	t1,ra,-1201 # 0x56c2ab4f
    43e4:	002160b3          	or	ra,sp,sp
    43e8:	79b1e113          	ori	sp,gp,1947
    43ec:	0490c293          	xori	t0,ra,73
    43f0:	e24bc197          	auipc	gp,0xe24bc
    43f4:	0a9a4117          	auipc	sp,0xa9a4
    43f8:	00134133          	xor	sp,t1,ra
    43fc:	eb0ce137          	lui	sp,0xeb0ce
    4400:	5446a017          	auipc	zero,0x5446a
    4404:	00108233          	add	tp,ra,ra
    4408:	74c1c113          	xori	sp,gp,1868
    440c:	d70f0037          	lui	zero,0xd70f0
    4410:	c9606113          	ori	sp,zero,-874
    4414:	ec42e193          	ori	gp,t0,-316
    4418:	b811c113          	xori	sp,gp,-1151
    441c:	0020f0b3          	and	ra,ra,sp
    4420:	37353397          	auipc	t2,0x37353
    4424:	abcac197          	auipc	gp,0xabcac
    4428:	003001b3          	add	gp,zero,gp
    442c:	966a2337          	lui	t1,0x966a2
    4430:	623e82b7          	lui	t0,0x623e8
    4434:	da8a8fb7          	lui	t6,0xda8a8
    4438:	6d801097          	auipc	ra,0x6d801
    443c:	3788c1b7          	lui	gp,0x3788c
    4440:	4b838013          	addi	zero,t2,1208 # 0x373578d8
    4444:	00310263          	beq	sp,gp,0x4448
    4448:	2a5001ef          	jal	gp,0x4eec
    444c:	0516e113          	ori	sp,a3,81
    4450:	6b066093          	ori	ra,a2,1712
    4454:	7b2b2237          	lui	tp,0x7b2b2
    4458:	0032f133          	and	sp,t0,gp
    445c:	d27b7097          	auipc	ra,0xd27b7
    4460:	7ee1e113          	ori	sp,gp,2030
    4464:	002170b3          	and	ra,sp,sp
    4468:	55e61137          	lui	sp,0x55e61
    446c:	12e30193          	addi	gp,t1,302 # 0xffffffff966a212e
    4470:	00214033          	xor	zero,sp,sp
    4474:	5433f0b7          	lui	ra,0x5433f
    4478:	001081b3          	add	gp,ra,ra
    447c:	097c07b7          	lui	a5,0x97c0
    4480:	95a48297          	auipc	t0,0x95a48
    4484:	f553a117          	auipc	sp,0xf553a
    4488:	3f8f8397          	auipc	t2,0x3f8f8
    448c:	2f85d337          	lui	t1,0x2f85d
    4490:	3db34d13          	xori	s10,t1,987
    4494:	02ffd097          	auipc	ra,0x2ffd
    4498:	5ea0e193          	ori	gp,ra,1514
    449c:	9aa121b7          	lui	gp,0x9aa12
    44a0:	d3544317          	auipc	t1,0xd3544
    44a4:	009240b3          	xor	ra,tp,s1
    44a8:	0c90c113          	xori	sp,ra,201
    44ac:	cc42e013          	ori	zero,t0,-828
    44b0:	6df1f093          	andi	ra,gp,1759
    44b4:	92d1f193          	andi	gp,gp,-1747
    44b8:	b3ebc337          	lui	t1,0xb3ebc
    44bc:	4a006197          	auipc	gp,0x4a006
    44c0:	a5014193          	xori	gp,sp,-1456
    44c4:	3fe16093          	ori	ra,sp,1022
    44c8:	ab85f197          	auipc	gp,0xab85f
    44cc:	38fcb1b7          	lui	gp,0x38fcb
    44d0:	00310133          	add	sp,sp,gp
    44d4:	40308863          	beq	ra,gp,0x48e4
    44d8:	40c0016f          	jal	sp,0x48e4
    44dc:	218c2197          	auipc	gp,0x218c2
    44e0:	c4dc9197          	auipc	gp,0xc4dc9
    44e4:	001181b3          	add	gp,gp,ra
    44e8:	c6c50097          	auipc	ra,0xc6c50
    44ec:	93e0e0b7          	lui	ra,0x93e0e
    44f0:	c309d0b7          	lui	ra,0xc309d
    44f4:	4cf0e193          	ori	gp,ra,1231
    44f8:	1d556117          	auipc	sp,0x1d556
    44fc:	51117093          	andi	ra,sp,1297
    4500:	6d91fa13          	andi	s4,gp,1753
    4504:	a2d17117          	auipc	sp,0xa2d17
    4508:	c98e3097          	auipc	ra,0xc98e3
    450c:	606e81b7          	lui	gp,0x606e8
    4510:	a069d197          	auipc	gp,0xa069d
    4514:	00217bb3          	and	s7,sp,sp
    4518:	08d96137          	lui	sp,0x8d96
    451c:	005af0b3          	and	ra,s5,t0
    4520:	81014093          	xori	ra,sp,-2032
    4524:	8991e293          	ori	t0,gp,-1895
    4528:	73008c93          	addi	s9,ra,1840 # 0xffffffffc98e7c38
    452c:	a2cb4137          	lui	sp,0xa2cb4
    4530:	0010c0b3          	xor	ra,ra,ra
    4534:	dd357097          	auipc	ra,0xdd357
    4538:	00318033          	add	zero,gp,gp
    453c:	aaca9317          	auipc	t1,0xaaca9
    4540:	406280b3          	sub	ra,t0,t1
    4544:	3b6b8217          	auipc	tp,0x3b6b8
    4548:	32634593          	xori	a1,t1,806
    454c:	00317133          	and	sp,sp,gp
    4550:	f5ce2137          	lui	sp,0xf5ce2
    4554:	e38803b7          	lui	t2,0xe3880
    4558:	a0f7e113          	ori	sp,a5,-1521
    455c:	08178e63          	beq	a5,ra,0x45f8
    4560:	098001ef          	jal	gp,0x45f8
    4564:	08608293          	addi	t0,ra,134 # 0xffffffffdd35b5ba
    4568:	40218233          	sub	tp,gp,sp
    456c:	00110333          	add	t1,sp,ra
    4570:	73636193          	ori	gp,t1,1846
    4574:	006e63b3          	or	t2,t3,t1
    4578:	774df197          	auipc	gp,0x774df
    457c:	1111e393          	ori	t2,gp,273
    4580:	06317313          	andi	t1,sp,99
    4584:	40030133          	sub	sp,t1,zero
    4588:	8bb10037          	lui	zero,0x8bb10
    458c:	002170b3          	and	ra,sp,sp
    4590:	402182b3          	sub	t0,gp,sp
    4594:	57a35197          	auipc	gp,0x57a35
    4598:	5e418013          	addi	zero,gp,1508 # 0x57a39b78
    459c:	46fec1b7          	lui	gp,0x46fec
    45a0:	0fc14193          	xori	gp,sp,252
    45a4:	01c08133          	add	sp,ra,t3
    45a8:	991c7297          	auipc	t0,0x991c7
    45ac:	851f81b7          	lui	gp,0x851f8
    45b0:	0ba781b7          	lui	gp,0xba78
    45b4:	c49c81b7          	lui	gp,0xc49c8
    45b8:	09b021b7          	lui	gp,0x9b02
    45bc:	402601b3          	sub	gp,a2,sp
    45c0:	00917113          	andi	sp,sp,9
    45c4:	69e6e1b7          	lui	gp,0x69e6e
    45c8:	ee38d117          	auipc	sp,0xee38d
    45cc:	36c84193          	xori	gp,a6,876
    45d0:	40428133          	sub	sp,t0,tp
    45d4:	fd52c193          	xori	gp,t0,-43
    45d8:	40320333          	sub	t1,tp,gp
    45dc:	5c91f213          	andi	tp,gp,1481
    45e0:	007183b3          	add	t2,gp,t2
    45e4:	00e6c3b3          	xor	t2,a3,a4
    45e8:	c4817217          	auipc	tp,0xc4817
    45ec:	0abfb197          	auipc	gp,0xabfb
    45f0:	6c110063          	beq	sp,ra,0x4cb0
    45f4:	6bc0016f          	jal	sp,0x4cb0
    45f8:	2d9bf097          	auipc	ra,0x2d9bf
    45fc:	0031e1b3          	or	gp,gp,gp
    4600:	67c7f337          	lui	t1,0x67c7f
    4604:	401303b3          	sub	t2,t1,ra
    4608:	18bb3137          	lui	sp,0x18bb3
    460c:	d07d3097          	auipc	ra,0xd07d3
    4610:	0066f2b3          	and	t0,a3,t1
    4614:	6bf031b7          	lui	gp,0x6bf03
    4618:	7ed03137          	lui	sp,0x7ed03
    461c:	689c90b7          	lui	ra,0x689c9
    4620:	40000133          	neg	sp,zero
    4624:	d19f5237          	lui	tp,0xd19f5
    4628:	4c116113          	ori	sp,sp,1217
    462c:	4090c393          	xori	t2,ra,1033
    4630:	ef10c0b7          	lui	ra,0xef10c
    4634:	ab92d1b7          	lui	gp,0xab92d
    4638:	a1cf7197          	auipc	gp,0xa1cf7
    463c:	dad41337          	lui	t1,0xdad41
    4640:	cd8671b7          	lui	gp,0xcd867
    4644:	50b5e197          	auipc	gp,0x50b5e
    4648:	403084b3          	sub	s1,ra,gp
    464c:	5dcab097          	auipc	ra,0x5dcab
    4650:	03e6a097          	auipc	ra,0x3e6a
    4654:	00208133          	add	sp,ra,sp
    4658:	0020c0b3          	xor	ra,ra,sp
    465c:	3fc24097          	auipc	ra,0x3fc24
    4660:	59a96397          	auipc	t2,0x59a96
    4664:	adb12097          	auipc	ra,0xadb12
    4668:	e287b1b7          	lui	gp,0xe287b
    466c:	b3c1c313          	xori	t1,gp,-1220
    4670:	d4b001b7          	lui	gp,0xd4b00
    4674:	976860b7          	lui	ra,0x97686
    4678:	fc6a2097          	auipc	ra,0xfc6a2
    467c:	74118463          	beq	gp,ra,0x4dc4
    4680:	7440026f          	jal	tp,0x4dc4
    4684:	dfe2f113          	andi	sp,t0,-514
    4688:	5ad08093          	addi	ra,ra,1453 # 0xfffffffffc6a6c25
    468c:	fb4ea197          	auipc	gp,0xfb4ea
    4690:	fa82e317          	auipc	t1,0xfa82e
    4694:	0011f133          	and	sp,gp,ra
    4698:	73a644b7          	lui	s1,0x73a64
    469c:	7c614213          	xori	tp,sp,1990
    46a0:	8dc831b7          	lui	gp,0x8dc83
    46a4:	0ff18117          	auipc	sp,0xff18
    46a8:	0030e1b3          	or	gp,ra,gp
    46ac:	b400c293          	xori	t0,ra,-1216
    46b0:	6fe9f3b7          	lui	t2,0x6fe9f
    46b4:	31d04013          	xori	zero,zero,797
    46b8:	b30db0b7          	lui	ra,0xb30db
    46bc:	9192c317          	auipc	t1,0x9192c
    46c0:	eed610b7          	lui	ra,0xeed61
    46c4:	5399f097          	auipc	ra,0x5399f
    46c8:	2e4ec1b7          	lui	gp,0x2e4ec
    46cc:	00410133          	add	sp,sp,tp
    46d0:	001105b3          	add	a1,sp,ra
    46d4:	46792197          	auipc	gp,0x46792
    46d8:	002340b3          	xor	ra,t1,sp
    46dc:	0030e333          	or	t1,ra,gp
    46e0:	00618233          	add	tp,gp,t1
    46e4:	06b2c093          	xori	ra,t0,107
    46e8:	cbec30b7          	lui	ra,0xcbec3
    46ec:	b1414193          	xori	gp,sp,-1260
    46f0:	2886e113          	ori	sp,a3,648
    46f4:	0031e133          	or	sp,gp,gp
    46f8:	6fbc5f97          	auipc	t6,0x6fbc5
    46fc:	d601e113          	ori	sp,gp,-672
    4700:	931cb7b7          	lui	a5,0x931cb
    4704:	23c1e097          	auipc	ra,0x23c1e
    4708:	40f18133          	sub	sp,gp,a5
    470c:	29d16093          	ori	ra,sp,669
    4710:	00038093          	mv	ra,t2
    4714:	c27082e3          	beq	ra,t2,0x4338
    4718:	1c12d137          	lui	sp,0x1c12d
    471c:	0070c1b3          	xor	gp,ra,t2
    4720:	fa3661b7          	lui	gp,0xfa366
    4724:	e1336117          	auipc	sp,0xe1336
    4728:	28d54137          	lui	sp,0x28d54
    472c:	1100f113          	andi	sp,ra,272
    4730:	00d0e233          	or	tp,ra,a3
    4734:	a863c193          	xori	gp,t2,-1402
    4738:	7ea7c197          	auipc	gp,0x7ea7c
    473c:	401180b3          	sub	ra,gp,ra
    4740:	63330013          	addi	zero,t1,1587 # 0xffffffff91930cef
    4744:	45cf2197          	auipc	gp,0x45cf2
    4748:	ae422197          	auipc	gp,0xae422
    474c:	930410b7          	lui	ra,0x93041
    4750:	538a9097          	auipc	ra,0x538a9
    4754:	b130c093          	xori	ra,ra,-1261
    4758:	63a37a17          	auipc	s4,0x63a37
    475c:	005170b3          	and	ra,sp,t0
    4760:	d931f113          	andi	sp,gp,-621
    4764:	4c1b5137          	lui	sp,0x4c1b5
    4768:	00a881b7          	lui	gp,0xa88
    476c:	31f17113          	andi	sp,sp,799
    4770:	a33c9197          	auipc	gp,0xa33c9
    4774:	55db2117          	auipc	sp,0x55db2
    4778:	ec7a1597          	auipc	a1,0xec7a1
    477c:	0020e333          	or	t1,ra,sp
    4780:	3354d2b7          	lui	t0,0x3354d
    4784:	53db0397          	auipc	t2,0x53db0
    4788:	001370b3          	and	ra,t1,ra
    478c:	1bcff217          	auipc	tp,0x1bcff
    4790:	b7b16113          	ori	sp,sp,-1157
    4794:	948a10b7          	lui	ra,0x948a1
    4798:	0ff3d3b7          	lui	t2,0xff3d
    479c:	0050f133          	and	sp,ra,t0
    47a0:	54918113          	addi	sp,gp,1353 # 0xffffffffa33cdcb9
    47a4:	002161b3          	or	gp,sp,sp
    47a8:	e2b16393          	ori	t2,sp,-469
    47ac:	3e208c63          	beq	ra,sp,0x4ba4
    47b0:	3f40076f          	jal	a4,0x4ba4
    47b4:	b32860b7          	lui	ra,0xb3286
    47b8:	003101b3          	add	gp,sp,gp
    47bc:	03fc9037          	lui	zero,0x3fc9
    47c0:	a8026137          	lui	sp,0xa8026
    47c4:	fcf2f137          	lui	sp,0xfcf2f
    47c8:	70014113          	xori	sp,sp,1792
    47cc:	a11473b7          	lui	t2,0xa1147
    47d0:	0020c133          	xor	sp,ra,sp
    47d4:	d12c34b7          	lui	s1,0xd12c3
    47d8:	a32e6097          	auipc	ra,0xa32e6
    47dc:	618d2c37          	lui	s8,0x618d2
    47e0:	33710093          	addi	ra,sp,823 # 0xfffffffffcf2f337
    47e4:	8230c093          	xori	ra,ra,-2013
    47e8:	00276033          	or	zero,a4,sp
    47ec:	5fdfb3b7          	lui	t2,0x5fdfb
    47f0:	2fa44317          	auipc	t1,0x2fa44
    47f4:	30bed5b7          	lui	a1,0x30bed
    47f8:	002173b3          	and	t2,sp,sp
    47fc:	c19cf093          	andi	ra,s9,-999
    4800:	209251b7          	lui	gp,0x20925
    4804:	e099d037          	lui	zero,0xe099d
    4808:	73804f13          	xori	t5,zero,1848
    480c:	83062097          	auipc	ra,0x83062
    4810:	ca610193          	addi	gp,sp,-858
    4814:	42a37097          	auipc	ra,0x42a37
    4818:	7752f113          	andi	sp,t0,1909
    481c:	d3af82b7          	lui	t0,0xd3af8
    4820:	6f1bc313          	xori	t1,s7,1777
    4824:	00168133          	add	sp,a3,ra
    4828:	44dee337          	lui	t1,0x44dee
    482c:	eb108193          	addi	gp,ra,-335 # 0x42a3b6c5
    4830:	c7189137          	lui	sp,0xc7189
    4834:	7d314393          	xori	t2,sp,2003
    4838:	d5f18093          	addi	ra,gp,-673 # 0x20924d5f
    483c:	d86fc0b7          	lui	ra,0xd86fc
    4840:	20f3f313          	andi	t1,t2,527
    4844:	4a0ff1b7          	lui	gp,0x4a0ff
    4848:	2c218863          	beq	gp,sp,0x4b18
    484c:	2cc007ef          	jal	a5,0x4b18
    4850:	9ada9117          	auipc	sp,0x9ada9
    4854:	114e6217          	auipc	tp,0x114e6
    4858:	40118133          	sub	sp,gp,ra
    485c:	0f397197          	auipc	gp,0xf397
    4860:	0090c133          	xor	sp,ra,s1
    4864:	93f16093          	ori	ra,sp,-1729
    4868:	94308013          	addi	zero,ra,-1725 # 0xffffffffd86fb943
    486c:	31918093          	addi	ra,gp,793 # 0xf39bb75
    4870:	7201c0b7          	lui	ra,0x7201c
    4874:	00138133          	add	sp,t2,ra
    4878:	002040b3          	xor	ra,zero,sp
    487c:	fd11d117          	auipc	sp,0xfd11d
    4880:	0111c193          	xori	gp,gp,17
    4884:	15b1c193          	xori	gp,gp,347
    4888:	dc323137          	lui	sp,0xdc323
    488c:	56f0c393          	xori	t2,ra,1391
    4890:	7d514193          	xori	gp,sp,2005
    4894:	007c80b3          	add	ra,s9,t2
    4898:	c2016013          	ori	zero,sp,-992
    489c:	d140f193          	andi	gp,ra,-748
    48a0:	4dc38037          	lui	zero,0x4dc38
    48a4:	334ad117          	auipc	sp,0x334ad
    48a8:	fe1bf137          	lui	sp,0xfe1bf
    48ac:	52b1c193          	xori	gp,gp,1323
    48b0:	02832197          	auipc	gp,0x2832
    48b4:	acc30093          	addi	ra,t1,-1332 # 0x44dedacc
    48b8:	13218193          	addi	gp,gp,306 # 0x28369e2
    48bc:	3c416013          	ori	zero,sp,964
    48c0:	eb3bc317          	auipc	t1,0xeb3bc
    48c4:	dfa771b7          	lui	gp,0xdfa77
    48c8:	23b18193          	addi	gp,gp,571 # 0xffffffffdfa7723b
    48cc:	3ed4e097          	auipc	ra,0x3ed4e
    48d0:	06aa9097          	auipc	ra,0x6aa9
    48d4:	5845d297          	auipc	t0,0x5845d
    48d8:	dd2914b7          	lui	s1,0xdd291
    48dc:	b63288e3          	beq	t0,gp,0x444c
    48e0:	b6dff76f          	jal	a4,0x444c
    48e4:	0031f1b3          	and	gp,gp,gp
    48e8:	b84581b7          	lui	gp,0xb8458
    48ec:	0031f0b3          	and	ra,gp,gp
    48f0:	ab200493          	li	s1,-1358
    48f4:	85104213          	xori	tp,zero,-1967
    48f8:	677461b7          	lui	gp,0x67746
    48fc:	12a08193          	addi	gp,ra,298 # 0x6aad9fa
    4900:	ae51e313          	ori	t1,gp,-1307
    4904:	2fa1e193          	ori	gp,gp,762
    4908:	2630f193          	andi	gp,ra,611
    490c:	7bf7d097          	auipc	ra,0x7bf7d
    4910:	401382b3          	sub	t0,t2,ra
    4914:	35c10113          	addi	sp,sp,860 # 0xfffffffffe1bf35c
    4918:	8344a017          	auipc	zero,0x8344a
    491c:	002177b3          	and	a5,sp,sp
    4920:	70ed5217          	auipc	tp,0x70ed5
    4924:	002101b3          	add	gp,sp,sp
    4928:	db3b4097          	auipc	ra,0xdb3b4
    492c:	b25f01b7          	lui	gp,0xb25f0
    4930:	e12cd0b7          	lui	ra,0xe12cd
    4934:	3db37013          	andi	zero,t1,987
    4938:	b2830193          	addi	gp,t1,-1240 # 0xffffffffeb3c03e8
    493c:	b2391097          	auipc	ra,0xb2391
    4940:	ddd07017          	auipc	zero,0xddd07
    4944:	aa5f50b7          	lui	ra,0xaa5f5
    4948:	65e3b697          	auipc	a3,0x65e3b
    494c:	402001b3          	neg	gp,sp
    4950:	6c9a1117          	auipc	sp,0x6c9a1
    4954:	7c9fe137          	lui	sp,0x7c9fe
    4958:	63d56137          	lui	sp,0x63d56
    495c:	9765d097          	auipc	ra,0x9765d
    4960:	002280b3          	add	ra,t0,sp
    4964:	0580a197          	auipc	gp,0x580a
    4968:	02b63097          	auipc	ra,0x2b63
    496c:	d0200ce3          	beq	zero,sp,0x4684
    4970:	d15ff1ef          	jal	gp,0x4684
    4974:	38840037          	lui	zero,0x38840
    4978:	0021e0b3          	or	ra,gp,sp
    497c:	c2a5b117          	auipc	sp,0xc2a5b
    4980:	0d9f71b7          	lui	gp,0xd9f7
    4984:	0031e033          	or	zero,gp,gp
    4988:	e06b2137          	lui	sp,0xe06b2
    498c:	00427133          	and	sp,tp,tp
    4990:	6a9a72b7          	lui	t0,0x6a9a7
    4994:	b3917193          	andi	gp,sp,-1223
    4998:	0011e0b3          	or	ra,gp,ra
    499c:	001061b3          	or	gp,zero,ra
    49a0:	6f39d0b7          	lui	ra,0x6f39d
    49a4:	fc6a7493          	andi	s1,s4,-58
    49a8:	9b7e8137          	lui	sp,0x9b7e8
    49ac:	4df3f113          	andi	sp,t2,1247
    49b0:	0b517037          	lui	zero,0xb517
    49b4:	b1b58197          	auipc	gp,0xb1b58
    49b8:	91b08093          	addi	ra,ra,-1765 # 0x6f39c91b
    49bc:	3a449097          	auipc	ra,0x3a449
    49c0:	c4564fb7          	lui	t6,0xc4564
    49c4:	f45d8217          	auipc	tp,0xf45d8
    49c8:	001100b3          	add	ra,sp,ra
    49cc:	d2840097          	auipc	ra,0xd2840
    49d0:	fbc00313          	li	t1,-68
    49d4:	16f2b017          	auipc	zero,0x16f2b
    49d8:	0050e0b3          	or	ra,ra,t0
    49dc:	0e308113          	addi	sp,ra,227 # 0xffffffffd2844aaf
    49e0:	00314333          	xor	t1,sp,gp
    49e4:	a40f22b7          	lui	t0,0xa40f2
    49e8:	002080b3          	add	ra,ra,sp
    49ec:	8a1e2317          	auipc	t1,0x8a1e2
    49f0:	12616093          	ori	ra,sp,294
    49f4:	fad4c1b7          	lui	gp,0xfad4c
    49f8:	63e5c293          	xori	t0,a1,1598
    49fc:	bbc2b137          	lui	sp,0xbbc2b
    4a00:	e49088e3          	beq	ra,s1,0x4850
    4a04:	e4dff0ef          	jal	ra,0x4850
    4a08:	40230133          	sub	sp,t1,sp
    4a0c:	a7306113          	ori	sp,zero,-1421
    4a10:	002181b3          	add	gp,gp,sp
    4a14:	64a10293          	addi	t0,sp,1610 # 0xffffffffbbc2b64a
    4a18:	d7edb017          	auipc	zero,0xd7edb
    4a1c:	0021f1b3          	and	gp,gp,sp
    4a20:	dada9097          	auipc	ra,0xdada9
    4a24:	00308133          	add	sp,ra,gp
    4a28:	386b9197          	auipc	gp,0x386b9
    4a2c:	21e681b7          	lui	gp,0x21e68
    4a30:	e428b1b7          	lui	gp,0xe428b
    4a34:	00630133          	add	sp,t1,t1
    4a38:	9e6b6037          	lui	zero,0x9e6b6
    4a3c:	a29bd217          	auipc	tp,0xa29bd
    4a40:	95219237          	lui	tp,0x95219
    4a44:	f3595197          	auipc	gp,0xf3595
    4a48:	4731f013          	andi	zero,gp,1139
    4a4c:	2a966097          	auipc	ra,0x2a966
    4a50:	e66df093          	andi	ra,s11,-410
    4a54:	7e00f113          	andi	sp,ra,2016
    4a58:	91617213          	andi	tp,sp,-1770
    4a5c:	402081b3          	sub	gp,ra,sp
    4a60:	3784f113          	andi	sp,s1,888
    4a64:	00317133          	and	sp,sp,gp
    4a68:	1a999197          	auipc	gp,0x1a999
    4a6c:	ef5bc117          	auipc	sp,0xef5bc
    4a70:	eb417293          	andi	t0,sp,-332
    4a74:	7fe2b097          	auipc	ra,0x7fe2b
    4a78:	403480b3          	sub	ra,s1,gp
    4a7c:	0fd20193          	addi	gp,tp,253 # 0xffffffff952190fd
    4a80:	001181b3          	add	gp,gp,ra
    4a84:	e94490b7          	lui	ra,0xe9449
    4a88:	0062f233          	and	tp,t0,t1
    4a8c:	25e691b7          	lui	gp,0x25e69
    4a90:	02539c17          	auipc	s8,0x2539
    4a94:	927106e3          	beq	sp,t2,0x43c0
    4a98:	929ff1ef          	jal	gp,0x43c0
    4a9c:	6660f137          	lui	sp,0x6660f
    4aa0:	a6fd9197          	auipc	gp,0xa6fd9
    4aa4:	1aa17193          	andi	gp,sp,426
    4aa8:	60de8097          	auipc	ra,0x60de8
    4aac:	1449b337          	lui	t1,0x1449b
    4ab0:	5d724493          	xori	s1,tp,1495
    4ab4:	0b00e093          	ori	ra,ra,176
    4ab8:	1f74b697          	auipc	a3,0x1f74b
    4abc:	8fc1e693          	ori	a3,gp,-1796
    4ac0:	6d758117          	auipc	sp,0x6d758
    4ac4:	9f204193          	xori	gp,zero,-1550
    4ac8:	1cbf32b7          	lui	t0,0x1cbf3
    4acc:	de32b137          	lui	sp,0xde32b
    4ad0:	40a1f113          	andi	sp,gp,1034
    4ad4:	57c2c293          	xori	t0,t0,1404
    4ad8:	5094f0b7          	lui	ra,0x5094f
    4adc:	a99513b7          	lui	t2,0xa9951
    4ae0:	501390b7          	lui	ra,0x50139
    4ae4:	6b3fc137          	lui	sp,0x6b3fc
    4ae8:	dd2090b7          	lui	ra,0xdd209
    4aec:	357cb137          	lui	sp,0x357cb
    4af0:	00318133          	add	sp,gp,gp
    4af4:	2a3c82b7          	lui	t0,0x2a3c8
    4af8:	402200b3          	sub	ra,tp,sp
    4afc:	0011c333          	xor	t1,gp,ra
    4b00:	27e1c193          	xori	gp,gp,638
    4b04:	00314333          	xor	t1,sp,gp
    4b08:	9311f193          	andi	gp,gp,-1743
    4b0c:	0070f0b3          	and	ra,ra,t2
    4b10:	00020113          	mv	sp,tp
    4b14:	10410a63          	beq	sp,tp,0x4c28
    4b18:	c8148113          	addi	sp,s1,-895 # 0xffffffffdd290c81
    4b1c:	b1aae4b7          	lui	s1,0xb1aae
    4b20:	9ab1b1b7          	lui	gp,0x9ab1b
    4b24:	86f36393          	ori	t2,t1,-1937
    4b28:	f7f57137          	lui	sp,0xf7f57
    4b2c:	eed07197          	auipc	gp,0xeed07
    4b30:	0011f0b3          	and	ra,gp,ra
    4b34:	8491e193          	ori	gp,gp,-1975
    4b38:	002361b3          	or	gp,t1,sp
    4b3c:	5d410093          	addi	ra,sp,1492 # 0xfffffffff7f575d4
    4b40:	7551e013          	ori	zero,gp,1877
    4b44:	a045c097          	auipc	ra,0xa045c
    4b48:	16617093          	andi	ra,sp,358
    4b4c:	a5bdc097          	auipc	ra,0xa5bdc
    4b50:	466a2797          	auipc	a5,0x466a2
    4b54:	40038133          	sub	sp,t2,zero
    4b58:	7aa2c513          	xori	a0,t0,1962
    4b5c:	0021e3b3          	or	t2,gp,sp
    4b60:	b030e313          	ori	t1,ra,-1277
    4b64:	752e0397          	auipc	t2,0x752e0
    4b68:	0010e133          	or	sp,ra,ra
    4b6c:	7074a017          	auipc	zero,0x7074a
    4b70:	0dcb0397          	auipc	t2,0xdcb0
    4b74:	c17c0293          	addi	t0,s8,-1001 # 0x253d6a7
    4b78:	3d93f093          	andi	ra,t2,985
    4b7c:	002171b3          	and	gp,sp,sp
    4b80:	8be1e213          	ori	tp,gp,-1858
    4b84:	5867f117          	auipc	sp,0x5867f
    4b88:	001280b3          	add	ra,t0,ra
    4b8c:	ce80c093          	xori	ra,ra,-792
    4b90:	5cb25097          	auipc	ra,0x5cb25
    4b94:	4661f313          	andi	t1,gp,1126
    4b98:	d4e1f113          	andi	sp,gp,-690
    4b9c:	00000117          	auipc	sp,0x0
    4ba0:	1a410267          	jalr	tp,420(sp) # 0x4d40
    4ba4:	de408093          	addi	ra,ra,-540 # 0x5cb29974
    4ba8:	402083b3          	sub	t2,ra,sp
    4bac:	ecf810b7          	lui	ra,0xecf81
    4bb0:	40210133          	sub	sp,sp,sp
    4bb4:	40628133          	sub	sp,t0,t1
    4bb8:	7e510137          	lui	sp,0x7e510
    4bbc:	a99940b7          	lui	ra,0xa9994
    4bc0:	b3a80113          	addi	sp,a6,-1222 # 0xffffffffe94b6b3a
    4bc4:	b42b4137          	lui	sp,0xb42b4
    4bc8:	da9ba137          	lui	sp,0xda9ba
    4bcc:	0050e133          	or	sp,ra,t0
    4bd0:	5e6642b7          	lui	t0,0x5e664
    4bd4:	dd2c3c37          	lui	s8,0xdd2c3
    4bd8:	15e331b7          	lui	gp,0x15e33
    4bdc:	32439117          	auipc	sp,0x32439
    4be0:	7209b397          	auipc	t2,0x7209b
    4be4:	bbf1f093          	andi	ra,gp,-1089
    4be8:	934ed137          	lui	sp,0x934ed
    4bec:	83acc397          	auipc	t2,0x83acc
    4bf0:	d004f1b7          	lui	gp,0xd004f
    4bf4:	73e01117          	auipc	sp,0x73e01
    4bf8:	bb5b11b7          	lui	gp,0xbb5b1
    4bfc:	df0cf1b7          	lui	gp,0xdf0cf
    4c00:	004780b3          	add	ra,a5,tp
    4c04:	5db0e093          	ori	ra,ra,1499
    4c08:	700a7497          	auipc	s1,0x700a7
    4c0c:	fa397317          	auipc	t1,0xfa397
    4c10:	068461b7          	lui	gp,0x6846
    4c14:	7de35097          	auipc	ra,0x7de35
    4c18:	0033c1b3          	xor	gp,t2,gp
    4c1c:	01d0f133          	and	sp,ra,t4
    4c20:	00000013          	nop
    4c24:	de0002e3          	beqz	zero,0x4a08
    4c28:	4231c393          	xori	t2,gp,1059
    4c2c:	ef22e013          	ori	zero,t0,-270
    4c30:	54927197          	auipc	gp,0x54927
    4c34:	0b182137          	lui	sp,0xb182
    4c38:	0031f1b3          	and	gp,gp,gp
    4c3c:	6b33f137          	lui	sp,0x6b33f
    4c40:	20c0b337          	lui	t1,0x20c0b
    4c44:	2c132017          	auipc	zero,0x2c132
    4c48:	5371f097          	auipc	ra,0x5371f
    4c4c:	003160b3          	or	ra,sp,gp
    4c50:	46c1e113          	ori	sp,gp,1132
    4c54:	9a4a6297          	auipc	t0,0x9a4a6
    4c58:	005360b3          	or	ra,t1,t0
    4c5c:	bf0d11b7          	lui	gp,0xbf0d1
    4c60:	4d530193          	addi	gp,t1,1237 # 0x20c0b4d5
    4c64:	097ab2b7          	lui	t0,0x97ab
    4c68:	003a01b3          	add	gp,s4,gp
    4c6c:	d490d197          	auipc	gp,0xd490d
    4c70:	0032e1b3          	or	gp,t0,gp
    4c74:	f581c097          	auipc	ra,0xf581c
    4c78:	3b7251b7          	lui	gp,0x3b725
    4c7c:	93251097          	auipc	ra,0x93251
    4c80:	0ed5d137          	lui	sp,0xed5d
    4c84:	0151e333          	or	t1,gp,s5
    4c88:	bc6ed097          	auipc	ra,0xbc6ed
    4c8c:	71216313          	ori	t1,sp,1810
    4c90:	7541f113          	andi	sp,gp,1876
    4c94:	001100b3          	add	ra,sp,ra
    4c98:	97dea1b7          	lui	gp,0x97dea
    4c9c:	00108133          	add	sp,ra,ra
    4ca0:	401101b3          	sub	gp,sp,ra
    4ca4:	679c00b7          	lui	ra,0x679c0
    4ca8:	00010113          	mv	sp,sp
    4cac:	b02104e3          	beq	sp,sp,0x47b4
    4cb0:	6bdc0113          	addi	sp,s8,1725 # 0xffffffffdd2c36bd
    4cb4:	2a91c1b7          	lui	gp,0x2a91c
    4cb8:	9236f0b7          	lui	ra,0x9236f
    4cbc:	c990e193          	ori	gp,ra,-871
    4cc0:	0020f0b3          	and	ra,ra,sp
    4cc4:	0030e133          	or	sp,ra,gp
    4cc8:	0030c3b3          	xor	t2,ra,gp
    4ccc:	605f9097          	auipc	ra,0x605f9
    4cd0:	00224133          	xor	sp,tp,sp
    4cd4:	5267c0b7          	lui	ra,0x5267c
    4cd8:	4c0a1237          	lui	tp,0x4c0a1
    4cdc:	4063e1b7          	lui	gp,0x4063e
    4ce0:	817161b7          	lui	gp,0x81716
    4ce4:	b7d38093          	addi	ra,t2,-1155 # 0xffffffff83ad0769
    4ce8:	049a9297          	auipc	t0,0x49a9
    4cec:	5db18013          	addi	zero,gp,1499 # 0xffffffff817165db
    4cf0:	6140f193          	andi	gp,ra,1556
    4cf4:	61397c37          	lui	s8,0x61397
    4cf8:	3da17193          	andi	gp,sp,986
    4cfc:	c0630313          	addi	t1,t1,-1018
    4d00:	279b0037          	lui	zero,0x279b0
    4d04:	29f90097          	auipc	ra,0x29f90
    4d08:	a64e8017          	auipc	zero,0xa64e8
    4d0c:	7d610093          	addi	ra,sp,2006 # 0xed5d7d6
    4d10:	8441c193          	xori	gp,gp,-1980
    4d14:	2a216193          	ori	gp,sp,674
    4d18:	9a584117          	auipc	sp,0x9a584
    4d1c:	589b4117          	auipc	sp,0x589b4
    4d20:	6e1c5137          	lui	sp,0x6e1c5
    4d24:	43227093          	andi	ra,tp,1074
    4d28:	00314133          	xor	sp,sp,gp
    4d2c:	b1347237          	lui	tp,0xb1347
    4d30:	7faea1b7          	lui	gp,0x7faea
    4d34:	6172e117          	auipc	sp,0x6172e
    4d38:	00130263          	beq	t1,ra,0x4d3c
    4d3c:	fa0ff16f          	jal	sp,0x44dc
    4d40:	ae9c30b7          	lui	ra,0xae9c3
    4d44:	a901e093          	ori	ra,gp,-1392
    4d48:	96f700b7          	lui	ra,0x96f70
    4d4c:	adcd2117          	auipc	sp,0xadcd2
    4d50:	0030f1b3          	and	gp,ra,gp
    4d54:	0040f133          	and	sp,ra,tp
    4d58:	00308233          	add	tp,ra,gp
    4d5c:	0010c0b3          	xor	ra,ra,ra
    4d60:	05814137          	lui	sp,0x5814
    4d64:	fbc17093          	andi	ra,sp,-68
    4d68:	82008193          	addi	gp,ra,-2016 # 0xffffffff96f6f820
    4d6c:	a4fde297          	auipc	t0,0xa4fde
    4d70:	ce20c193          	xori	gp,ra,-798
    4d74:	d0c41097          	auipc	ra,0xd0c41
    4d78:	1459e197          	auipc	gp,0x1459e
    4d7c:	6d20f117          	auipc	sp,0x6d20f
    4d80:	36bec0b7          	lui	ra,0x36bec
    4d84:	39bd0237          	lui	tp,0x39bd0
    4d88:	002161b3          	or	gp,sp,sp
    4d8c:	7de18497          	auipc	s1,0x7de18
    4d90:	ae08b037          	lui	zero,0xae08b
    4d94:	db03a137          	lui	sp,0xdb03a
    4d98:	7bdec117          	auipc	sp,0x7bdec
    4d9c:	61f7e137          	lui	sp,0x61f7e
    4da0:	f3e17193          	andi	gp,sp,-194
    4da4:	a370d137          	lui	sp,0xa370d
    4da8:	40f18133          	sub	sp,gp,a5
    4dac:	a0ef90b7          	lui	ra,0xa0ef9
    4db0:	99779137          	lui	sp,0x99779
    4db4:	2416f193          	andi	gp,a3,577
    4db8:	579bf137          	lui	sp,0x579bf
    4dbc:	94110ee3          	beq	sp,ra,0x4718
    4dc0:	959ff16f          	jal	sp,0x4718
    4dc4:	0071f133          	and	sp,gp,t2
    4dc8:	406080b3          	sub	ra,ra,t1
    4dcc:	7d724093          	xori	ra,tp,2007
    4dd0:	e47af1b7          	lui	gp,0xe47af
    4dd4:	43726117          	auipc	sp,0x43726
    4dd8:	07e08393          	addi	t2,ra,126 # 0xffffffffa0ef907e
    4ddc:	00110d33          	add	s10,sp,ra
    4de0:	0032f2b3          	and	t0,t0,gp
    4de4:	e906d097          	auipc	ra,0xe906d
    4de8:	8af0a117          	auipc	sp,0x8af0a
    4dec:	316b8097          	auipc	ra,0x316b8
    4df0:	77bfd197          	auipc	gp,0x77bfd
    4df4:	a6600213          	li	tp,-1434
    4df8:	e229a097          	auipc	ra,0xe229a
    4dfc:	0031c0b3          	xor	ra,gp,gp
    4e00:	643ed1b7          	lui	gp,0x643ed
    4e04:	411ce0b7          	lui	ra,0x411ce
    4e08:	a5500393          	li	t2,-1451
    4e0c:	003180b3          	add	ra,gp,gp
    4e10:	83c2c193          	xori	gp,t0,-1988
    4e14:	c0b0f193          	andi	gp,ra,-1013
    4e18:	011100b3          	add	ra,sp,a7
    4e1c:	6aeaf2b7          	lui	t0,0x6aeaf
    4e20:	40708233          	sub	tp,ra,t2
    4e24:	978071b7          	lui	gp,0x97807
    4e28:	c2d4b137          	lui	sp,0xc2d4b
    4e2c:	ed21b3b7          	lui	t2,0xed21b
    4e30:	6d38b1b7          	lui	gp,0x6d38b
    4e34:	401101b3          	sub	gp,sp,ra
    4e38:	001086b3          	add	a3,ra,ra
    4e3c:	4841f093          	andi	ra,gp,1156
    4e40:	2448b2b7          	lui	t0,0x2448b
    4e44:	e5a5f117          	auipc	sp,0xe5a5f
    4e48:	6d889197          	auipc	gp,0x6d889
    4e4c:	051d2237          	lui	tp,0x51d2
    4e50:	01310133          	add	sp,sp,s3
    4e54:	00000297          	auipc	t0,0x0
    4e58:	c4828267          	jalr	tp,-952(t0) # 0x4a9c
    4e5c:	9226a137          	lui	sp,0x9226a
    4e60:	e8b18113          	addi	sp,gp,-373 # 0x6d88dcd3
    4e64:	402181b3          	sub	gp,gp,sp
    4e68:	0862e113          	ori	sp,t0,134
    4e6c:	7ca2f313          	andi	t1,t0,1994
    4e70:	2f317093          	andi	ra,sp,755
    4e74:	406082b3          	sub	t0,ra,t1
    4e78:	a10a9017          	auipc	zero,0xa10a9
    4e7c:	0011f4b3          	and	s1,gp,ra
    4e80:	0337e097          	auipc	ra,0x337e
    4e84:	39d34493          	xori	s1,t1,925
    4e88:	f605b0b7          	lui	ra,0xf605b
    4e8c:	bfc9b117          	auipc	sp,0xbfc9b
    4e90:	06c10137          	lui	sp,0x6c10
    4e94:	00207133          	and	sp,zero,sp
    4e98:	4e0651b7          	lui	gp,0x4e065
    4e9c:	c9817013          	andi	zero,sp,-872
    4ea0:	73c06393          	ori	t2,zero,1852
    4ea4:	76b43497          	auipc	s1,0x76b43
    4ea8:	0035f0b3          	and	ra,a1,gp
    4eac:	1e5bf397          	auipc	t2,0x1e5bf
    4eb0:	867ca097          	auipc	ra,0x867ca
    4eb4:	d5ca9137          	lui	sp,0xd5ca9
    4eb8:	bb604337          	lui	t1,0xbb604
    4ebc:	4471f313          	andi	t1,gp,1095
    4ec0:	2e818213          	addi	tp,gp,744 # 0x4e0652e8
    4ec4:	7bf1e113          	ori	sp,gp,1983
    4ec8:	af5d8197          	auipc	gp,0xaf5d8
    4ecc:	d3316093          	ori	ra,sp,-717
    4ed0:	22f37117          	auipc	sp,0x22f37
    4ed4:	330401b7          	lui	gp,0x33040
    4ed8:	002081b3          	add	gp,ra,sp
    4edc:	001160b3          	or	ra,sp,ra
    4ee0:	96037293          	andi	t0,t1,-1696
    4ee4:	1a310c63          	beq	sp,gp,0x509c
    4ee8:	1b40016f          	jal	sp,0x509c
    4eec:	dd47f0b7          	lui	ra,0xdd47f
    4ef0:	764fa1b7          	lui	gp,0x764fa
    4ef4:	26b72197          	auipc	gp,0x26b72
    4ef8:	00408133          	add	sp,ra,tp
    4efc:	000107b3          	add	a5,sp,zero
    4f00:	061f5117          	auipc	sp,0x61f5
    4f04:	2dfb8117          	auipc	sp,0x2dfb8
    4f08:	00387233          	and	tp,a6,gp
    4f0c:	b7d2c013          	xori	zero,t0,-1155
    4f10:	003080b3          	add	ra,ra,gp
    4f14:	0030e0b3          	or	ra,ra,gp
    4f18:	003162b3          	or	t0,sp,gp
    4f1c:	ccc57193          	andi	gp,a0,-820
    4f20:	401081b3          	sub	gp,ra,ra
    4f24:	00204cb3          	xor	s9,zero,sp
    4f28:	0002f033          	and	zero,t0,zero
    4f2c:	002171b3          	and	gp,sp,sp
    4f30:	8f827117          	auipc	sp,0x8f827
    4f34:	a5360097          	auipc	ra,0xa5360
    4f38:	403101b3          	sub	gp,sp,gp
    4f3c:	bc875097          	auipc	ra,0xbc875
    4f40:	3ca04113          	xori	sp,zero,970
    4f44:	def20313          	addi	t1,tp,-529 # 0x51d1def
    4f48:	f8c2d0b7          	lui	ra,0xf8c2d
    4f4c:	001173b3          	and	t2,sp,ra
    4f50:	c17121b7          	lui	gp,0xc1712
    4f54:	fd569397          	auipc	t2,0xfd569
    4f58:	77a10193          	addi	gp,sp,1914 # 0xffffffff8f82c6aa
    4f5c:	ed419317          	auipc	t1,0xed419
    4f60:	002080b3          	add	ra,ra,sp
    4f64:	40f181b3          	sub	gp,gp,a5
    4f68:	cc06cd17          	auipc	s10,0xcc06c
    4f6c:	00010393          	mv	t2,sp
    4f70:	2c238a63          	beq	t2,sp,0x5244
    4f74:	b94eb097          	auipc	ra,0xb94eb
    4f78:	59c3e137          	lui	sp,0x59c3e
    4f7c:	ec06c217          	auipc	tp,0xec06c
    4f80:	d9b3f217          	auipc	tp,0xd9b3f
    4f84:	84510293          	addi	t0,sp,-1979 # 0x59c3d845
    4f88:	0030e0b3          	or	ra,ra,gp
    4f8c:	f7a211b7          	lui	gp,0xf7a21
    4f90:	bddc91b7          	lui	gp,0xbddc9
    4f94:	7521c393          	xori	t2,gp,1874
    4f98:	0011c1b3          	xor	gp,gp,ra
    4f9c:	0013e133          	or	sp,t2,ra
    4fa0:	017341b3          	xor	gp,t1,s7
    4fa4:	b98db137          	lui	sp,0xb98db
    4fa8:	5fbbb897          	auipc	a7,0x5fbbb
    4fac:	513f6217          	auipc	tp,0x513f6
    4fb0:	4951e093          	ori	ra,gp,1173
    4fb4:	0030c1b3          	xor	gp,ra,gp
    4fb8:	c0a63317          	auipc	t1,0xc0a63
    4fbc:	1da001b7          	lui	gp,0x1da00
    4fc0:	0019f133          	and	sp,s3,ra
    4fc4:	ed2b9097          	auipc	ra,0xed2b9
    4fc8:	940ad297          	auipc	t0,0x940ad
    4fcc:	0020e0b3          	or	ra,ra,sp
    4fd0:	71e07293          	andi	t0,zero,1822
    4fd4:	73422117          	auipc	sp,0x73422
    4fd8:	01a0c1b3          	xor	gp,ra,s10
    4fdc:	11158137          	lui	sp,0x11158
    4fe0:	12606093          	ori	ra,zero,294
    4fe4:	002263b3          	or	t2,tp,sp
    4fe8:	007100b3          	add	ra,sp,t2
    4fec:	bd2fb117          	auipc	sp,0xbd2fb
    4ff0:	6e2e3717          	auipc	a4,0x6e2e3
    4ff4:	10724237          	lui	tp,0x10724
    4ff8:	c2916113          	ori	sp,sp,-983
    4ffc:	ff818093          	addi	ra,gp,-8 # 0x1d9ffff8
    5000:	75910663          	beq	sp,s9,0x574c
    5004:	748002ef          	jal	t0,0x574c
    5008:	ad008093          	addi	ra,ra,-1328 # 0xffffffffed2bda94
    500c:	72088037          	lui	zero,0x72088
    5010:	97fcc117          	auipc	sp,0x97fcc
    5014:	9ab18193          	addi	gp,gp,-1621
    5018:	d8114313          	xori	t1,sp,-639
    501c:	b15e0137          	lui	sp,0xb15e0
    5020:	c950e113          	ori	sp,ra,-875
    5024:	003163b3          	or	t2,sp,gp
    5028:	403083b3          	sub	t2,ra,gp
    502c:	17c1e493          	ori	s1,gp,380
    5030:	78d34193          	xori	gp,t1,1933
    5034:	7d617197          	auipc	gp,0x7d617
    5038:	f6ff2117          	auipc	sp,0xf6ff2
    503c:	007201b3          	add	gp,tp,t2
    5040:	b23af237          	lui	tp,0xb23af
    5044:	405083b3          	sub	t2,ra,t0
    5048:	95f18113          	addi	sp,gp,-1697 # 0x7d61b993
    504c:	40208233          	sub	tp,ra,sp
    5050:	1e1be093          	ori	ra,s7,481
    5054:	0a76f197          	auipc	gp,0xa76f
    5058:	56434137          	lui	sp,0x56434
    505c:	1da213b7          	lui	t2,0x1da21
    5060:	6d554097          	auipc	ra,0x6d554
    5064:	681351b7          	lui	gp,0x68135
    5068:	00920133          	add	sp,tp,s1
    506c:	ee2ff097          	auipc	ra,0xee2ff
    5070:	79e08113          	addi	sp,ra,1950 # 0xffffffffee30480a
    5074:	00217ab3          	and	s5,sp,sp
    5078:	00d1f133          	and	sp,gp,a3
    507c:	003180b3          	add	ra,gp,gp
    5080:	650403b7          	lui	t2,0x65040
    5084:	002481b3          	add	gp,s1,sp
    5088:	510b40b7          	lui	ra,0x510b4
    508c:	e90992b7          	lui	t0,0xe9099
    5090:	7a4fc137          	lui	sp,0x7a4fc
    5094:	00020193          	mv	gp,tp
    5098:	62418863          	beq	gp,tp,0x56c8
    509c:	1871f113          	andi	sp,gp,391
    50a0:	0001f7b3          	and	a5,gp,zero
    50a4:	0050e1b3          	or	gp,ra,t0
    50a8:	b5b1e1b7          	lui	gp,0xb5b1e
    50ac:	c22e0237          	lui	tp,0xc22e0
    50b0:	fafc9117          	auipc	sp,0xfafc9
    50b4:	003480b3          	add	ra,s1,gp
    50b8:	00716133          	or	sp,sp,t2
    50bc:	c52d1137          	lui	sp,0xc52d1
    50c0:	402103b3          	sub	t2,sp,sp
    50c4:	92e14193          	xori	gp,sp,-1746
    50c8:	40218033          	sub	zero,gp,sp
    50cc:	8257c117          	auipc	sp,0x8257c
    50d0:	3d810093          	addi	ra,sp,984 # 0xffffffff825814a4
    50d4:	0031f7b3          	and	a5,gp,gp
    50d8:	d69fe137          	lui	sp,0xd69fe
    50dc:	a2afe237          	lui	tp,0xa2afe
    50e0:	0b3ad117          	auipc	sp,0xb3ad
    50e4:	9580c193          	xori	gp,ra,-1704
    50e8:	90a9a0b7          	lui	ra,0x90a9a
    50ec:	147440b7          	lui	ra,0x14744
    50f0:	8a9270b7          	lui	ra,0x8a927
    50f4:	7b59e097          	auipc	ra,0x7b59e
    50f8:	93efc4b7          	lui	s1,0x93efc
    50fc:	cf0941b7          	lui	gp,0xcf094
    5100:	ae01e193          	ori	gp,gp,-1312
    5104:	1e017113          	andi	sp,sp,480
    5108:	7da311b7          	lui	gp,0x7da31
    510c:	bb017593          	andi	a1,sp,-1104
    5110:	7d9511b7          	lui	gp,0x7d951
    5114:	b8a17113          	andi	sp,sp,-1142
    5118:	c6136393          	ori	t2,t1,-927
    511c:	47f18093          	addi	ra,gp,1151 # 0x7d95147f
    5120:	eea75097          	auipc	ra,0xeea75
    5124:	bfe0e193          	ori	gp,ra,-1026
    5128:	48330663          	beq	t1,gp,0x55b4
    512c:	4880016f          	jal	sp,0x55b4
    5130:	7ce83137          	lui	sp,0x7ce83
    5134:	9581f093          	andi	ra,gp,-1704
    5138:	0051e333          	or	t1,gp,t0
    513c:	1ea40197          	auipc	gp,0x1ea40
    5140:	403307b3          	sub	a5,t1,gp
    5144:	9299b297          	auipc	t0,0x9299b
    5148:	25162337          	lui	t1,0x25162
    514c:	96624193          	xori	gp,tp,-1690
    5150:	dc50e193          	ori	gp,ra,-571
    5154:	0030c133          	xor	sp,ra,gp
    5158:	003171b3          	and	gp,sp,gp
    515c:	b8bb4197          	auipc	gp,0xb8bb4
    5160:	979fb097          	auipc	ra,0x979fb
    5164:	4497b017          	auipc	zero,0x4497b
    5168:	000141b3          	xor	gp,sp,zero
    516c:	76150137          	lui	sp,0x76150
    5170:	87518093          	addi	ra,gp,-1931 # 0xffffffffb8bb89d1
    5174:	4ef57117          	auipc	sp,0x4ef57
    5178:	cbbb9037          	lui	zero,0xcbbb9
    517c:	0021c6b3          	xor	a3,gp,sp
    5180:	87d56497          	auipc	s1,0x87d56
    5184:	01b17a13          	andi	s4,sp,27
    5188:	00194233          	xor	tp,s2,ra
    518c:	02305137          	lui	sp,0x2305
    5190:	0042c233          	xor	tp,t0,tp
    5194:	300d9397          	auipc	t2,0x300d9
    5198:	0033f1b3          	and	gp,t2,gp
    519c:	b4408093          	addi	ra,ra,-1212 # 0xffffffff979ffca4
    51a0:	dc204193          	xori	gp,zero,-574
    51a4:	4b8c83b7          	lui	t2,0x4b8c8
    51a8:	2e238063          	beq	t2,sp,0x5488
    51ac:	2dc000ef          	jal	ra,0x5488
    51b0:	a2f20093          	addi	ra,tp,-1489 # 0xffffffffa2afda2f
    51b4:	0866b237          	lui	tp,0x866b
    51b8:	00314033          	xor	zero,sp,gp
    51bc:	dae1c0b7          	lui	ra,0xdae1c
    51c0:	099321b7          	lui	gp,0x9932
    51c4:	7031f137          	lui	sp,0x7031f
    51c8:	0030c1b3          	xor	gp,ra,gp
    51cc:	0020c333          	xor	t1,ra,sp
    51d0:	19de2197          	auipc	gp,0x19de2
    51d4:	3a79e017          	auipc	zero,0x3a79e
    51d8:	25982f37          	lui	t5,0x25982
    51dc:	0011e033          	or	zero,gp,ra
    51e0:	0051c1b3          	xor	gp,gp,t0
    51e4:	401200b3          	sub	ra,tp,ra
    51e8:	f23890b7          	lui	ra,0xf2389
    51ec:	4f02d3b7          	lui	t2,0x4f02d
    51f0:	206170b7          	lui	ra,0x20617
    51f4:	40718133          	sub	sp,gp,t2
    51f8:	404101b3          	sub	gp,sp,tp
    51fc:	fca08013          	addi	zero,ra,-54 # 0x20616fca
    5200:	15b920b7          	lui	ra,0x15b92
    5204:	14077137          	lui	sp,0x14077
    5208:	002100b3          	add	ra,sp,sp
    520c:	e950c113          	xori	sp,ra,-363
    5210:	f74a3097          	auipc	ra,0xf74a3
    5214:	a6411697          	auipc	a3,0xa6411
    5218:	2b9f8a17          	auipc	s4,0x2b9f8
    521c:	403200b3          	sub	ra,tp,gp
    5220:	574f8337          	lui	t1,0x574f8
    5224:	e8516113          	ori	sp,sp,-379
    5228:	401000b3          	neg	ra,ra
    522c:	00314333          	xor	t1,sp,gp
    5230:	400181b3          	sub	gp,gp,zero
    5234:	04aaa197          	auipc	gp,0x4aaa
    5238:	e8cf9017          	auipc	zero,0xe8cf9
    523c:	58110863          	beq	sp,ra,0x57cc
    5240:	58c0016f          	jal	sp,0x57cc
    5244:	18c34817          	auipc	a6,0x18c34
    5248:	8ee0c093          	xori	ra,ra,-1810
    524c:	47003097          	auipc	ra,0x47003
    5250:	e4159797          	auipc	a5,0xe4159
    5254:	5ad23217          	auipc	tp,0x5ad23
    5258:	04bec0b7          	lui	ra,0x4bec
    525c:	5321d037          	lui	zero,0x5321d
    5260:	0030f0b3          	and	ra,ra,gp
    5264:	001300b3          	add	ra,t1,ra
    5268:	38b38037          	lui	zero,0x38b38
    526c:	00208133          	add	sp,ra,sp
    5270:	e65611b7          	lui	gp,0xe6561
    5274:	0030f133          	and	sp,ra,gp
    5278:	52ad9337          	lui	t1,0x52ad9
    527c:	8d317213          	andi	tp,sp,-1837
    5280:	00624133          	xor	sp,tp,t1
    5284:	90820093          	addi	ra,tp,-1784 # 0x5ad27b5c
    5288:	0ce18093          	addi	ra,gp,206 # 0xffffffffe65610ce
    528c:	7ba181b7          	lui	gp,0x7ba18
    5290:	08810193          	addi	gp,sp,136 # 0x14077088
    5294:	4bb7b137          	lui	sp,0x4bb7b
    5298:	d45640b7          	lui	ra,0xd4564
    529c:	c7cbb237          	lui	tp,0xc7cbb
    52a0:	d5bd71b7          	lui	gp,0xd5bd7
    52a4:	0010c333          	xor	t1,ra,ra
    52a8:	0a6ae137          	lui	sp,0xa6ae
    52ac:	0031f933          	and	s2,gp,gp
    52b0:	fc97f193          	andi	gp,a5,-55
    52b4:	5f70c193          	xori	gp,ra,1527
    52b8:	aae59217          	auipc	tp,0xaae59
    52bc:	67bc6197          	auipc	gp,0x67bc6
    52c0:	75eac2b7          	lui	t0,0x75eac
    52c4:	9f514093          	xori	ra,sp,-1547
    52c8:	dcb15097          	auipc	ra,0xdcb15
    52cc:	63ef8297          	auipc	t0,0x63ef8
    52d0:	12118863          	beq	gp,ra,0x5400
    52d4:	12c002ef          	jal	t0,0x5400
    52d8:	40208333          	sub	t1,ra,sp
    52dc:	0030f0b3          	and	ra,ra,gp
    52e0:	2e936097          	auipc	ra,0x2e936
    52e4:	eaeaf1b7          	lui	gp,0xeaeaf
    52e8:	7108b337          	lui	t1,0x7108b
    52ec:	af4c0097          	auipc	ra,0xaf4c0
    52f0:	4a5e2137          	lui	sp,0x4a5e2
    52f4:	9998c137          	lui	sp,0x9998c
    52f8:	056fc093          	xori	ra,t6,86
    52fc:	404881b3          	sub	gp,a7,tp
    5300:	8a6596b7          	lui	a3,0x8a659
    5304:	b9171137          	lui	sp,0xb9171
    5308:	0b801017          	auipc	zero,0xb801
    530c:	00492197          	auipc	gp,0x492
    5310:	0040e1b3          	or	gp,ra,tp
    5314:	990db0b7          	lui	ra,0x990db
    5318:	3c418093          	addi	ra,gp,964 # 0x4976d0
    531c:	ef62c117          	auipc	sp,0xef62c
    5320:	80c27093          	andi	ra,tp,-2036
    5324:	e6137097          	auipc	ra,0xe6137
    5328:	a8191137          	lui	sp,0xa8191
    532c:	00214033          	xor	zero,sp,sp
    5330:	952312b7          	lui	t0,0x95231
    5334:	79806f13          	ori	t5,zero,1944
    5338:	afb18093          	addi	ra,gp,-1285
    533c:	3f764093          	xori	ra,a2,1015
    5340:	403101b3          	sub	gp,sp,gp
    5344:	590ca517          	auipc	a0,0x590ca
    5348:	0022c0b3          	xor	ra,t0,sp
    534c:	7990e137          	lui	sp,0x7990e
    5350:	0010f3b3          	and	t2,ra,ra
    5354:	00f16133          	or	sp,sp,a5
    5358:	b04082e3          	beq	ra,tp,0x4e5c
    535c:	b01ff1ef          	jal	gp,0x4e5c
    5360:	3f9f60b7          	lui	ra,0x3f9f6
    5364:	00217333          	and	t1,sp,sp
    5368:	61701197          	auipc	gp,0x61701
    536c:	0e517197          	auipc	gp,0xe517
    5370:	01d20033          	add	zero,tp,t4
    5374:	c0b69c37          	lui	s8,0xc0b69
    5378:	5d23f113          	andi	sp,t2,1490
    537c:	0016f333          	and	t1,a3,ra
    5380:	9e52e793          	ori	a5,t0,-1563
    5384:	0013f1b3          	and	gp,t2,ra
    5388:	01c1e1b3          	or	gp,gp,t3
    538c:	97617093          	andi	ra,sp,-1674
    5390:	535fd197          	auipc	gp,0x535fd
    5394:	e5d1f113          	andi	sp,gp,-419
    5398:	ca21c113          	xori	sp,gp,-862
    539c:	455310b7          	lui	ra,0x45531
    53a0:	6a108093          	addi	ra,ra,1697 # 0x455316a1
    53a4:	249f3197          	auipc	gp,0x249f3
    53a8:	2bbf1197          	auipc	gp,0x2bbf1
    53ac:	3fb0e193          	ori	gp,ra,1019
    53b0:	1fef2397          	auipc	t2,0x1fef2
    53b4:	0001f0b3          	and	ra,gp,zero
    53b8:	446d7697          	auipc	a3,0x446d7
    53bc:	7de1f093          	andi	ra,gp,2014
    53c0:	b2948097          	auipc	ra,0xb2948
    53c4:	401187b3          	sub	a5,gp,ra
    53c8:	9ae74137          	lui	sp,0x9ae74
    53cc:	59be60b7          	lui	ra,0x59be6
    53d0:	e782c093          	xori	ra,t0,-392
    53d4:	401a81b3          	sub	gp,s5,ra
    53d8:	304a32b7          	lui	t0,0x304a3
    53dc:	0021f0b3          	and	ra,gp,sp
    53e0:	689a3097          	auipc	ra,0x689a3
    53e4:	3d936793          	ori	a5,t1,985
    53e8:	88c2d597          	auipc	a1,0x88c2d
    53ec:	001971b3          	and	gp,s2,ra
    53f0:	caf1f613          	andi	a2,gp,-849
    53f4:	00316033          	or	zero,sp,gp
    53f8:	00000097          	auipc	ra,0x0
    53fc:	c1008167          	jalr	sp,-1008(ra) # 0x5008
    5400:	0feba0b7          	lui	ra,0xfeba
    5404:	da910f13          	addi	t5,sp,-599 # 0xffffffff9ae73da9
    5408:	d5b18113          	addi	sp,gp,-677 # 0x2bbf6103
    540c:	b521b097          	auipc	ra,0xb521b
    5410:	0010c133          	xor	sp,ra,ra
    5414:	0021f4b3          	and	s1,gp,sp
    5418:	ba537113          	andi	sp,t1,-1115
    541c:	f58771b7          	lui	gp,0xf5877
    5420:	881f01b7          	lui	gp,0x881f0
    5424:	2e156137          	lui	sp,0x2e156
    5428:	ab22e113          	ori	sp,t0,-1358
    542c:	5fd550b7          	lui	ra,0x5fd55
    5430:	28614113          	xori	sp,sp,646
    5434:	cb50f193          	andi	gp,ra,-843
    5438:	de6d6197          	auipc	gp,0xde6d6
    543c:	0023c133          	xor	sp,t2,sp
    5440:	3313e193          	ori	gp,t2,817
    5444:	0371c013          	xori	zero,gp,55
    5448:	3f817293          	andi	t0,sp,1016
    544c:	5b037337          	lui	t1,0x5b037
    5450:	0024c133          	xor	sp,s1,sp
    5454:	a2214093          	xori	ra,sp,-1502
    5458:	0033e033          	or	zero,t2,gp
    545c:	86918013          	addi	zero,gp,-1943 # 0xffffffffde6daca1
    5460:	40018133          	sub	sp,gp,zero
    5464:	6179f697          	auipc	a3,0x6179f
    5468:	0020f1b3          	and	gp,ra,sp
    546c:	e592c193          	xori	gp,t0,-423
    5470:	1e11c193          	xori	gp,gp,481
    5474:	03614113          	xori	sp,sp,54
    5478:	33804013          	xori	zero,zero,824
    547c:	5951cd13          	xori	s10,gp,1429
    5480:	00010193          	mv	gp,sp
    5484:	08218463          	beq	gp,sp,0x550c
    5488:	b91b2197          	auipc	gp,0xb91b2
    548c:	a95d6197          	auipc	gp,0xa95d6
    5490:	274be1b7          	lui	gp,0x274be
    5494:	3d3351b7          	lui	gp,0x3d335
    5498:	00627133          	and	sp,tp,t1
    549c:	0e16f197          	auipc	gp,0xe16f
    54a0:	01e1e113          	ori	sp,gp,30
    54a4:	c2036117          	auipc	sp,0xc2036
    54a8:	0010e1b3          	or	gp,ra,ra
    54ac:	9e3ed297          	auipc	t0,0x9e3ed
    54b0:	0d5221b7          	lui	gp,0xd522
    54b4:	0a6a6117          	auipc	sp,0xa6a6
    54b8:	007173b3          	and	t2,sp,t2
    54bc:	0020e133          	or	sp,ra,sp
    54c0:	6416d1b7          	lui	gp,0x6416d
    54c4:	c3a2c313          	xori	t1,t0,-966
    54c8:	a398e317          	auipc	t1,0xa398e
    54cc:	b8d37113          	andi	sp,t1,-1139
    54d0:	6194e1b7          	lui	gp,0x6194e
    54d4:	a28022b7          	lui	t0,0xa2802
    54d8:	00317133          	and	sp,sp,gp
    54dc:	31614693          	xori	a3,sp,790
    54e0:	061a41b7          	lui	gp,0x61a4
    54e4:	1a3490b7          	lui	ra,0x1a349
    54e8:	88d5a997          	auipc	s3,0x88d5a
    54ec:	14318193          	addi	gp,gp,323 # 0x61a4143
    54f0:	3960c593          	xori	a1,ra,918
    54f4:	188643b7          	lui	t2,0x18864
    54f8:	0021efb3          	or	t6,gp,sp
    54fc:	39994137          	lui	sp,0x39994
    5500:	0021c333          	xor	t1,gp,sp
    5504:	34120a63          	beq	tp,ra,0x5858
    5508:	3500016f          	jal	sp,0x5858
    550c:	15c730b7          	lui	ra,0x15c73
    5510:	0014f1b3          	and	gp,s1,ra
    5514:	40d101b3          	sub	gp,sp,a3
    5518:	c1acf117          	auipc	sp,0xc1acf
    551c:	4b21c493          	xori	s1,gp,1202
    5520:	0a057097          	auipc	ra,0xa057
    5524:	4dc10213          	addi	tp,sp,1244 # 0xffffffffc1ad49f4
    5528:	19217113          	andi	sp,sp,402
    552c:	56337197          	auipc	gp,0x56337
    5530:	01ecc117          	auipc	sp,0x1ecc
    5534:	66ea21b7          	lui	gp,0x66ea2
    5538:	da8d02b7          	lui	t0,0xda8d0
    553c:	7e97e013          	ori	zero,a5,2025
    5540:	edb1e113          	ori	sp,gp,-293
    5544:	d946e137          	lui	sp,0xd946e
    5548:	7ac0c293          	xori	t0,ra,1964
    554c:	0020e133          	or	sp,ra,sp
    5550:	1b451217          	auipc	tp,0x1b451
    5554:	42807113          	andi	sp,zero,1064
    5558:	00108333          	add	t1,ra,ra
    555c:	0201e113          	ori	sp,gp,32
    5560:	9ce21137          	lui	sp,0x9ce21
    5564:	55a3f093          	andi	ra,t2,1370
    5568:	4e1ab1b7          	lui	gp,0x4e1ab
    556c:	c23950b7          	lui	ra,0xc2395
    5570:	4f157097          	auipc	ra,0x4f157
    5574:	40310033          	sub	zero,sp,gp
    5578:	318c2197          	auipc	gp,0x318c2
    557c:	0012e1b3          	or	gp,t0,ra
    5580:	3d36f093          	andi	ra,a3,979
    5584:	f5b4e337          	lui	t1,0xf5b4e
    5588:	8cf2e217          	auipc	tp,0x8cf2e
    558c:	9531f093          	andi	ra,gp,-1709
    5590:	4ee0f093          	andi	ra,ra,1262
    5594:	1700e093          	ori	ra,ra,368
    5598:	bfcd92b7          	lui	t0,0xbfcd9
    559c:	2b01b837          	lui	a6,0x2b01b
    55a0:	483df137          	lui	sp,0x483df
    55a4:	c36fd117          	auipc	sp,0xc36fd
    55a8:	1a662037          	lui	zero,0x1a662
    55ac:	d27086e3          	beq	ra,t2,0x52d8
    55b0:	d29ff0ef          	jal	ra,0x52d8
    55b4:	25514093          	xori	ra,sp,597
    55b8:	4250e313          	ori	t1,ra,1061
    55bc:	95545097          	auipc	ra,0x95545
    55c0:	26140197          	auipc	gp,0x26140
    55c4:	e8c9a5b7          	lui	a1,0xe8c9a
    55c8:	63916093          	ori	ra,sp,1593
    55cc:	e5f14113          	xori	sp,sp,-417
    55d0:	0020f1b3          	and	gp,ra,sp
    55d4:	0d6f1097          	auipc	ra,0xd6f1
    55d8:	0d8610b7          	lui	ra,0xd861
    55dc:	68bed117          	auipc	sp,0x68bed
    55e0:	fdd26193          	ori	gp,tp,-35
    55e4:	400100b3          	sub	ra,sp,zero
    55e8:	2af51097          	auipc	ra,0x2af51
    55ec:	4b306117          	auipc	sp,0x4b306
    55f0:	00118033          	add	zero,gp,ra
    55f4:	81da4313          	xori	t1,s4,-2019
    55f8:	c6b1e193          	ori	gp,gp,-917
    55fc:	43576137          	lui	sp,0x43576
    5600:	bb709097          	auipc	ra,0xbb709
    5604:	8f0b0097          	auipc	ra,0x8f0b0
    5608:	84426037          	lui	zero,0x84426
    560c:	002080b3          	add	ra,ra,sp
    5610:	257e9137          	lui	sp,0x257e9
    5614:	7a0522b7          	lui	t0,0x7a052
    5618:	40210133          	sub	sp,sp,sp
    561c:	9df0c113          	xori	sp,ra,-1569
    5620:	2a80d117          	auipc	sp,0x2a80d
    5624:	0cfd7397          	auipc	t2,0xcfd7
    5628:	ff25c117          	auipc	sp,0xff25c
    562c:	0021f1b3          	and	gp,gp,sp
    5630:	004080b3          	add	ra,ra,tp
    5634:	d4065297          	auipc	t0,0xd4065
    5638:	403100b3          	sub	ra,sp,gp
    563c:	00008093          	mv	ra,ra
    5640:	ae1088e3          	beq	ra,ra,0x5130
    5644:	0070e133          	or	sp,ra,t2
    5648:	40310333          	sub	t1,sp,gp
    564c:	ce687297          	auipc	t0,0xce687
    5650:	0a8cf097          	auipc	ra,0xa8cf
    5654:	00c1f6b3          	and	a3,gp,a2
    5658:	3e05c197          	auipc	gp,0x3e05c
    565c:	003004b3          	add	s1,zero,gp
    5660:	403a8333          	sub	t1,s5,gp
    5664:	b5da2397          	auipc	t2,0xb5da2
    5668:	259f80b7          	lui	ra,0x259f8
    566c:	02008193          	addi	gp,ra,32 # 0x259f8020
    5670:	81218113          	addi	sp,gp,-2030 # 0x3e060e6a
    5674:	0c516193          	ori	gp,sp,197
    5678:	0021f1b3          	and	gp,gp,sp
    567c:	233671b7          	lui	gp,0x23367
    5680:	a7fbf0b7          	lui	ra,0xa7fbf
    5684:	52029017          	auipc	zero,0x52029
    5688:	cde0c093          	xori	ra,ra,-802
    568c:	388f03b7          	lui	t2,0x388f0
    5690:	bfc3c313          	xori	t1,t2,-1028
    5694:	15b64c37          	lui	s8,0x15b64
    5698:	b2de28b7          	lui	a7,0xb2de2
    569c:	685d4137          	lui	sp,0x685d4
    56a0:	3610e113          	ori	sp,ra,865
    56a4:	50c3f117          	auipc	sp,0x50c3f
    56a8:	003177b3          	and	a5,sp,gp
    56ac:	977741b7          	lui	gp,0x97774
    56b0:	b60cc317          	auipc	t1,0xb60cc
    56b4:	a970e2b7          	lui	t0,0xa970e
    56b8:	bb18e093          	ori	ra,a7,-1103
    56bc:	48312017          	auipc	zero,0x48312
    56c0:	ae1188e3          	beq	gp,ra,0x51b0
    56c4:	aedff16f          	jal	sp,0x51b0
    56c8:	3dd3a1b7          	lui	gp,0x3dd3a
    56cc:	a1bdf097          	auipc	ra,0xa1bdf
    56d0:	dd4e7217          	auipc	tp,0xdd4e7
    56d4:	58b14293          	xori	t0,sp,1419
    56d8:	2df0e0b7          	lui	ra,0x2df0e
    56dc:	39d30213          	addi	tp,t1,925 # 0xffffffffb60d1a4d
    56e0:	63718193          	addi	gp,gp,1591 # 0x3dd3a637
    56e4:	0030feb3          	and	t4,ra,gp
    56e8:	9071e093          	ori	ra,gp,-1785
    56ec:	4a50f213          	andi	tp,ra,1189
    56f0:	c131f693          	andi	a3,gp,-1005
    56f4:	d3bbd797          	auipc	a5,0xd3bbd
    56f8:	00b1f033          	and	zero,gp,a1
    56fc:	003181b3          	add	gp,gp,gp
    5700:	d521b317          	auipc	t1,0xd521b
    5704:	003181b3          	add	gp,gp,gp
    5708:	391de197          	auipc	gp,0x391de
    570c:	7c6cb197          	auipc	gp,0x7c6cb
    5710:	d0f51017          	auipc	zero,0xd0f51
    5714:	20117113          	andi	sp,sp,513
    5718:	00110133          	add	sp,sp,ra
    571c:	001161b3          	or	gp,sp,ra
    5720:	002101b3          	add	gp,sp,sp
    5724:	001163b3          	or	t2,sp,ra
    5728:	0021f133          	and	sp,gp,sp
    572c:	79c8f0b7          	lui	ra,0x79c8f
    5730:	00128133          	add	sp,t0,ra
    5734:	89318113          	addi	sp,gp,-1901 # 0x7c6cff9f
    5738:	acf0f293          	andi	t0,ra,-1329
    573c:	8024b1b7          	lui	gp,0x8024b
    5740:	dd8b71b7          	lui	gp,0xdd8b7
    5744:	6c120463          	beq	tp,ra,0x5e0c
    5748:	6c4001ef          	jal	gp,0x5e0c
    574c:	950d8113          	addi	sp,s11,-1712 # 0xffffffffce17c950
    5750:	00308033          	add	zero,ra,gp
    5754:	40108233          	sub	tp,ra,ra
    5758:	5a521317          	auipc	t1,0x5a521
    575c:	cab80113          	addi	sp,a6,-853 # 0x2b01acab
    5760:	007ec133          	xor	sp,t4,t2
    5764:	0020f133          	and	sp,ra,sp
    5768:	98410113          	addi	sp,sp,-1660 # 0x50c44028
    576c:	8b314093          	xori	ra,sp,-1869
    5770:	001172b3          	and	t0,sp,ra
    5774:	c02530b7          	lui	ra,0xc0253
    5778:	09172197          	auipc	gp,0x9172
    577c:	5a517093          	andi	ra,sp,1445
    5780:	002340b3          	xor	ra,t1,sp
    5784:	d30f8197          	auipc	gp,0xd30f8
    5788:	b3d08093          	addi	ra,ra,-1219 # 0xffffffffc0252b3d
    578c:	5d0e5197          	auipc	gp,0x5d0e5
    5790:	00328133          	add	sp,t0,gp
    5794:	3559a1b7          	lui	gp,0x3559a
    5798:	8389f1b7          	lui	gp,0x8389f
    579c:	88521197          	auipc	gp,0x88521
    57a0:	0090c0b3          	xor	ra,ra,s1
    57a4:	0051f0b3          	and	ra,gp,t0
    57a8:	00716eb3          	or	t4,sp,t2
    57ac:	815a0093          	addi	ra,s4,-2027 # 0x2b9fca2d
    57b0:	c37af117          	auipc	sp,0xc37af
    57b4:	0022c0b3          	xor	ra,t0,sp
    57b8:	678980b7          	lui	ra,0x67898
    57bc:	74fe1137          	lui	sp,0x74fe1
    57c0:	40f180b3          	sub	ra,gp,a5
    57c4:	e84180e3          	beq	gp,tp,0x5644
    57c8:	e7dff0ef          	jal	ra,0x5644
    57cc:	403f8233          	sub	tp,t6,gp
    57d0:	ef5ed097          	auipc	ra,0xef5ed
    57d4:	15908393          	addi	t2,ra,345 # 0xffffffffef5f2929
    57d8:	0030c233          	xor	tp,ra,gp
    57dc:	5cf26117          	auipc	sp,0x5cf26
    57e0:	a6b18193          	addi	gp,gp,-1429 # 0xffffffff88526207
    57e4:	d719e337          	lui	t1,0xd719e
    57e8:	eda00197          	auipc	gp,0xeda00
    57ec:	2c987197          	auipc	gp,0x2c987
    57f0:	b8303337          	lui	t1,0xb8303
    57f4:	c9739037          	lui	zero,0xc9739
    57f8:	aa04a297          	auipc	t0,0xaa04a
    57fc:	0060f3b3          	and	t2,ra,t1
    5800:	00116133          	or	sp,sp,ra
    5804:	23608093          	addi	ra,ra,566
    5808:	001871b3          	and	gp,a6,ra
    580c:	ac3d8197          	auipc	gp,0xac3d8
    5810:	70d1c113          	xori	sp,gp,1805
    5814:	bc501097          	auipc	ra,0xbc501
    5818:	58461037          	lui	zero,0x58461
    581c:	0010e333          	or	t1,ra,ra
    5820:	e2816013          	ori	zero,sp,-472
    5824:	d74d81b7          	lui	gp,0xd74d8
    5828:	b06cf137          	lui	sp,0xb06cf
    582c:	7735e3b7          	lui	t2,0x7735e
    5830:	40ed20b7          	lui	ra,0x40ed2
    5834:	00217133          	and	sp,sp,sp
    5838:	713101b7          	lui	gp,0x71310
    583c:	0d34d317          	auipc	t1,0xd34d
    5840:	b6d31097          	auipc	ra,0xb6d31
    5844:	7e204093          	xori	ra,zero,2018
    5848:	2ece5197          	auipc	gp,0x2ece5
    584c:	9265e217          	auipc	tp,0x9265e
    5850:	b02308e3          	beq	t1,sp,0x5360
    5854:	b0dff1ef          	jal	gp,0x5360
    5858:	c5c7d4b7          	lui	s1,0xc5c7d
    585c:	d13731b7          	lui	gp,0xd1373
    5860:	ea1931b7          	lui	gp,0xea193
    5864:	0042e8b3          	or	a7,t0,tp
    5868:	94c0b397          	auipc	t2,0x94c0b
    586c:	1580c213          	xori	tp,ra,344
    5870:	06f58093          	addi	ra,a1,111 # 0xffffffffe8c9a06f
    5874:	9618a1b7          	lui	gp,0x9618a
    5878:	601d9197          	auipc	gp,0x601d9
    587c:	9419f117          	auipc	sp,0x9419f
    5880:	0050e533          	or	a0,ra,t0
    5884:	efddc997          	auipc	s3,0xefddc
    5888:	f531e113          	ori	sp,gp,-173
    588c:	40d28133          	sub	sp,t0,a3
    5890:	b01d4197          	auipc	gp,0xb01d4
    5894:	d524f197          	auipc	gp,0xd524f
    5898:	27f9d297          	auipc	t0,0x27f9d
    589c:	529e0797          	auipc	a5,0x529e0
    58a0:	97cb7137          	lui	sp,0x97cb7
    58a4:	473c2117          	auipc	sp,0x473c2
    58a8:	c592b1b7          	lui	gp,0xc592b
    58ac:	64fc3037          	lui	zero,0x64fc3
    58b0:	e4cdf197          	auipc	gp,0xe4cdf
    58b4:	b7b52337          	lui	t1,0xb7b52
    58b8:	f17c61b7          	lui	gp,0xf17c6
    58bc:	177d8113          	addi	sp,s11,375
    58c0:	05027093          	andi	ra,tp,80
    58c4:	6a05a1b7          	lui	gp,0x6a05a
    58c8:	de03a317          	auipc	t1,0xde03a
    58cc:	b3f1f193          	andi	gp,gp,-1217
    58d0:	9ce46297          	auipc	t0,0x9ce46
    58d4:	2721c193          	xori	gp,gp,626
    58d8:	00020193          	mv	gp,tp
    58dc:	00418263          	beq	gp,tp,0x58e0
    58e0:	3acc1137          	lui	sp,0x3acc1
    58e4:	0e10c093          	xori	ra,ra,225
    58e8:	8b716193          	ori	gp,sp,-1865
    58ec:	da8261b7          	lui	gp,0xda826
    58f0:	00300233          	add	tp,zero,gp
    58f4:	fa0950b7          	lui	ra,0xfa095
    58f8:	c12d0197          	auipc	gp,0xc12d0
    58fc:	f7104193          	xori	gp,zero,-143
    5900:	ff124113          	xori	sp,tp,-15
    5904:	95b0e193          	ori	gp,ra,-1701
    5908:	0f237097          	auipc	ra,0xf237
    590c:	40318333          	sub	t1,gp,gp
    5910:	00018233          	add	tp,gp,zero
    5914:	004081b3          	add	gp,ra,tp
    5918:	d660ef93          	ori	t6,ra,-666
    591c:	003171b3          	and	gp,sp,gp
    5920:	1ac0f093          	andi	ra,ra,428
    5924:	269c8237          	lui	tp,0x269c8
    5928:	8e29e097          	auipc	ra,0x8e29e
    592c:	fbfa2117          	auipc	sp,0xfbfa2
    5930:	003165b3          	or	a1,sp,gp
    5934:	44dcc093          	xori	ra,s9,1101
    5938:	403101b3          	sub	gp,sp,gp
    593c:	00308333          	add	t1,ra,gp
    5940:	014081b3          	add	gp,ra,s4
    5944:	71a17113          	andi	sp,sp,1818
    5948:	47f685b7          	lui	a1,0x47f68
    594c:	e95e8097          	auipc	ra,0xe95e8
    5950:	8d736097          	auipc	ra,0x8d736
    5954:	cbda6197          	auipc	gp,0xcbda6
    5958:	53bed097          	auipc	ra,0x53bed
    595c:	0f11e013          	ori	zero,gp,241
    5960:	e3130093          	addi	ra,t1,-463 # 0xffffffffde03f6f9
    5964:	00110263          	beq	sp,ra,0x5968
    5968:	e0cff0ef          	jal	ra,0x4f74
    596c:	8c007093          	andi	ra,zero,-1856
    5970:	3da660b7          	lui	ra,0x3da66
    5974:	7842e313          	ori	t1,t0,1924
    5978:	c9416093          	ori	ra,sp,-876
    597c:	40b58133          	sub	sp,a1,a1
    5980:	0032c133          	xor	sp,t0,gp
    5984:	80e06193          	ori	gp,zero,-2034
    5988:	f02af117          	auipc	sp,0xf02af
    598c:	771e7137          	lui	sp,0x771e7
    5990:	5cd0f193          	andi	gp,ra,1485
    5994:	6ea54093          	xori	ra,a0,1770
    5998:	9b7be1b7          	lui	gp,0x9b7be
    599c:	c13a4017          	auipc	zero,0xc13a4
    59a0:	fa718193          	addi	gp,gp,-89 # 0xffffffff9b7bdfa7
    59a4:	10304193          	xori	gp,zero,259
    59a8:	65a3d197          	auipc	gp,0x65a3d
    59ac:	77720093          	addi	ra,tp,1911 # 0x269c8777
    59b0:	40318033          	sub	zero,gp,gp
    59b4:	6c665137          	lui	sp,0x6c665
    59b8:	93058137          	lui	sp,0x93058
    59bc:	81bc4897          	auipc	a7,0x81bc4
    59c0:	a8a130b7          	lui	ra,0xa8a13
    59c4:	40210133          	sub	sp,sp,sp
    59c8:	c4c0b097          	auipc	ra,0xc4c0b
    59cc:	e7990097          	auipc	ra,0xe7990
    59d0:	40218133          	sub	sp,gp,sp
    59d4:	e9219097          	auipc	ra,0xe9219
    59d8:	03045097          	auipc	ra,0x3045
    59dc:	013105b3          	add	a1,sp,s3
    59e0:	e02a63b7          	lui	t2,0xe02a6
    59e4:	b666f197          	auipc	gp,0xb666f
    59e8:	002070b3          	and	ra,zero,sp
    59ec:	01c140b3          	xor	ra,sp,t3
    59f0:	0029a1b7          	lui	gp,0x29a
    59f4:	3bb17113          	andi	sp,sp,955
    59f8:	b1704193          	xori	gp,zero,-1257
    59fc:	98f0c193          	xori	gp,ra,-1649
    5a00:	00308263          	beq	ra,gp,0x5a04
    5a04:	30d001ef          	jal	gp,0x6510
    5a08:	112341b7          	lui	gp,0x11234
    5a0c:	65a76117          	auipc	sp,0x65a76
    5a10:	003171b3          	and	gp,sp,gp
    5a14:	00c88037          	lui	zero,0xc88
    5a18:	0003c1b3          	xor	gp,t2,zero
    5a1c:	498c85b7          	lui	a1,0x498c8
    5a20:	7f51c393          	xori	t2,gp,2037
    5a24:	0011c1b3          	xor	gp,gp,ra
    5a28:	1f072b17          	auipc	s6,0x1f072
    5a2c:	6f8ef1b7          	lui	gp,0x6f8ef
    5a30:	9e7e1197          	auipc	gp,0x9e7e1
    5a34:	001072b3          	and	t0,zero,ra
    5a38:	bca80497          	auipc	s1,0xbca80
    5a3c:	7e838213          	addi	tp,t2,2024 # 0xffffffffe02a67e8
    5a40:	65214113          	xori	sp,sp,1618
    5a44:	56439197          	auipc	gp,0x56439
    5a48:	002160b3          	or	ra,sp,sp
    5a4c:	001160b3          	or	ra,sp,ra
    5a50:	00218133          	add	sp,gp,sp
    5a54:	23516193          	ori	gp,sp,565
    5a58:	e79077b7          	lui	a5,0xe7907
    5a5c:	40110133          	sub	sp,sp,ra
    5a60:	0010e133          	or	sp,ra,ra
    5a64:	cab06197          	auipc	gp,0xcab06
    5a68:	40b08033          	sub	zero,ra,a1
    5a6c:	77cb1117          	auipc	sp,0x77cb1
    5a70:	cf1f3317          	auipc	t1,0xcf1f3
    5a74:	40110033          	sub	zero,sp,ra
    5a78:	ab83e197          	auipc	gp,0xab83e
    5a7c:	49f0f193          	andi	gp,ra,1183
    5a80:	00217133          	and	sp,sp,sp
    5a84:	422301b7          	lui	gp,0x42230
    5a88:	607e6137          	lui	sp,0x607e6
    5a8c:	002066b3          	or	a3,zero,sp
    5a90:	00310263          	beq	sp,gp,0x5a94
    5a94:	061001ef          	jal	gp,0x62f4
    5a98:	2d1a5117          	auipc	sp,0x2d1a5
    5a9c:	00718c33          	add	s8,gp,t2
    5aa0:	c25d1c37          	lui	s8,0xc25d1
    5aa4:	ae536113          	ori	sp,t1,-1307
    5aa8:	3ded17b7          	lui	a5,0x3ded1
    5aac:	4abc8197          	auipc	gp,0x4abc8
    5ab0:	003161b3          	or	gp,sp,gp
    5ab4:	f8b14093          	xori	ra,sp,-117
    5ab8:	1b90b117          	auipc	sp,0x1b90b
    5abc:	b764e217          	auipc	tp,0xb764e
    5ac0:	5130f193          	andi	gp,ra,1299
    5ac4:	001302b3          	add	t0,t1,ra
    5ac8:	f0809b37          	lui	s6,0xf0809
    5acc:	3a955637          	lui	a2,0x3a955
    5ad0:	f5734293          	xori	t0,t1,-169
    5ad4:	bf93f293          	andi	t0,t2,-1031
    5ad8:	a75a21b7          	lui	gp,0xa75a2
    5adc:	00517133          	and	sp,sp,t0
    5ae0:	80a95017          	auipc	zero,0x80a95
    5ae4:	1e632317          	auipc	t1,0x1e632
    5ae8:	68a5a097          	auipc	ra,0x68a5a
    5aec:	d4e955b7          	lui	a1,0xd4e95
    5af0:	32627097          	auipc	ra,0x32627
    5af4:	002162b3          	or	t0,sp,sp
    5af8:	76a06113          	ori	sp,zero,1898
    5afc:	002081b3          	add	gp,ra,sp
    5b00:	2d27f293          	andi	t0,a5,722
    5b04:	43a252b7          	lui	t0,0x43a25
    5b08:	7a2f1137          	lui	sp,0x7a2f1
    5b0c:	31a16113          	ori	sp,sp,794
    5b10:	0021c0b3          	xor	ra,gp,sp
    5b14:	00118263          	beq	gp,ra,0x5b18
    5b18:	065001ef          	jal	gp,0x637c
    5b1c:	b701e113          	ori	sp,gp,-1168
    5b20:	d1195117          	auipc	sp,0xd1195
    5b24:	dfac90b7          	lui	ra,0xdfac9
    5b28:	e5a09297          	auipc	t0,0xe5a09
    5b2c:	9c343197          	auipc	gp,0x9c343
    5b30:	cd139797          	auipc	a5,0xcd139
    5b34:	adfe03b7          	lui	t2,0xadfe0
    5b38:	3c608193          	addi	gp,ra,966 # 0xffffffffdfac93c6
    5b3c:	0051c133          	xor	sp,gp,t0
    5b40:	00016137          	lui	sp,0x16
    5b44:	eb4df197          	auipc	gp,0xeb4df
    5b48:	00606333          	or	t1,zero,t1
    5b4c:	4f0e7137          	lui	sp,0x4f0e7
    5b50:	a454c337          	lui	t1,0xa454c
    5b54:	d1b10193          	addi	gp,sp,-741 # 0x4f0e6d1b
    5b58:	0030e2b3          	or	t0,ra,gp
    5b5c:	115740b7          	lui	ra,0x11574
    5b60:	41036093          	ori	ra,t1,1040
    5b64:	0714d237          	lui	tp,0x714d
    5b68:	e8fbb197          	auipc	gp,0xe8fbb
    5b6c:	8e37f4b7          	lui	s1,0x8e37f
    5b70:	5880c193          	xori	gp,ra,1416
    5b74:	403d81b3          	sub	gp,s11,gp
    5b78:	0011f0b3          	and	ra,gp,ra
    5b7c:	70a18113          	addi	sp,gp,1802 # 0xffffffffe8fc1272
    5b80:	56979137          	lui	sp,0x56979
    5b84:	0031f1b3          	and	gp,gp,gp
    5b88:	25482097          	auipc	ra,0x25482
    5b8c:	82bb7197          	auipc	gp,0x82bb7
    5b90:	2a8d3117          	auipc	sp,0x2a8d3
    5b94:	003161b3          	or	gp,sp,gp
    5b98:	8cdff137          	lui	sp,0x8cdff
    5b9c:	002061b3          	or	gp,zero,sp
    5ba0:	104ae317          	auipc	t1,0x104ae
    5ba4:	04426193          	ori	gp,tp,68
    5ba8:	a9a20197          	auipc	gp,0xa9a20
    5bac:	6200e193          	ori	gp,ra,1568
    5bb0:	e85a10b7          	lui	ra,0xe85a1
    5bb4:	a8d41137          	lui	sp,0xa8d41
    5bb8:	001160b3          	or	ra,sp,ra
    5bbc:	00000013          	nop
    5bc0:	1c000263          	beqz	zero,0x5d84
    5bc4:	319343b7          	lui	t2,0x31934
    5bc8:	906c9d17          	auipc	s10,0x906c9
    5bcc:	003e7133          	and	sp,t3,gp
    5bd0:	c9c053b7          	lui	t2,0xc9c05
    5bd4:	2230c013          	xori	zero,ra,547
    5bd8:	78c1c313          	xori	t1,gp,1932
    5bdc:	eb41c113          	xori	sp,gp,-332
    5be0:	1397e137          	lui	sp,0x1397e
    5be4:	7a49b197          	auipc	gp,0x7a49b
    5be8:	7f304137          	lui	sp,0x7f304
    5bec:	0030e133          	or	sp,ra,gp
    5bf0:	403080b3          	sub	ra,ra,gp
    5bf4:	0030f0b3          	and	ra,ra,gp
    5bf8:	00210133          	add	sp,sp,sp
    5bfc:	23c0fe93          	andi	t4,ra,572
    5c00:	4d4380b7          	lui	ra,0x4d438
    5c04:	8e81f117          	auipc	sp,0x8e81f
    5c08:	b6614113          	xori	sp,sp,-1178
    5c0c:	3b87b137          	lui	sp,0x3b87b
    5c10:	0052f1b3          	and	gp,t0,t0
    5c14:	401083b3          	sub	t2,ra,ra
    5c18:	716f0593          	addi	a1,t5,1814 # 0x25982716
    5c1c:	0021e333          	or	t1,gp,sp
    5c20:	ed4fc197          	auipc	gp,0xed4fc
    5c24:	18f53197          	auipc	gp,0x18f53
    5c28:	e920d137          	lui	sp,0xe920d
    5c2c:	63d14093          	xori	ra,sp,1597
    5c30:	41859297          	auipc	t0,0x41859
    5c34:	2c70c197          	auipc	gp,0x2c70c
    5c38:	72d26193          	ori	gp,tp,1837
    5c3c:	33c29497          	auipc	s1,0x33c29
    5c40:	2321b1b7          	lui	gp,0x2321b
    5c44:	6fdb90b7          	lui	ra,0x6fdb9
    5c48:	001103b3          	add	t2,sp,ra
    5c4c:	00000097          	auipc	ra,0x0
    5c50:	e4c080e7          	jalr	-436(ra) # 0x5a98
    5c54:	a4f280b7          	lui	ra,0xa4f28
    5c58:	a3810db7          	lui	s11,0xa3810
    5c5c:	52e80097          	auipc	ra,0x52e80
    5c60:	91a71097          	auipc	ra,0x91a71
    5c64:	f6fee1b7          	lui	gp,0xf6fee
    5c68:	403080b3          	sub	ra,ra,gp
    5c6c:	00348933          	add	s2,s1,gp
    5c70:	6d3b3017          	auipc	zero,0x6d3b3
    5c74:	ee40e493          	ori	s1,ra,-284
    5c78:	1e8c8097          	auipc	ra,0x1e8c8
    5c7c:	00117333          	and	t1,sp,ra
    5c80:	e840a117          	auipc	sp,0xe840a
    5c84:	19822137          	lui	sp,0x19822
    5c88:	003101b3          	add	gp,sp,gp
    5c8c:	000080b3          	add	ra,ra,zero
    5c90:	a7336093          	ori	ra,t1,-1421
    5c94:	07326097          	auipc	ra,0x7326
    5c98:	e1729197          	auipc	gp,0xe1729
    5c9c:	0031e133          	or	sp,gp,gp
    5ca0:	80d16213          	ori	tp,sp,-2035
    5ca4:	a694c237          	lui	tp,0xa694c
    5ca8:	53278113          	addi	sp,a5,1330 # 0xffffffffcd13f062
    5cac:	0050f133          	and	sp,ra,t0
    5cb0:	8710e113          	ori	sp,ra,-1935
    5cb4:	825e9117          	auipc	sp,0x825e9
    5cb8:	6daa01b7          	lui	gp,0x6daa0
    5cbc:	84e1c313          	xori	t1,gp,-1970
    5cc0:	0e0d3117          	auipc	sp,0xe0d3
    5cc4:	42df9337          	lui	t1,0x42df9
    5cc8:	8cd89137          	lui	sp,0x8cd89
    5ccc:	b8122197          	auipc	gp,0xb8122
    5cd0:	000200b3          	add	ra,tp,zero
    5cd4:	26431037          	lui	zero,0x26431
    5cd8:	53eaf197          	auipc	gp,0x53eaf
    5cdc:	ddc79097          	auipc	ra,0xddc79
    5ce0:	ee3082e3          	beq	ra,gp,0x5bc4
    5ce4:	ee1ff16f          	jal	sp,0x5bc4
    5ce8:	1c74f3b7          	lui	t2,0x1c74f
    5cec:	a4e270b7          	lui	ra,0xa4e27
    5cf0:	b2f9f193          	andi	gp,s3,-1233
    5cf4:	0031e3b3          	or	t2,gp,gp
    5cf8:	0a257097          	auipc	ra,0xa257
    5cfc:	b42d1897          	auipc	a7,0xb42d1
    5d00:	6da1f117          	auipc	sp,0x6da1f
    5d04:	1991e293          	ori	t0,gp,409
    5d08:	4774d297          	auipc	t0,0x4774d
    5d0c:	9311b1b7          	lui	gp,0x9311b
    5d10:	5902e093          	ori	ra,t0,1424
    5d14:	002180b3          	add	ra,gp,sp
    5d18:	68036217          	auipc	tp,0x68036
    5d1c:	eef30113          	addi	sp,t1,-273 # 0x42df8eef
    5d20:	003181b3          	add	gp,gp,gp
    5d24:	2c043137          	lui	sp,0x2c043
    5d28:	1862e193          	ori	gp,t0,390
    5d2c:	c190d197          	auipc	gp,0xc190d
    5d30:	4690c093          	xori	ra,ra,1129
    5d34:	8471e093          	ori	ra,gp,-1977
    5d38:	002080b3          	add	ra,ra,sp
    5d3c:	16308193          	addi	gp,ra,355 # 0xa25ce5b
    5d40:	27b90197          	auipc	gp,0x27b90
    5d44:	0011e3b3          	or	t2,gp,ra
    5d48:	c5846097          	auipc	ra,0xc5846
    5d4c:	002160b3          	or	ra,sp,sp
    5d50:	78599217          	auipc	tp,0x78599
    5d54:	0cce5337          	lui	t1,0xcce5
    5d58:	00b0f233          	and	tp,ra,a1
    5d5c:	508ae1b7          	lui	gp,0x508ae
    5d60:	8a4fb197          	auipc	gp,0x8a4fb
    5d64:	aefb4197          	auipc	gp,0xaefb4
    5d68:	00317033          	and	zero,sp,gp
    5d6c:	1bc30093          	addi	ra,t1,444 # 0xcce51bc
    5d70:	00317133          	and	sp,sp,gp
    5d74:	ea10f913          	andi	s2,ra,-351
    5d78:	8c39c197          	auipc	gp,0x8c39c
    5d7c:	68118063          	beq	gp,ra,0x63fc
    5d80:	67c005ef          	jal	a1,0x63fc
    5d84:	002783b3          	add	t2,a5,sp
    5d88:	81d58093          	addi	ra,a1,-2019 # 0xffffffffd4e9481d
    5d8c:	0031e233          	or	tp,gp,gp
    5d90:	769221b7          	lui	gp,0x76922
    5d94:	f5f14113          	xori	sp,sp,-161
    5d98:	a0d1e093          	ori	ra,gp,-1523
    5d9c:	00710233          	add	tp,sp,t2
    5da0:	28b1c113          	xori	sp,gp,651
    5da4:	14b16793          	ori	a5,sp,331
    5da8:	03725317          	auipc	t1,0x3725
    5dac:	910c5197          	auipc	gp,0x910c5
    5db0:	55b31117          	auipc	sp,0x55b31
    5db4:	00137133          	and	sp,t1,ra
    5db8:	27b0f193          	andi	gp,ra,635
    5dbc:	fbf16113          	ori	sp,sp,-65
    5dc0:	e051e097          	auipc	ra,0xe051e
    5dc4:	e7c08097          	auipc	ra,0xe7c08
    5dc8:	334c6317          	auipc	t1,0x334c6
    5dcc:	b8a8c097          	auipc	ra,0xb8a8c
    5dd0:	09010093          	addi	ra,sp,144 # 0x55b36e40
    5dd4:	40210133          	sub	sp,sp,sp
    5dd8:	273ff137          	lui	sp,0x273ff
    5ddc:	00a3e2b3          	or	t0,t2,a0
    5de0:	403101b3          	sub	gp,sp,gp
    5de4:	407000b3          	neg	ra,t2
    5de8:	166e80b7          	lui	ra,0x166e8
    5dec:	c437c093          	xori	ra,a5,-957
    5df0:	b3bd6397          	auipc	t2,0xb3bd6
    5df4:	ca274137          	lui	sp,0xca274
    5df8:	0051e0b3          	or	ra,gp,t0
    5dfc:	3163c093          	xori	ra,t2,790
    5e00:	df773797          	auipc	a5,0xdf773
    5e04:	00000197          	auipc	gp,0x0
    5e08:	2c018167          	jalr	sp,704(gp) # 0x60c4
    5e0c:	d42af1b7          	lui	gp,0xd42af
    5e10:	00316133          	or	sp,sp,gp
    5e14:	0030e0b3          	or	ra,ra,gp
    5e18:	f79d3897          	auipc	a7,0xf79d3
    5e1c:	dbe43297          	auipc	t0,0xdbe43
    5e20:	1d927793          	andi	a5,tp,473
    5e24:	b2817093          	andi	ra,sp,-1240
    5e28:	40238233          	sub	tp,t2,sp
    5e2c:	c60b8137          	lui	sp,0xc60b8
    5e30:	b8b21117          	auipc	sp,0xb8b21
    5e34:	87408093          	addi	ra,ra,-1932 # 0x166e7874
    5e38:	7820e313          	ori	t1,ra,1922
    5e3c:	001160b3          	or	ra,sp,ra
    5e40:	05914093          	xori	ra,sp,89
    5e44:	95372117          	auipc	sp,0x95372
    5e48:	bb31f113          	andi	sp,gp,-1101
    5e4c:	00d5c2b3          	xor	t0,a1,a3
    5e50:	daea30b7          	lui	ra,0xdaea3
    5e54:	6d91f193          	andi	gp,gp,1753
    5e58:	321db237          	lui	tp,0x321db
    5e5c:	2531c193          	xori	gp,gp,595
    5e60:	83607113          	andi	sp,zero,-1994
    5e64:	e901f113          	andi	sp,gp,-368
    5e68:	c5514313          	xori	t1,sp,-939
    5e6c:	003040b3          	xor	ra,zero,gp
    5e70:	e125f213          	andi	tp,a1,-494
    5e74:	400100b3          	sub	ra,sp,zero
    5e78:	b6a6c137          	lui	sp,0xb6a6c
    5e7c:	00000917          	auipc	s2,0x0
    5e80:	008901e7          	jalr	gp,8(s2) # 0x5e84
    5e84:	cec0fe93          	andi	t4,ra,-788
    5e88:	0cf71017          	auipc	zero,0xcf71
    5e8c:	f2ad3197          	auipc	gp,0xf2ad3
    5e90:	5a0650b7          	lui	ra,0x5a065
    5e94:	006087b3          	add	a5,ra,t1
    5e98:	c53c9037          	lui	zero,0xc53c9
    5e9c:	01d0c133          	xor	sp,ra,t4
    5ea0:	001360b3          	or	ra,t1,ra
    5ea4:	c63fd197          	auipc	gp,0xc63fd
    5ea8:	403102b3          	sub	t0,sp,gp
    5eac:	0531f097          	auipc	ra,0x531f
    5eb0:	00b3c733          	xor	a4,t2,a1
    5eb4:	d81a90b7          	lui	ra,0xd81a9
    5eb8:	6361c193          	xori	gp,gp,1590
    5ebc:	0021c3b3          	xor	t2,gp,sp
    5ec0:	0010c1b3          	xor	gp,ra,ra
    5ec4:	a8924093          	xori	ra,tp,-1399
    5ec8:	2e5a1317          	auipc	t1,0x2e5a1
    5ecc:	20496137          	lui	sp,0x20496
    5ed0:	b22cc0b7          	lui	ra,0xb22cc
    5ed4:	6121c113          	xori	sp,gp,1554
    5ed8:	df827093          	andi	ra,tp,-520
    5edc:	c2710213          	addi	tp,sp,-985 # 0x20495c27
    5ee0:	0011c1b3          	xor	gp,gp,ra
    5ee4:	04ee41b7          	lui	gp,0x4ee4
    5ee8:	43ba90b7          	lui	ra,0x43ba9
    5eec:	1b8271b7          	lui	gp,0x1b827
    5ef0:	8e6ca117          	auipc	sp,0x8e6ca
    5ef4:	20cb1397          	auipc	t2,0x20cb1
    5ef8:	5291f313          	andi	t1,gp,1321
    5efc:	9e113097          	auipc	ra,0x9e113
    5f00:	57bcc097          	auipc	ra,0x57bcc
    5f04:	00028693          	mv	a3,t0
    5f08:	22568c63          	beq	a3,t0,0x6140
    5f0c:	40338133          	sub	sp,t2,gp
    5f10:	fcd39137          	lui	sp,0xfcd39
    5f14:	6b708093          	addi	ra,ra,1719 # 0x57bd25b7
    5f18:	76fe0137          	lui	sp,0x76fe0
    5f1c:	3cf8f097          	auipc	ra,0x3cf8f
    5f20:	00610193          	addi	gp,sp,6 # 0x76fe0006
    5f24:	9e05a097          	auipc	ra,0x9e05a
    5f28:	35b471b7          	lui	gp,0x35b47
    5f2c:	002177b3          	and	a5,sp,sp
    5f30:	001041b3          	xor	gp,zero,ra
    5f34:	447bb117          	auipc	sp,0x447bb
    5f38:	001201b3          	add	gp,tp,ra
    5f3c:	ab0a9137          	lui	sp,0xab0a9
    5f40:	f902d137          	lui	sp,0xf902d
    5f44:	00218fb3          	add	t6,gp,sp
    5f48:	b0a702b7          	lui	t0,0xb0a70
    5f4c:	1932e113          	ori	sp,t0,403
    5f50:	e0a651b7          	lui	gp,0xe0a65
    5f54:	40308133          	sub	sp,ra,gp
    5f58:	07bfe117          	auipc	sp,0x7bfe
    5f5c:	edf02017          	auipc	zero,0xedf02
    5f60:	165bc317          	auipc	t1,0x165bc
    5f64:	41438233          	sub	tp,t2,s4
    5f68:	81244097          	auipc	ra,0x81244
    5f6c:	4459f0b7          	lui	ra,0x4459f
    5f70:	3d062097          	auipc	ra,0x3d062
    5f74:	fb1c7117          	auipc	sp,0xfb1c7
    5f78:	327e5b97          	auipc	s7,0x327e5
    5f7c:	0021e133          	or	sp,gp,sp
    5f80:	36d17013          	andi	zero,sp,877
    5f84:	40208133          	sub	sp,ra,sp
    5f88:	5927f093          	andi	ra,a5,1426
    5f8c:	7470f113          	andi	sp,ra,1863
    5f90:	3a0b7137          	lui	sp,0x3a0b7
    5f94:	00000197          	auipc	gp,0x0
    5f98:	cc0181e7          	jalr	gp,-832(gp) # 0x5c54
    5f9c:	40228133          	sub	sp,t0,sp
    5fa0:	d0e85117          	auipc	sp,0xd0e85
    5fa4:	0f90e293          	ori	t0,ra,249
    5fa8:	1956f093          	andi	ra,a3,405
    5fac:	0061ec33          	or	s8,gp,t1
    5fb0:	c28a60b7          	lui	ra,0xc28a6
    5fb4:	bf90f193          	andi	gp,ra,-1031
    5fb8:	404181b3          	sub	gp,gp,tp
    5fbc:	40118133          	sub	sp,gp,ra
    5fc0:	82e8c0b7          	lui	ra,0x82e8c
    5fc4:	a7c1c113          	xori	sp,gp,-1412
    5fc8:	6eacf1b7          	lui	gp,0x6eacf
    5fcc:	0060e1b3          	or	gp,ra,t1
    5fd0:	70151097          	auipc	ra,0x70151
    5fd4:	23e91617          	auipc	a2,0x23e91
    5fd8:	ef818193          	addi	gp,gp,-264 # 0x6eaceef8
    5fdc:	764b5237          	lui	tp,0x764b5
    5fe0:	0060c233          	xor	tp,ra,t1
    5fe4:	42b4b197          	auipc	gp,0x42b4b
    5fe8:	f9269137          	lui	sp,0xf9269
    5fec:	04d16013          	ori	zero,sp,77
    5ff0:	0c8ecd93          	xori	s11,t4,200
    5ff4:	1697e097          	auipc	ra,0x1697e
    5ff8:	0021c0b3          	xor	ra,gp,sp
    5ffc:	9419a137          	lui	sp,0x9419a
    6000:	394c7117          	auipc	sp,0x394c7
    6004:	5ac9e213          	ori	tp,s3,1452
    6008:	571fa1b7          	lui	gp,0x571fa
    600c:	2c90c193          	xori	gp,ra,713
    6010:	5ccf8697          	auipc	a3,0x5ccf8
    6014:	cea1c093          	xori	ra,gp,-790
    6018:	45ec8117          	auipc	sp,0x45ec8
    601c:	7da30113          	addi	sp,t1,2010 # 0x165c273a
    6020:	00030213          	mv	tp,t1
    6024:	00620263          	beq	tp,t1,0x6028
    6028:	4acf8097          	auipc	ra,0x4acf8
    602c:	9b314d93          	xori	s11,sp,-1613
    6030:	d70e60b7          	lui	ra,0xd70e6
    6034:	9ab3b037          	lui	zero,0x9ab3b
    6038:	40308133          	sub	sp,ra,gp
    603c:	30d1c1b7          	lui	gp,0x30d1c
    6040:	8dbe6117          	auipc	sp,0x8dbe6
    6044:	449c20b7          	lui	ra,0x449c2
    6048:	2346b297          	auipc	t0,0x2346b
    604c:	99704093          	xori	ra,zero,-1641
    6050:	da83e093          	ori	ra,t2,-600
    6054:	f79a6097          	auipc	ra,0xf79a6
    6058:	401080b3          	sub	ra,ra,ra
    605c:	0031c133          	xor	sp,gp,gp
    6060:	f1508113          	addi	sp,ra,-235 # 0xfffffffff79abf69
    6064:	2a866097          	auipc	ra,0x2a866
    6068:	7f5c8117          	auipc	sp,0x7f5c8
    606c:	a8bf71b7          	lui	gp,0xa8bf7
    6070:	00214133          	xor	sp,sp,sp
    6074:	0011f0b3          	and	ra,gp,ra
    6078:	9f3d80b7          	lui	ra,0x9f3d8
    607c:	5c3b9117          	auipc	sp,0x5c3b9
    6080:	07e911b7          	lui	gp,0x7e91
    6084:	0014e3b3          	or	t2,s1,ra
    6088:	a917d117          	auipc	sp,0xa917d
    608c:	0030c133          	xor	sp,ra,gp
    6090:	a03dc137          	lui	sp,0xa03dc
    6094:	9642d0b7          	lui	ra,0x9642d
    6098:	003163b3          	or	t2,sp,gp
    609c:	243b1237          	lui	tp,0x243b1
    60a0:	563e60b7          	lui	ra,0x563e6
    60a4:	bfb1c113          	xori	sp,gp,-1029
    60a8:	cdb9c0b7          	lui	ra,0xcdb9c
    60ac:	de099097          	auipc	ra,0xde099
    60b0:	e6314113          	xori	sp,sp,-413
    60b4:	dd21b3b7          	lui	t2,0xdd21b
    60b8:	00316133          	or	sp,sp,gp
    60bc:	00038193          	mv	gp,t2
    60c0:	c27184e3          	beq	gp,t2,0x5ce8
    60c4:	95655317          	auipc	t1,0x95655
    60c8:	002080b3          	add	ra,ra,sp
    60cc:	0007c1b3          	xor	gp,a5,zero
    60d0:	8de14313          	xori	t1,sp,-1826
    60d4:	fa810093          	addi	ra,sp,-88 # 0xffffffffa03dbfa8
    60d8:	5dd08f13          	addi	t5,ra,1501 # 0xffffffffde09f689
    60dc:	47c14193          	xori	gp,sp,1148
    60e0:	413a3117          	auipc	sp,0x413a3
    60e4:	15310113          	addi	sp,sp,339 # 0x413a9233
    60e8:	3a864117          	auipc	sp,0x3a864
    60ec:	509fc097          	auipc	ra,0x509fc
    60f0:	1614b197          	auipc	gp,0x1614b
    60f4:	7600e113          	ori	sp,ra,1888
    60f8:	22d22297          	auipc	t0,0x22d22
    60fc:	89837137          	lui	sp,0x89837
    6100:	34ab3097          	auipc	ra,0x34ab3
    6104:	01afc0b7          	lui	ra,0x1afc
    6108:	f2b941b7          	lui	gp,0xf2b94
    610c:	4df93237          	lui	tp,0x4df93
    6110:	0030e0b3          	or	ra,ra,gp
    6114:	a14c7113          	andi	sp,s8,-1516
    6118:	401101b3          	sub	gp,sp,ra
    611c:	0fe10013          	addi	zero,sp,254 # 0xffffffff898370fe
    6120:	0154c1b3          	xor	gp,s1,s5
    6124:	21f8e097          	auipc	ra,0x21f8e
    6128:	f170e093          	ori	ra,ra,-233
    612c:	001181b3          	add	gp,gp,ra
    6130:	00f102b3          	add	t0,sp,a5
    6134:	05491117          	auipc	sp,0x5491
    6138:	82110ae3          	beq	sp,ra,0x596c
    613c:	831ff1ef          	jal	gp,0x596c
    6140:	868bf217          	auipc	tp,0x868bf
    6144:	07a18093          	addi	ra,gp,122 # 0xfffffffff2b9407a
    6148:	44ee70b7          	lui	ra,0x44ee7
    614c:	67419597          	auipc	a1,0x67419
    6150:	18d50117          	auipc	sp,0x18d50
    6154:	5946c1b7          	lui	gp,0x5946c
    6158:	b89ba097          	auipc	ra,0xb89ba
    615c:	125571b7          	lui	gp,0x12557
    6160:	005080b3          	add	ra,ra,t0
    6164:	ebc07137          	lui	sp,0xebc07
    6168:	0b56d0b7          	lui	ra,0xb56d
    616c:	7155a0b7          	lui	ra,0x7155a
    6170:	5a10f113          	andi	sp,ra,1441
    6174:	3b883c37          	lui	s8,0x3b883
    6178:	0a5ca217          	auipc	tp,0xa5ca
    617c:	5f1411b7          	lui	gp,0x5f141
    6180:	cab1c013          	xori	zero,gp,-853
    6184:	04520013          	addi	zero,tp,69 # 0xa5d01bd
    6188:	db4181b7          	lui	gp,0xdb418
    618c:	f7f63317          	auipc	t1,0xf7f63
    6190:	6f3298b7          	lui	a7,0x6f329
    6194:	96e8c237          	lui	tp,0x96e8c
    6198:	b2c1c113          	xori	sp,gp,-1236
    619c:	0a84b197          	auipc	gp,0xa84b
    61a0:	cc29a237          	lui	tp,0xcc29a
    61a4:	08f9f217          	auipc	tp,0x8f9f
    61a8:	2a5624b7          	lui	s1,0x2a562
    61ac:	e2d07093          	andi	ra,zero,-467
    61b0:	ea7da097          	auipc	ra,0xea7da
    61b4:	004180b3          	add	ra,gp,tp
    61b8:	cab57113          	andi	sp,a0,-853
    61bc:	00116133          	or	sp,sp,ra
    61c0:	52b14093          	xori	ra,sp,1323
    61c4:	165da097          	auipc	ra,0x165da
    61c8:	844100e3          	beq	sp,tp,0x5a08
    61cc:	83dff36f          	jal	t1,0x5a08
    61d0:	fafdc397          	auipc	t2,0xfafdc
    61d4:	40108133          	sub	sp,ra,ra
    61d8:	b1210113          	addi	sp,sp,-1262 # 0xffffffffebc06b12
    61dc:	00217133          	and	sp,sp,sp
    61e0:	001bc0b3          	xor	ra,s7,ra
    61e4:	43007117          	auipc	sp,0x43007
    61e8:	c9a1c093          	xori	ra,gp,-870
    61ec:	00314233          	xor	tp,sp,gp
    61f0:	5d8690b7          	lui	ra,0x5d869
    61f4:	00208133          	add	sp,ra,sp
    61f8:	0031f0b3          	and	ra,gp,gp
    61fc:	ec02e0b7          	lui	ra,0xec02e
    6200:	12ef2097          	auipc	ra,0x12ef2
    6204:	40d08133          	sub	sp,ra,a3
    6208:	00614133          	xor	sp,sp,t1
    620c:	006171b3          	and	gp,sp,t1
    6210:	1a1a4137          	lui	sp,0x1a1a4
    6214:	cf514293          	xori	t0,sp,-779
    6218:	9ea10a13          	addi	s4,sp,-1558 # 0x1a1a39ea
    621c:	0030f233          	and	tp,ra,gp
    6220:	54318113          	addi	sp,gp,1347 # 0xa8516df
    6224:	9d11f393          	andi	t2,gp,-1583
    6228:	f9f14093          	xori	ra,sp,-97
    622c:	6ceb33b7          	lui	t2,0x6ceb3
    6230:	003184b3          	add	s1,gp,gp
    6234:	5f410197          	auipc	gp,0x5f410
    6238:	899281b7          	lui	gp,0x89928
    623c:	9d4e4117          	auipc	sp,0x9d4e4
    6240:	73a77097          	auipc	ra,0x73a77
    6244:	402180b3          	sub	ra,gp,sp
    6248:	5b0600b7          	lui	ra,0x5b060
    624c:	0030c1b3          	xor	gp,ra,gp
    6250:	ef06f237          	lui	tp,0xef06f
    6254:	2f3da037          	lui	zero,0x2f3da
    6258:	9e82e117          	auipc	sp,0x9e82e
    625c:	ea43c193          	xori	gp,t2,-348
    6260:	00000217          	auipc	tp,0x0
    6264:	d3c201e7          	jalr	gp,-708(tp) # 0x0
    6268:	401380b3          	sub	ra,t2,ra
    626c:	4a2e0137          	lui	sp,0x4a2e0
    6270:	64a47197          	auipc	gp,0x64a47
    6274:	001105b3          	add	a1,sp,ra
    6278:	54aa10b7          	lui	ra,0x54aa1
    627c:	a2b890b7          	lui	ra,0xa2b89
    6280:	00314133          	xor	sp,sp,gp
    6284:	90b30113          	addi	sp,t1,-1781 # 0xfffffffff7f68a97
    6288:	61d17113          	andi	sp,sp,1565
    628c:	6cdfb237          	lui	tp,0x6cdfb
    6290:	84ec0297          	auipc	t0,0x84ec0
    6294:	b3d7e617          	auipc	a2,0xb3d7e
    6298:	54516113          	ori	sp,sp,1349
    629c:	e7df72b7          	lui	t0,0xe7df7
    62a0:	733ed137          	lui	sp,0x733ed
    62a4:	560c8f17          	auipc	t5,0x560c8
    62a8:	9efdb2b7          	lui	t0,0x9efdb
    62ac:	f220e113          	ori	sp,ra,-222
    62b0:	5e4a00b7          	lui	ra,0x5e4a0
    62b4:	9af9a137          	lui	sp,0x9af9a
    62b8:	0017f7b3          	and	a5,a5,ra
    62bc:	dcee5017          	auipc	zero,0xdcee5
    62c0:	0003e0b3          	or	ra,t2,zero
    62c4:	0060e133          	or	sp,ra,t1
    62c8:	b381e093          	ori	ra,gp,-1224
    62cc:	b06d2137          	lui	sp,0xb06d2
    62d0:	24019137          	lui	sp,0x24019
    62d4:	e31b4297          	auipc	t0,0xe31b4
    62d8:	ce614193          	xori	gp,sp,-794
    62dc:	6961c113          	xori	sp,gp,1686
    62e0:	11f0f193          	andi	gp,ra,287
    62e4:	8aa1f113          	andi	sp,gp,-1878
    62e8:	5ef1b837          	lui	a6,0x5ef1b
    62ec:	821108e3          	beq	sp,ra,0x5b1c
    62f0:	82dff2ef          	jal	t0,0x5b1c
    62f4:	90be1337          	lui	t1,0x90be1
    62f8:	c55f4217          	auipc	tp,0xc55f4
    62fc:	fbfe31b7          	lui	gp,0xfbfe3
    6300:	408901b7          	lui	gp,0x40890
    6304:	9d0150b7          	lui	ra,0x9d015
    6308:	cc384197          	auipc	gp,0xcc384
    630c:	8d82e893          	ori	a7,t0,-1832
    6310:	da0b9137          	lui	sp,0xda0b9
    6314:	602ee397          	auipc	t2,0x602ee
    6318:	89008193          	addi	gp,ra,-1904 # 0xffffffff9d014890
    631c:	409931b7          	lui	gp,0x40993
    6320:	b711e113          	ori	sp,gp,-1167
    6324:	a180f193          	andi	gp,ra,-1512
    6328:	d8914093          	xori	ra,sp,-631
    632c:	76963237          	lui	tp,0x76963
    6330:	8d01e193          	ori	gp,gp,-1840
    6334:	003080b3          	add	ra,ra,gp
    6338:	00230c33          	add	s8,t1,sp
    633c:	00e1e0b3          	or	ra,gp,a4
    6340:	8bd68f17          	auipc	t5,0x8bd68
    6344:	b1537393          	andi	t2,t1,-1259
    6348:	c6e14193          	xori	gp,sp,-914
    634c:	fdfdd317          	auipc	t1,0xfdfdd
    6350:	aac18113          	addi	sp,gp,-1364 # 0x40992aac
    6354:	0ab21117          	auipc	sp,0xab21
    6358:	002070b3          	and	ra,zero,sp
    635c:	5f2db1b7          	lui	gp,0x5f2db
    6360:	ab517193          	andi	gp,sp,-1355
    6364:	00158133          	add	sp,a1,ra
    6368:	ab00c113          	xori	sp,ra,-1360
    636c:	05746113          	ori	sp,s0,87
    6370:	29e5d197          	auipc	gp,0x29e5d
    6374:	00078093          	mv	ra,a5
    6378:	e4f08ce3          	beq	ra,a5,0x61d0
    637c:	000101b3          	add	gp,sp,zero
    6380:	824a6197          	auipc	gp,0x824a6
    6384:	9cc30197          	auipc	gp,0x9cc30
    6388:	40208033          	sub	zero,ra,sp
    638c:	0031e0b3          	or	ra,gp,gp
    6390:	c2fda117          	auipc	sp,0xc2fda
    6394:	3db40117          	auipc	sp,0x3db40
    6398:	85210093          	addi	ra,sp,-1966 # 0x3db45be6
    639c:	9093a137          	lui	sp,0x9093a
    63a0:	2e7c21b7          	lui	gp,0x2e7c2
    63a4:	403180b3          	sub	ra,gp,gp
    63a8:	8ab2a0b7          	lui	ra,0x8ab2a
    63ac:	844ef2b7          	lui	t0,0x844ef
    63b0:	00117233          	and	tp,sp,ra
    63b4:	b7eb8117          	auipc	sp,0xb7eb8
    63b8:	0ab1f093          	andi	ra,gp,171
    63bc:	40100333          	neg	t1,ra
    63c0:	6be16197          	auipc	gp,0x6be16
    63c4:	1040c193          	xori	gp,ra,260
    63c8:	40308133          	sub	sp,ra,gp
    63cc:	22ebd097          	auipc	ra,0x22ebd
    63d0:	00208133          	add	sp,ra,sp
    63d4:	4c671097          	auipc	ra,0x4c671
    63d8:	7da221b7          	lui	gp,0x7da22
    63dc:	c603eb93          	ori	s7,t2,-928
    63e0:	b1d640b7          	lui	ra,0xb1d64
    63e4:	a15566b7          	lui	a3,0xa1556
    63e8:	0020e133          	or	sp,ra,sp
    63ec:	9f74c297          	auipc	t0,0x9f74c
    63f0:	90c25197          	auipc	gp,0x90c25
    63f4:	e6338ae3          	beq	t2,gp,0x6268
    63f8:	e71ff1ef          	jal	gp,0x6268
    63fc:	f575c117          	auipc	sp,0xf575c
    6400:	b41991b7          	lui	gp,0xb4199
    6404:	0784f137          	lui	sp,0x784f
    6408:	8c4671b7          	lui	gp,0x8c467
    640c:	fa8f30b7          	lui	ra,0xfa8f3
    6410:	939810b7          	lui	ra,0x93981
    6414:	bec7f3b7          	lui	t2,0xbec7f
    6418:	403104b3          	sub	s1,sp,gp
    641c:	401003b3          	neg	t2,ra
    6420:	167cb3b7          	lui	t2,0x167cb
    6424:	7f11f797          	auipc	a5,0x7f11f
    6428:	425eb097          	auipc	ra,0x425eb
    642c:	0e6af197          	auipc	gp,0xe6af
    6430:	6ab6b097          	auipc	ra,0x6ab6b
    6434:	75f720b7          	lui	ra,0x75f72
    6438:	2f951097          	auipc	ra,0x2f951
    643c:	6339e6b7          	lui	a3,0x6339e
    6440:	16618093          	addi	ra,gp,358 # 0xe6b5592
    6444:	58755d97          	auipc	s11,0x58755
    6448:	0041c133          	xor	sp,gp,tp
    644c:	002301b3          	add	gp,t1,sp
    6450:	d943a937          	lui	s2,0xd943a
    6454:	452ac097          	auipc	ra,0x452ac
    6458:	7f606193          	ori	gp,zero,2038
    645c:	1a814193          	xori	gp,sp,424
    6460:	5752e117          	auipc	sp,0x5752e
    6464:	f75cf897          	auipc	a7,0xf75cf
    6468:	0021e1b3          	or	gp,gp,sp
    646c:	7ac81137          	lui	sp,0x7ac81
    6470:	e9dbf097          	auipc	ra,0xe9dbf
    6474:	4b624097          	auipc	ra,0x4b624
    6478:	1fd7a337          	lui	t1,0x1fd7a
    647c:	e461e113          	ori	sp,gp,-442
    6480:	a81186e3          	beq	gp,ra,0x5f0c
    6484:	a89ff0ef          	jal	ra,0x5f0c
    6488:	fe5ef0b7          	lui	ra,0xfe5ef
    648c:	f6b26117          	auipc	sp,0xf6b26
    6490:	7bf16113          	ori	sp,sp,1983
    6494:	3203e097          	auipc	ra,0x3203e
    6498:	001180b3          	add	ra,gp,ra
    649c:	0031f4b3          	and	s1,gp,gp
    64a0:	e2c3b1b7          	lui	gp,0xe2c3b
    64a4:	b7c3f2b7          	lui	t0,0xb7c3f
    64a8:	f3217113          	andi	sp,sp,-206
    64ac:	50b58093          	addi	ra,a1,1291 # 0x6741f657
    64b0:	9c414393          	xori	t2,sp,-1596
    64b4:	e1b801b7          	lui	gp,0xe1b80
    64b8:	d1e1e113          	ori	sp,gp,-738
    64bc:	2dd10313          	addi	t1,sp,733 # 0xfffffffff6b2c769
    64c0:	40308033          	sub	zero,ra,gp
    64c4:	175a1197          	auipc	gp,0x175a1
    64c8:	012172b3          	and	t0,sp,s2
    64cc:	b39fb037          	lui	zero,0xb39fb
    64d0:	002241b3          	xor	gp,tp,sp
    64d4:	bbe4e097          	auipc	ra,0xbbe4e
    64d8:	0000e0b3          	or	ra,ra,zero
    64dc:	52d9c1b7          	lui	gp,0x52d9c
    64e0:	c112f037          	lui	zero,0xc112f
    64e4:	ac4f2317          	auipc	t1,0xac4f2
    64e8:	66d7e0b7          	lui	ra,0x66d7e
    64ec:	8be14093          	xori	ra,sp,-1858
    64f0:	002201b3          	add	gp,tp,sp
    64f4:	21a760b7          	lui	ra,0x21a76
    64f8:	209ff0b7          	lui	ra,0x209ff
    64fc:	03c20113          	addi	sp,tp,60 # 0x7696303c
    6500:	64dea117          	auipc	sp,0x64dea
    6504:	63d3f713          	andi	a4,t2,1597
    6508:	78228663          	beq	t0,sp,0x6c94
    650c:	7880016f          	jal	sp,0x6c94
    6510:	cab2f113          	andi	sp,t0,-853
    6514:	0060c133          	xor	sp,ra,t1
    6518:	4a4341b7          	lui	gp,0x4a434
    651c:	3b60f193          	andi	gp,ra,950
    6520:	fe26e197          	auipc	gp,0xfe26e
    6524:	003340b3          	xor	ra,t1,gp
    6528:	39234293          	xori	t0,t1,914
    652c:	eb510093          	addi	ra,sp,-331 # 0x64df03b5
    6530:	40bde137          	lui	sp,0x40bde
    6534:	0031c033          	xor	zero,gp,gp
    6538:	9c926593          	ori	a1,tp,-1591
    653c:	e393e337          	lui	t1,0xe393e
    6540:	40318033          	sub	zero,gp,gp
    6544:	b35ad197          	auipc	gp,0xb35ad
    6548:	001101b3          	add	gp,sp,ra
    654c:	7e83f193          	andi	gp,t2,2024
    6550:	2a506097          	auipc	ra,0x2a506
    6554:	0020c0b3          	xor	ra,ra,sp
    6558:	db210093          	addi	ra,sp,-590 # 0x40bdddb2
    655c:	a8e1e193          	ori	gp,gp,-1394
    6560:	ab91f093          	andi	ra,gp,-1351
    6564:	5cb1f193          	andi	gp,gp,1483
    6568:	ada75737          	lui	a4,0xada75
    656c:	ff7b01b7          	lui	gp,0xff7b0
    6570:	ef4cfe17          	auipc	t3,0xef4cf
    6574:	80bd8117          	auipc	sp,0x80bd8
    6578:	2e5ab117          	auipc	sp,0x2e5ab
    657c:	603cc017          	auipc	zero,0x603cc
    6580:	7aa16193          	ori	gp,sp,1962
    6584:	00237133          	and	sp,t1,sp
    6588:	b876e237          	lui	tp,0xb876e
    658c:	83517093          	andi	ra,sp,-1995
    6590:	e08ef017          	auipc	zero,0xe08ef
    6594:	26aa00b7          	lui	ra,0x26aa0
    6598:	00000097          	auipc	ra,0x0
    659c:	23808067          	jr	568(ra) # 0x67d0
    65a0:	7b1a0197          	auipc	gp,0x7b1a0
    65a4:	6651e093          	ori	ra,gp,1637
    65a8:	a72a3597          	auipc	a1,0xa72a3
    65ac:	38ae50b7          	lui	ra,0x38ae5
    65b0:	c0b2c113          	xori	sp,t0,-1013
    65b4:	6fe10113          	addi	sp,sp,1790 # 0x2e5b1c76
    65b8:	40200133          	neg	sp,sp
    65bc:	688349b7          	lui	s3,0x68834
    65c0:	007160b3          	or	ra,sp,t2
    65c4:	87d18a17          	auipc	s4,0x87d18
    65c8:	00f10433          	add	s0,sp,a5
    65cc:	6fba82b7          	lui	t0,0x6fba8
    65d0:	95d2d097          	auipc	ra,0x95d2d
    65d4:	b550f293          	andi	t0,ra,-1195
    65d8:	0021c133          	xor	sp,gp,sp
    65dc:	bfa05097          	auipc	ra,0xbfa05
    65e0:	c0d27093          	andi	ra,tp,-1011
    65e4:	40e8d2b7          	lui	t0,0x40e8d
    65e8:	c8d08093          	addi	ra,ra,-883 # 0xffffffffbfa0b269
    65ec:	a52331b7          	lui	gp,0xa5233
    65f0:	0010c0b3          	xor	ra,ra,ra
    65f4:	403281b3          	sub	gp,t0,gp
    65f8:	4868f1b7          	lui	gp,0x4868f
    65fc:	8c2a3297          	auipc	t0,0x8c2a3
    6600:	e9a36317          	auipc	t1,0xe9a36
    6604:	0030f133          	and	sp,ra,gp
    6608:	0160e1b3          	or	gp,ra,s6
    660c:	78514013          	xori	zero,sp,1925
    6610:	c3ca7337          	lui	t1,0xc3ca7
    6614:	2d44a1b7          	lui	gp,0x2d44a
    6618:	409085b3          	sub	a1,ra,s1
    661c:	1962e393          	ori	t2,t0,406
    6620:	005170b3          	and	ra,sp,t0
    6624:	52348e63          	beq	s1,gp,0x6b60
    6628:	538001ef          	jal	gp,0x6b60
    662c:	00fb61b3          	or	gp,s6,a5
    6630:	0df36213          	ori	tp,t1,223
    6634:	f0da70b7          	lui	ra,0xf0da7
    6638:	00210233          	add	tp,sp,sp
    663c:	348173b7          	lui	t2,0x34817
    6640:	9f71f113          	andi	sp,gp,-1545
    6644:	721ef097          	auipc	ra,0x721ef
    6648:	d6204493          	xori	s1,zero,-670
    664c:	0020e233          	or	tp,ra,sp
    6650:	5514d397          	auipc	t2,0x5514d
    6654:	75c2f097          	auipc	ra,0x75c2f
    6658:	ab1ab097          	auipc	ra,0xab1ab
    665c:	10d24213          	xori	tp,tp,269
    6660:	01d14033          	xor	zero,sp,t4
    6664:	009141b3          	xor	gp,sp,s1
    6668:	0060c133          	xor	sp,ra,t1
    666c:	22707213          	andi	tp,zero,551
    6670:	002143b3          	xor	t2,sp,sp
    6674:	f3a24197          	auipc	gp,0xf3a24
    6678:	0031f1b3          	and	gp,gp,gp
    667c:	888b5137          	lui	sp,0x888b5
    6680:	f20040b7          	lui	ra,0xf2004
    6684:	40218133          	sub	sp,gp,sp
    6688:	8860f097          	auipc	ra,0x8860f
    668c:	36d16693          	ori	a3,sp,877
    6690:	1b192017          	auipc	zero,0x1b192
    6694:	c2fd4297          	auipc	t0,0xc2fd4
    6698:	2e51e093          	ori	ra,gp,741
    669c:	4bfed0b7          	lui	ra,0x4bfed
    66a0:	b9c011b7          	lui	gp,0xb9c01
    66a4:	888f8337          	lui	t1,0x888f8
    66a8:	10918313          	addi	t1,gp,265 # 0xffffffffb9c01109
    66ac:	5e60e013          	ori	zero,ra,1510
    66b0:	00317133          	and	sp,sp,gp
    66b4:	00000197          	auipc	gp,0x0
    66b8:	23818367          	jalr	t1,568(gp) # 0x68ec
    66bc:	832fc197          	auipc	gp,0x832fc
    66c0:	fd50a0b7          	lui	ra,0xfd50a
    66c4:	9fcca1b7          	lui	gp,0x9fcca
    66c8:	753be197          	auipc	gp,0x753be
    66cc:	038301b7          	lui	gp,0x3830
    66d0:	97da9117          	auipc	sp,0x97da9
    66d4:	f1b1e093          	ori	ra,gp,-229
    66d8:	954b20b7          	lui	ra,0x954b2
    66dc:	ebde9137          	lui	sp,0xebde9
    66e0:	859050b7          	lui	ra,0x85905
    66e4:	3b91c193          	xori	gp,gp,953
    66e8:	26fc8197          	auipc	gp,0x26fc8
    66ec:	26d56017          	auipc	zero,0x26d56
    66f0:	0021e133          	or	sp,gp,sp
    66f4:	0031f1b3          	and	gp,gp,gp
    66f8:	0030c133          	xor	sp,ra,gp
    66fc:	002101b3          	add	gp,sp,sp
    6700:	a5298117          	auipc	sp,0xa5298
    6704:	3ff5e197          	auipc	gp,0x3ff5e
    6708:	002180b3          	add	ra,gp,sp
    670c:	0031f133          	and	sp,gp,gp
    6710:	59f1e0b7          	lui	ra,0x59f1e
    6714:	6156e137          	lui	sp,0x6156e
    6718:	750ca097          	auipc	ra,0x750ca
    671c:	0051f1b3          	and	gp,gp,t0
    6720:	35972017          	auipc	zero,0x35972
    6724:	0fe0c097          	auipc	ra,0xfe0c
    6728:	3e5922b7          	lui	t0,0x3e592
    672c:	be692317          	auipc	t1,0xbe692
    6730:	001141b3          	xor	gp,sp,ra
    6734:	00014133          	xor	sp,sp,zero
    6738:	00316033          	or	zero,sp,gp
    673c:	734f4337          	lui	t1,0x734f4
    6740:	0953c193          	xori	gp,t2,149
    6744:	751a8137          	lui	sp,0x751a8
    6748:	6e708e63          	beq	ra,t2,0x6e44
    674c:	6f8001ef          	jal	gp,0x6e44
    6750:	9ae0f193          	andi	gp,ra,-1618
    6754:	a7c1f313          	andi	t1,gp,-1412
    6758:	401000b3          	neg	ra,ra
    675c:	c18b8097          	auipc	ra,0xc18b8
    6760:	985430b7          	lui	ra,0x98543
    6764:	2ee91117          	auipc	sp,0x2ee91
    6768:	b37d83b7          	lui	t2,0xb37d8
    676c:	89fcb137          	lui	sp,0x89fcb
    6770:	980d6197          	auipc	gp,0x980d6
    6774:	0030e033          	or	zero,ra,gp
    6778:	ceb7a0b7          	lui	ra,0xceb7a
    677c:	00f36133          	or	sp,t1,a5
    6780:	82695137          	lui	sp,0x82695
    6784:	9b7e9017          	auipc	zero,0x9b7e9
    6788:	0060f133          	and	sp,ra,t1
    678c:	d52541b7          	lui	gp,0xd5254
    6790:	00218033          	add	zero,gp,sp
    6794:	011101b3          	add	gp,sp,a7
    6798:	469101b7          	lui	gp,0x46910
    679c:	0111e693          	ori	a3,gp,17
    67a0:	9af1e093          	ori	ra,gp,-1617
    67a4:	c8d1d097          	auipc	ra,0xc8d1d
    67a8:	002280b3          	add	ra,t0,sp
    67ac:	5aed3117          	auipc	sp,0x5aed3
    67b0:	000101b3          	add	gp,sp,zero
    67b4:	32c6a197          	auipc	gp,0x32c6a
    67b8:	0020e1b3          	or	gp,ra,sp
    67bc:	60e1b137          	lui	sp,0x60e1b
    67c0:	ce67d037          	lui	zero,0xce67d
    67c4:	ed618013          	addi	zero,gp,-298 # 0x32c7068a
    67c8:	6ed10863          	beq	sp,a3,0x6eb8
    67cc:	6ec0086f          	jal	a6,0x6eb8
    67d0:	e233a1b7          	lui	gp,0xe233a
    67d4:	0003e0b3          	or	ra,t2,zero
    67d8:	001082b3          	add	t0,ra,ra
    67dc:	1c616393          	ori	t2,sp,454
    67e0:	068a3117          	auipc	sp,0x68a3
    67e4:	21b67117          	auipc	sp,0x21b67
    67e8:	8de91117          	auipc	sp,0x8de91
    67ec:	c31880b7          	lui	ra,0xc3188
    67f0:	003170b3          	and	ra,sp,gp
    67f4:	57b1c113          	xori	sp,gp,1403
    67f8:	8c8ed1b7          	lui	gp,0x8c8ed
    67fc:	c0d07013          	andi	zero,zero,-1011
    6800:	001ac2b3          	xor	t0,s5,ra
    6804:	ca6a0097          	auipc	ra,0xca6a0
    6808:	d9139297          	auipc	t0,0xd9139
    680c:	17f15137          	lui	sp,0x17f15
    6810:	403e80b3          	sub	ra,t4,gp
    6814:	b9dae137          	lui	sp,0xb9dae
    6818:	4d7de117          	auipc	sp,0x4d7de
    681c:	d79c5137          	lui	sp,0xd79c5
    6820:	2510c093          	xori	ra,ra,593
    6824:	d778a0b7          	lui	ra,0xd778a
    6828:	0023e133          	or	sp,t2,sp
    682c:	7fb2fc13          	andi	s8,t0,2043
    6830:	186ff0b7          	lui	ra,0x186ff
    6834:	f0ba6317          	auipc	t1,0xf0ba6
    6838:	0f10f193          	andi	gp,ra,241
    683c:	4e27f3b7          	lui	t2,0x4e27f
    6840:	289f0197          	auipc	gp,0x289f0
    6844:	7f652237          	lui	tp,0x7f652
    6848:	a74761b7          	lui	gp,0xa7476
    684c:	35e60097          	auipc	ra,0x35e60
    6850:	889d60b7          	lui	ra,0x889d6
    6854:	83d65237          	lui	tp,0x83d65
    6858:	5962e117          	auipc	sp,0x5962e
    685c:	f9e1c793          	xori	a5,gp,-98
    6860:	4c218663          	beq	gp,sp,0x6d2c
    6864:	4c80006f          	j	0x6d2c
    6868:	00b0c0b3          	xor	ra,ra,a1
    686c:	0014f133          	and	sp,s1,ra
    6870:	392ecf17          	auipc	t5,0x392ec
    6874:	f8a37117          	auipc	sp,0xf8a37
    6878:	8a020213          	addi	tp,tp,-1888 # 0xffffffff83d648a0
    687c:	be607493          	andi	s1,zero,-1050
    6880:	fb610113          	addi	sp,sp,-74 # 0xfffffffff8a3d82a
    6884:	0067c133          	xor	sp,a5,t1
    6888:	681441b7          	lui	gp,0x68144
    688c:	864f2197          	auipc	gp,0x864f2
    6890:	0031f133          	and	sp,gp,gp
    6894:	4958d037          	lui	zero,0x4958d
    6898:	f41aa137          	lui	sp,0xf41aa
    689c:	00206133          	or	sp,zero,sp
    68a0:	6352e193          	ori	gp,t0,1589
    68a4:	0010f033          	and	zero,ra,ra
    68a8:	a6fb1137          	lui	sp,0xa6fb1
    68ac:	35aec3b7          	lui	t2,0x35aec
    68b0:	f3f881b7          	lui	gp,0xf3f88
    68b4:	354ec0b7          	lui	ra,0x354ec
    68b8:	cf578397          	auipc	t2,0xcf578
    68bc:	337a91b7          	lui	gp,0x337a9
    68c0:	dc4500b7          	lui	ra,0xdc450
    68c4:	97f46097          	auipc	ra,0x97f46
    68c8:	bdd98097          	auipc	ra,0xbdd98
    68cc:	4ed10d93          	addi	s11,sp,1261 # 0xffffffffa6fb14ed
    68d0:	00116133          	or	sp,sp,ra
    68d4:	59bcd1b7          	lui	gp,0x59bcd
    68d8:	000141b3          	xor	gp,sp,zero
    68dc:	07044117          	auipc	sp,0x7044
    68e0:	011ee197          	auipc	gp,0x11ee
    68e4:	00008313          	mv	t1,ra
    68e8:	0a130263          	beq	t1,ra,0x698c
    68ec:	fe7021b7          	lui	gp,0xfe702
    68f0:	8b24d3b7          	lui	t2,0x8b24d
    68f4:	c56b6237          	lui	tp,0xc56b6
    68f8:	6568f117          	auipc	sp,0x6568f
    68fc:	001361b3          	or	gp,t1,ra
    6900:	002681b3          	add	gp,a3,sp
    6904:	2413c297          	auipc	t0,0x2413c
    6908:	88f770b7          	lui	ra,0x88f77
    690c:	402181b3          	sub	gp,gp,sp
    6910:	00c180b3          	add	ra,gp,a2
    6914:	001160b3          	or	ra,sp,ra
    6918:	ea0a7037          	lui	zero,0xea0a7
    691c:	c1c30213          	addi	tp,t1,-996 # 0xfffffffff0bac450
    6920:	f7dda137          	lui	sp,0xf7dda
    6924:	29fdc0b7          	lui	ra,0x29fdc
    6928:	0025c8b3          	xor	a7,a1,sp
    692c:	403180b3          	sub	ra,gp,gp
    6930:	6200c593          	xori	a1,ra,1568
    6934:	9c804093          	xori	ra,zero,-1592
    6938:	0bda70b7          	lui	ra,0xbda7
    693c:	c65d01b7          	lui	gp,0xc65d0
    6940:	401180b3          	sub	ra,gp,ra
    6944:	0001f1b3          	and	gp,gp,zero
    6948:	c950f137          	lui	sp,0xc950f
    694c:	cc2ff0b7          	lui	ra,0xcc2ff
    6950:	00b1fc33          	and	s8,gp,a1
    6954:	ffea91b7          	lui	gp,0xffea9
    6958:	002001b3          	add	gp,zero,sp
    695c:	9d10e093          	ori	ra,ra,-1583
    6960:	003162b3          	or	t0,sp,gp
    6964:	41110133          	sub	sp,sp,a7
    6968:	00f37133          	and	sp,t1,a5
    696c:	eb946317          	auipc	t1,0xeb946
    6970:	e153f393          	andi	t2,t2,-491
    6974:	23b6c337          	lui	t1,0x23b6c
    6978:	d62e5137          	lui	sp,0xd62e5
    697c:	19649137          	lui	sp,0x19649
    6980:	849541b7          	lui	gp,0x84954
    6984:	00008113          	mv	sp,ra
    6988:	d2110ae3          	beq	sp,ra,0x66bc
    698c:	4691c093          	xori	ra,gp,1129
    6990:	003200b3          	add	ra,tp,gp
    6994:	8ec17193          	andi	gp,sp,-1812
    6998:	004100b3          	add	ra,sp,tp
    699c:	e4786117          	auipc	sp,0xe4786
    69a0:	0032c0b3          	xor	ra,t0,gp
    69a4:	cc317093          	andi	ra,sp,-829
    69a8:	3cbe2197          	auipc	gp,0x3cbe2
    69ac:	5fe30093          	addi	ra,t1,1534 # 0x23b6c5fe
    69b0:	300ef1b7          	lui	gp,0x300ef
    69b4:	3a31f113          	andi	sp,gp,931
    69b8:	29d17097          	auipc	ra,0x29d17
    69bc:	7ed08293          	addi	t0,ra,2029 # 0x29d1e1a5
    69c0:	ccf79217          	auipc	tp,0xccf79
    69c4:	dda9f097          	auipc	ra,0xdda9f
    69c8:	1e70f093          	andi	ra,ra,487
    69cc:	40028133          	sub	sp,t0,zero
    69d0:	e831c693          	xori	a3,gp,-381
    69d4:	d3841297          	auipc	t0,0xd3841
    69d8:	0b8531b7          	lui	gp,0xb853
    69dc:	5c408317          	auipc	t1,0x5c408
    69e0:	7340c117          	auipc	sp,0x7340c
    69e4:	f31b50b7          	lui	ra,0xf31b5
    69e8:	377b9097          	auipc	ra,0x377b9
    69ec:	128ab317          	auipc	t1,0x128ab
    69f0:	ddcd21b7          	lui	gp,0xddcd2
    69f4:	a439e197          	auipc	gp,0xa439e
    69f8:	d1563037          	lui	zero,0xd1563
    69fc:	8c5a9117          	auipc	sp,0x8c5a9
    6a00:	aae23297          	auipc	t0,0xaae23
    6a04:	fd524213          	xori	tp,tp,-43
    6a08:	43f48593          	addi	a1,s1,1087 # 0x2a56243f
    6a0c:	88fde0b7          	lui	ra,0x88fde
    6a10:	93417093          	andi	ra,sp,-1740
    6a14:	0031e1b3          	or	gp,gp,gp
    6a18:	fe537197          	auipc	gp,0xfe537
    6a1c:	00000097          	auipc	ra,0x0
    6a20:	1d408367          	jalr	t1,468(ra) # 0x6bf0
    6a24:	00228e33          	add	t3,t0,sp
    6a28:	0031e1b3          	or	gp,gp,gp
    6a2c:	2353c1b7          	lui	gp,0x2353c
    6a30:	0030efb3          	or	t6,ra,gp
    6a34:	a4b34213          	xori	tp,t1,-1461
    6a38:	d5a8b117          	auipc	sp,0xd5a8b
    6a3c:	9fe20093          	addi	ra,tp,-1538 # 0xffffffffccf7f3be
    6a40:	7a5e90b7          	lui	ra,0x7a5e9
    6a44:	0093c1b3          	xor	gp,t2,s1
    6a48:	00f00133          	add	sp,zero,a5
    6a4c:	2dd61117          	auipc	sp,0x2dd61
    6a50:	a1f10113          	addi	sp,sp,-1505 # 0x2dd6746b
    6a54:	5a417113          	andi	sp,sp,1444
    6a58:	6c78d117          	auipc	sp,0x6c78d
    6a5c:	0072e1b3          	or	gp,t0,t2
    6a60:	7b271197          	auipc	gp,0x7b271
    6a64:	40808333          	sub	t1,ra,s0
    6a68:	24838137          	lui	sp,0x24838
    6a6c:	9c1ee1b7          	lui	gp,0x9c1ee
    6a70:	12f46117          	auipc	sp,0x12f46
    6a74:	3dce81b7          	lui	gp,0x3dce8
    6a78:	f27c0197          	auipc	gp,0xf27c0
    6a7c:	01c601b7          	lui	gp,0x1c60
    6a80:	d2728313          	addi	t1,t0,-729 # 0xffffffffaae29727
    6a84:	869ba137          	lui	sp,0x869ba
    6a88:	0133f113          	andi	sp,t2,19
    6a8c:	8c90c113          	xori	sp,ra,-1847
    6a90:	40528033          	sub	zero,t0,t0
    6a94:	f277c197          	auipc	gp,0xf277c
    6a98:	3801f893          	andi	a7,gp,896
    6a9c:	0010f1b3          	and	gp,ra,ra
    6aa0:	418202b3          	sub	t0,tp,s8
    6aa4:	001181b3          	add	gp,gp,ra
    6aa8:	6791c113          	xori	sp,gp,1657
    6aac:	011143b3          	xor	t2,sp,a7
    6ab0:	0071f1b3          	and	gp,gp,t2
    6ab4:	e1918013          	addi	zero,gp,-487 # 0xfffffffff27828ad
    6ab8:	403701b3          	sub	gp,a4,gp
    6abc:	002140b3          	xor	ra,sp,sp
    6ac0:	00118463          	beq	gp,ra,0x6ac8
    6ac4:	004000ef          	jal	ra,0x6ac8
    6ac8:	fc9f4197          	auipc	gp,0xfc9f4
    6acc:	6b0651b7          	lui	gp,0x6b065
    6ad0:	0021f1b3          	and	gp,gp,sp
    6ad4:	00d041b3          	xor	gp,zero,a3
    6ad8:	56b17013          	andi	zero,sp,1387
    6adc:	08ea31b7          	lui	gp,0x8ea3
    6ae0:	000ee0b3          	or	ra,t4,zero
    6ae4:	0030e133          	or	sp,ra,gp
    6ae8:	8c807193          	andi	gp,zero,-1848
    6aec:	0025f1b3          	and	gp,a1,sp
    6af0:	2b417113          	andi	sp,sp,692
    6af4:	003482b3          	add	t0,s1,gp
    6af8:	d52f0137          	lui	sp,0xd52f0
    6afc:	0010f233          	and	tp,ra,ra
    6b00:	24105037          	lui	zero,0x24105
    6b04:	b4416093          	ori	ra,sp,-1212
    6b08:	cdb1e113          	ori	sp,gp,-805
    6b0c:	49abf137          	lui	sp,0x49abf
    6b10:	9d021037          	lui	zero,0x9d021
    6b14:	40018133          	sub	sp,gp,zero
    6b18:	65cea337          	lui	t1,0x65cea
    6b1c:	772aa197          	auipc	gp,0x772aa
    6b20:	7bcc41b7          	lui	gp,0x7bcc4
    6b24:	e580f113          	andi	sp,ra,-424
    6b28:	001040b3          	xor	ra,zero,ra
    6b2c:	002160b3          	or	ra,sp,sp
    6b30:	583241b7          	lui	gp,0x58324
    6b34:	03ff8097          	auipc	ra,0x3ff8
    6b38:	a8e1e197          	auipc	gp,0xa8e1e
    6b3c:	b8963137          	lui	sp,0xb8963
    6b40:	403080b3          	sub	ra,ra,gp
    6b44:	3061c093          	xori	ra,gp,774
    6b48:	6d5e41b7          	lui	gp,0x6d5e4
    6b4c:	e4f0c393          	xori	t2,ra,-433
    6b50:	0a248317          	auipc	t1,0xa248
    6b54:	69285197          	auipc	gp,0x69285
    6b58:	a43104e3          	beq	sp,gp,0x65a0
    6b5c:	a45ff6ef          	jal	a3,0x65a0
    6b60:	b58c33b7          	lui	t2,0xb58c3
    6b64:	34302097          	auipc	ra,0x34302
    6b68:	39c311b7          	lui	gp,0x39c31
    6b6c:	437941b7          	lui	gp,0x43794
    6b70:	00308eb3          	add	t4,ra,gp
    6b74:	404100b3          	sub	ra,sp,tp
    6b78:	23318113          	addi	sp,gp,563 # 0x43794233
    6b7c:	68008093          	addi	ra,ra,1664 # 0x343091e4
    6b80:	1d906337          	lui	t1,0x1d906
    6b84:	7a40c293          	xori	t0,ra,1956
    6b88:	003160b3          	or	ra,sp,gp
    6b8c:	41df81b7          	lui	gp,0x41df8
    6b90:	4f50c113          	xori	sp,ra,1269
    6b94:	005081b3          	add	gp,ra,t0
    6b98:	a7317193          	andi	gp,sp,-1421
    6b9c:	40308133          	sub	sp,ra,gp
    6ba0:	382942b7          	lui	t0,0x38294
    6ba4:	403080b3          	sub	ra,ra,gp
    6ba8:	1f066097          	auipc	ra,0x1f066
    6bac:	1ae1e093          	ori	ra,gp,430
    6bb0:	d8929097          	auipc	ra,0xd8929
    6bb4:	001080b3          	add	ra,ra,ra
    6bb8:	167fe397          	auipc	t2,0x167fe
    6bbc:	37930e97          	auipc	t4,0x37930
    6bc0:	59e73337          	lui	t1,0x59e73
    6bc4:	867fd1b7          	lui	gp,0x867fd
    6bc8:	7c22c217          	auipc	tp,0x7c22c
    6bcc:	3dcc7317          	auipc	t1,0x3dcc7
    6bd0:	c190f193          	andi	gp,ra,-999
    6bd4:	e46b6197          	auipc	gp,0xe46b6
    6bd8:	00108133          	add	sp,ra,ra
    6bdc:	8e14f193          	andi	gp,s1,-1823
    6be0:	51a3c137          	lui	sp,0x51a3c
    6be4:	f46711b7          	lui	gp,0xf4671
    6be8:	a40182e3          	beqz	gp,0x662c
    6bec:	a41ff3ef          	jal	t2,0x662c
    6bf0:	c3f08193          	addi	gp,ra,-961 # 0xffffffffd892f7ef
    6bf4:	3ecaf117          	auipc	sp,0x3ecaf
    6bf8:	3b56c113          	xori	sp,a3,949
    6bfc:	60c971b7          	lui	gp,0x60c97
    6c00:	da4df217          	auipc	tp,0xda4df
    6c04:	62d14213          	xori	tp,sp,1581
    6c08:	8cada3b7          	lui	t2,0x8cada
    6c0c:	c6637117          	auipc	sp,0xc6637
    6c10:	00118233          	add	tp,gp,ra
    6c14:	8f8ed117          	auipc	sp,0x8f8ed
    6c18:	b1710313          	addi	t1,sp,-1257 # 0xffffffff8f8f372b
    6c1c:	d4500193          	li	gp,-699
    6c20:	cd208793          	addi	a5,ra,-814
    6c24:	5370a217          	auipc	tp,0x5370a
    6c28:	bf2b8117          	auipc	sp,0xbf2b8
    6c2c:	3ef8b597          	auipc	a1,0x3ef8b
    6c30:	987094b7          	lui	s1,0x98709
    6c34:	00114133          	xor	sp,sp,ra
    6c38:	79857317          	auipc	t1,0x79857
    6c3c:	e3773b37          	lui	s6,0xe3773
    6c40:	0021e133          	or	sp,gp,sp
    6c44:	f548f1b7          	lui	gp,0xf548f
    6c48:	003061b3          	or	gp,zero,gp
    6c4c:	a53072b7          	lui	t0,0xa5307
    6c50:	f076b117          	auipc	sp,0xf076b
    6c54:	f0cd8197          	auipc	gp,0xf0cd8
    6c58:	5351c113          	xori	sp,gp,1333
    6c5c:	8720e197          	auipc	gp,0x8720e
    6c60:	78d81137          	lui	sp,0x78d81
    6c64:	001145b3          	xor	a1,sp,ra
    6c68:	45bec097          	auipc	ra,0x45bec
    6c6c:	782fb337          	lui	t1,0x782fb
    6c70:	7677b237          	lui	tp,0x7677b
    6c74:	004101b3          	add	gp,sp,tp
    6c78:	7c341117          	auipc	sp,0x7c341
    6c7c:	a0a7c137          	lui	sp,0xa0a7c
    6c80:	f5305117          	auipc	sp,0xf5305
    6c84:	d3b0c093          	xori	ra,ra,-709
    6c88:	111dd1b7          	lui	gp,0x111dd
    6c8c:	ac7102e3          	beq	sp,t2,0x6750
    6c90:	ac1ff1ef          	jal	gp,0x6750
    6c94:	0022f0b3          	and	ra,t0,sp
    6c98:	36010293          	addi	t0,sp,864 # 0xfffffffff530bfe0
    6c9c:	50437193          	andi	gp,t1,1284
    6ca0:	1490c137          	lui	sp,0x1490c
    6ca4:	d5e0c313          	xori	t1,ra,-674
    6ca8:	33f17193          	andi	gp,sp,831
    6cac:	69a18093          	addi	ra,gp,1690 # 0x111dd69a
    6cb0:	40110133          	sub	sp,sp,ra
    6cb4:	6c96d197          	auipc	gp,0x6c96d
    6cb8:	1771e013          	ori	zero,gp,375
    6cbc:	0752e013          	ori	zero,t0,117
    6cc0:	c31721b7          	lui	gp,0xc3172
    6cc4:	c925f197          	auipc	gp,0xc925f
    6cc8:	0001c033          	xor	zero,gp,zero
    6ccc:	0fa45097          	auipc	ra,0xfa45
    6cd0:	2de20117          	auipc	sp,0x2de20
    6cd4:	706dd097          	auipc	ra,0x706dd
    6cd8:	3b40f093          	andi	ra,ra,948
    6cdc:	d105c193          	xori	gp,a1,-752
    6ce0:	196091b7          	lui	gp,0x19609
    6ce4:	005ff1b3          	and	gp,t6,t0
    6ce8:	a5aed0b7          	lui	ra,0xa5aed
    6cec:	65f16013          	ori	zero,sp,1631
    6cf0:	b83072b7          	lui	t0,0xb8307
    6cf4:	aef09097          	auipc	ra,0xaef09
    6cf8:	b0b543b7          	lui	t2,0xb0b54
    6cfc:	00100033          	add	zero,zero,ra
    6d00:	00316133          	or	sp,sp,gp
    6d04:	0f055097          	auipc	ra,0xf055
    6d08:	ad57d0b7          	lui	ra,0xad57d
    6d0c:	403081b3          	sub	gp,ra,gp
    6d10:	4c5be137          	lui	sp,0x4c5be
    6d14:	399b3237          	lui	tp,0x399b3
    6d18:	a56761b7          	lui	gp,0xa5676
    6d1c:	ff45c237          	lui	tp,0xff45c
    6d20:	40138333          	sub	t1,t2,ra
    6d24:	00008213          	mv	tp,ra
    6d28:	b41200e3          	beq	tp,ra,0x6868
    6d2c:	1e7b10b7          	lui	ra,0x1e7b1
    6d30:	01ca9317          	auipc	t1,0x1ca9
    6d34:	bf40e213          	ori	tp,ra,-1036
    6d38:	402281b3          	sub	gp,t0,sp
    6d3c:	d570d117          	auipc	sp,0xd570d
    6d40:	00617133          	and	sp,sp,t1
    6d44:	3fc14193          	xori	gp,sp,1020
    6d48:	9db1a0b7          	lui	ra,0x9db1a
    6d4c:	6f443197          	auipc	gp,0x6f443
    6d50:	0df06197          	auipc	gp,0xdf06
    6d54:	77dd6097          	auipc	ra,0x77dd6
    6d58:	3cc1c193          	xori	gp,gp,972
    6d5c:	01d10113          	addi	sp,sp,29 # 0xffffffffd5713d59
    6d60:	fd616193          	ori	gp,sp,-42
    6d64:	c72f02b7          	lui	t0,0xc72f0
    6d68:	0011e233          	or	tp,gp,ra
    6d6c:	40308133          	sub	sp,ra,gp
    6d70:	7362d197          	auipc	gp,0x7362d
    6d74:	7e6b31b7          	lui	gp,0x7e6b3
    6d78:	001160b3          	or	ra,sp,ra
    6d7c:	1dc29717          	auipc	a4,0x1dc29
    6d80:	57424017          	auipc	zero,0x57424
    6d84:	e6882137          	lui	sp,0xe6882
    6d88:	c9857097          	auipc	ra,0xc9857
    6d8c:	a1191117          	auipc	sp,0xa1191
    6d90:	403100b3          	sub	ra,sp,gp
    6d94:	6b852097          	auipc	ra,0x6b852
    6d98:	ea61c113          	xori	sp,gp,-346
    6d9c:	2b67c3b7          	lui	t2,0x2b67c
    6da0:	003100b3          	add	ra,sp,gp
    6da4:	0010e333          	or	t1,ra,ra
    6da8:	a701f113          	andi	sp,gp,-1424
    6dac:	9081e0b7          	lui	ra,0x9081e
    6db0:	0030eeb3          	or	t4,ra,gp
    6db4:	00020113          	mv	sp,tp
    6db8:	c64106e3          	beq	sp,tp,0x6a24
    6dbc:	256f8137          	lui	sp,0x256f8
    6dc0:	e62eb1b7          	lui	gp,0xe62eb
    6dc4:	4e926113          	ori	sp,tp,1257
    6dc8:	bfc17113          	andi	sp,sp,-1028
    6dcc:	ba23f117          	auipc	sp,0xba23f
    6dd0:	84077397          	auipc	t2,0x84077
    6dd4:	af5e60b7          	lui	ra,0xaf5e6
    6dd8:	9ed29217          	auipc	tp,0x9ed29
    6ddc:	8873e093          	ori	ra,t2,-1913
    6de0:	0011f333          	and	t1,gp,ra
    6de4:	48a08113          	addi	sp,ra,1162 # 0xffffffffaf5e648a
    6de8:	c4dd9337          	lui	t1,0xc4dd9
    6dec:	fd208493          	addi	s1,ra,-46
    6df0:	0021c3b3          	xor	t2,gp,sp
    6df4:	31837893          	andi	a7,t1,792
    6df8:	7a548093          	addi	ra,s1,1957 # 0xffffffff987097a5
    6dfc:	003140b3          	xor	ra,sp,gp
    6e00:	1f108293          	addi	t0,ra,497
    6e04:	ca414313          	xori	t1,sp,-860
    6e08:	d287e1b7          	lui	gp,0xd287e
    6e0c:	6143a097          	auipc	ra,0x6143a
    6e10:	003180b3          	add	ra,gp,gp
    6e14:	448611b7          	lui	gp,0x44861
    6e18:	003162b3          	or	t0,sp,gp
    6e1c:	fc169137          	lui	sp,0xfc169
    6e20:	79a2f093          	andi	ra,t0,1946
    6e24:	7c96d097          	auipc	ra,0x7c96d
    6e28:	003c00b3          	add	ra,s8,gp
    6e2c:	26610193          	addi	gp,sp,614 # 0xfffffffffc169266
    6e30:	cac86097          	auipc	ra,0xcac86
    6e34:	5eb16337          	lui	t1,0x5eb16
    6e38:	f8804193          	xori	gp,zero,-120
    6e3c:	00008113          	mv	sp,ra
    6e40:	10110463          	beq	sp,ra,0x6f48
    6e44:	bf525237          	lui	tp,0xbf525
    6e48:	405181b3          	sub	gp,gp,t0
    6e4c:	0041e1b3          	or	gp,gp,tp
    6e50:	01654117          	auipc	sp,0x1654
    6e54:	402101b3          	sub	gp,sp,sp
    6e58:	6bbeb1b7          	lui	gp,0x6bbeb
    6e5c:	e4ab9297          	auipc	t0,0xe4ab9
    6e60:	402003b3          	neg	t2,sp
    6e64:	f3914113          	xori	sp,sp,-199
    6e68:	e8eaa037          	lui	zero,0xe8eaa
    6e6c:	fc8c5697          	auipc	a3,0xfc8c5
    6e70:	24410093          	addi	ra,sp,580 # 0x165b094
    6e74:	1cdd7137          	lui	sp,0x1cdd7
    6e78:	003340b3          	xor	ra,t1,gp
    6e7c:	7b226397          	auipc	t2,0x7b226
    6e80:	80ab4193          	xori	gp,s6,-2038
    6e84:	001271b3          	and	gp,tp,ra
    6e88:	9474a197          	auipc	gp,0x9474a
    6e8c:	ea900213          	li	tp,-343
    6e90:	4b610593          	addi	a1,sp,1206 # 0x1cdd74b6
    6e94:	b56ddc17          	auipc	s8,0xb56dd
    6e98:	0f566137          	lui	sp,0xf566
    6e9c:	999b5117          	auipc	sp,0x999b5
    6ea0:	6bc18113          	addi	sp,gp,1724 # 0xffffffff94751544
    6ea4:	ae718113          	addi	sp,gp,-1305
    6ea8:	a09a7197          	auipc	gp,0xa09a7
    6eac:	5ea64117          	auipc	sp,0x5ea64
    6eb0:	00130263          	beq	t1,ra,0x6eb4
    6eb4:	dd4ff1ef          	jal	gp,0x6488
    6eb8:	53972037          	lui	zero,0x53972
    6ebc:	b8f0d117          	auipc	sp,0xb8f0d
    6ec0:	93eb2137          	lui	sp,0x93eb2
    6ec4:	7e3082b7          	lui	t0,0x7e308
    6ec8:	000160b3          	or	ra,sp,zero
    6ecc:	b825b5b7          	lui	a1,0xb825b
    6ed0:	029a2117          	auipc	sp,0x29a2
    6ed4:	0060c0b3          	xor	ra,ra,t1
    6ed8:	72c1e313          	ori	t1,gp,1836
    6edc:	9fe35337          	lui	t1,0x9fe35
    6ee0:	afd16093          	ori	ra,sp,-1283
    6ee4:	e8958117          	auipc	sp,0xe8958
    6ee8:	ee01f193          	andi	gp,gp,-288
    6eec:	92784137          	lui	sp,0x92784
    6ef0:	002241b3          	xor	gp,tp,sp
    6ef4:	0002f133          	and	sp,t0,zero
    6ef8:	7bb991b7          	lui	gp,0x7bb99
    6efc:	0021e1b3          	or	gp,gp,sp
    6f00:	2ed516b7          	lui	a3,0x2ed51
    6f04:	0c483237          	lui	tp,0xc483
    6f08:	53a08193          	addi	gp,ra,1338 # 0xffffffffcac8d36a
    6f0c:	0ff10113          	addi	sp,sp,255 # 0xffffffff927840ff
    6f10:	b27c21b7          	lui	gp,0xb27c2
    6f14:	d6ca0197          	auipc	gp,0xd6ca0
    6f18:	27414113          	xori	sp,sp,628
    6f1c:	7bd0e093          	ori	ra,ra,1981
    6f20:	c620a137          	lui	sp,0xc620a
    6f24:	57b100b7          	lui	ra,0x57b10
    6f28:	40108133          	sub	sp,ra,ra
    6f2c:	ba518013          	addi	zero,gp,-1115 # 0xffffffffd6ca6ab9
    6f30:	6d5bc097          	auipc	ra,0x6d5bc
    6f34:	7600e793          	ori	a5,ra,1888
    6f38:	8a31d117          	auipc	sp,0x8a31d
    6f3c:	6850f993          	andi	s3,ra,1669
    6f40:	00000117          	auipc	sp,0x0
    6f44:	e7c101e7          	jalr	gp,-388(sp) # 0x6dbc
    6f48:	c8006093          	ori	ra,zero,-896
    6f4c:	eb2cb397          	auipc	t2,0xeb2cb
    6f50:	00610233          	add	tp,sp,t1
    6f54:	4f00b117          	auipc	sp,0x4f00b
    6f58:	fb708193          	addi	gp,ra,-73 # 0x6d5c2ee7
    6f5c:	94de51b7          	lui	gp,0x94de5
    6f60:	2eae3137          	lui	sp,0x2eae3
    6f64:	00314133          	xor	sp,sp,gp
    6f68:	40278633          	sub	a2,a5,sp
    6f6c:	a871c093          	xori	ra,gp,-1401
    6f70:	00308133          	add	sp,ra,gp
    6f74:	000100b3          	add	ra,sp,zero
    6f78:	22e083b7          	lui	t2,0x22e08
    6f7c:	0b80f193          	andi	gp,ra,184
    6f80:	0030f133          	and	sp,ra,gp
    6f84:	de77a037          	lui	zero,0xde77a
    6f88:	bb5b90b7          	lui	ra,0xbb5b9
    6f8c:	0034f433          	and	s0,s1,gp
    6f90:	26890cb7          	lui	s9,0x26890
    6f94:	8a206113          	ori	sp,zero,-1886
    6f98:	a4c16093          	ori	ra,sp,-1460
    6f9c:	8fc17113          	andi	sp,sp,-1796
    6fa0:	7ca1f193          	andi	gp,gp,1994
    6fa4:	aa45a3b7          	lui	t2,0xaa45a
    6fa8:	fe3f60b7          	lui	ra,0xfe3f6
    6fac:	aab3c113          	xori	sp,t2,-1365
    6fb0:	002160b3          	or	ra,sp,sp
    6fb4:	5516f1b7          	lui	gp,0x5516f
    6fb8:	afa0c193          	xori	gp,ra,-1286
    6fbc:	17117113          	andi	sp,sp,369
    6fc0:	a0710193          	addi	gp,sp,-1529 # 0x2eae2a07
    6fc4:	dd25b6b7          	lui	a3,0xdd25b
    6fc8:	92cbc197          	auipc	gp,0x92cbc
    6fcc:	54e14193          	xori	gp,sp,1358
    6fd0:	50310c63          	beq	sp,gp,0x74e8
    6fd4:	5140036f          	jal	t1,0x74e8
    6fd8:	16ff70b7          	lui	ra,0x16ff7
    6fdc:	403201b3          	sub	gp,tp,gp
    6fe0:	5bff2237          	lui	tp,0x5bff2
    6fe4:	6b615137          	lui	sp,0x6b615
    6fe8:	dd4ff337          	lui	t1,0xdd4ff
    6fec:	be50e113          	ori	sp,ra,-1051
    6ff0:	acd28213          	addi	tp,t0,-1331 # 0x7e307acd
    6ff4:	0031e0b3          	or	ra,gp,gp
    6ff8:	5f0ad117          	auipc	sp,0x5f0ad
    6ffc:	1de2f0b7          	lui	ra,0x1de2f
    7000:	d3a17e93          	andi	t4,sp,-710
    7004:	0011c333          	xor	t1,gp,ra
    7008:	00017233          	and	tp,sp,zero
    700c:	8989d037          	lui	zero,0x8989d
    7010:	e0105117          	auipc	sp,0xe0105
    7014:	40104117          	auipc	sp,0x40104
    7018:	16717113          	andi	sp,sp,359
    701c:	40200133          	neg	sp,sp
    7020:	53d410b7          	lui	ra,0x53d41
    7024:	3191e113          	ori	sp,gp,793
    7028:	a3699137          	lui	sp,0xa3699
    702c:	5be6e337          	lui	t1,0x5be6e
    7030:	6650c093          	xori	ra,ra,1637
    7034:	0021c133          	xor	sp,gp,sp
    7038:	21d9a1b7          	lui	gp,0x21d9a
    703c:	b72971b7          	lui	gp,0xb7297
    7040:	9a69d797          	auipc	a5,0x9a69d
    7044:	4ab8a097          	auipc	ra,0x4ab8a
    7048:	b6c18493          	addi	s1,gp,-1172 # 0xffffffffb7296b6c
    704c:	ff0a9237          	lui	tp,0xff0a9
    7050:	31f470b7          	lui	ra,0x31f47
    7054:	64118063          	beq	gp,ra,0x7694
    7058:	63c0026f          	jal	tp,0x7694
    705c:	24773117          	auipc	sp,0x24773
    7060:	8434b0b7          	lui	ra,0x8434b
    7064:	b56df397          	auipc	t2,0xb56df
    7068:	dbfd40b7          	lui	ra,0xdbfd4
    706c:	a32e8093          	addi	ra,t4,-1486 # 0x379365ee
    7070:	6417a1b7          	lui	gp,0x6417a
    7074:	43504093          	xori	ra,zero,1077
    7078:	0012e1b3          	or	gp,t0,ra
    707c:	84418113          	addi	sp,gp,-1980 # 0x64179844
    7080:	00137133          	and	sp,t1,ra
    7084:	6472c093          	xori	ra,t0,1607
    7088:	00316133          	or	sp,sp,gp
    708c:	00710133          	add	sp,sp,t2
    7090:	21372197          	auipc	gp,0x21372
    7094:	12474593          	xori	a1,a4,292
    7098:	0170f1b3          	and	gp,ra,s7
    709c:	0011e133          	or	sp,gp,ra
    70a0:	8b10e793          	ori	a5,ra,-1871
    70a4:	12958137          	lui	sp,0x12958
    70a8:	403480b3          	sub	ra,s1,gp
    70ac:	b5cf61b7          	lui	gp,0xb5cf6
    70b0:	0a007f17          	auipc	t5,0xa007
    70b4:	1c30fa93          	andi	s5,ra,451
    70b8:	5ea0f193          	andi	gp,ra,1514
    70bc:	0031e233          	or	tp,gp,gp
    70c0:	14f4a1b7          	lui	gp,0x14f4a
    70c4:	40328233          	sub	tp,t0,gp
    70c8:	0781c113          	xori	sp,gp,120
    70cc:	0014e133          	or	sp,s1,ra
    70d0:	7526c193          	xori	gp,a3,1874
    70d4:	00208033          	add	zero,ra,sp
    70d8:	85618093          	addi	ra,gp,-1962 # 0x14f49856
    70dc:	00620263          	beq	tp,t1,0x70e0
    70e0:	10d009ef          	jal	s3,0x79ec
    70e4:	e95e6197          	auipc	gp,0xe95e6
    70e8:	00308233          	add	tp,ra,gp
    70ec:	e047a3b7          	lui	t2,0xe047a
    70f0:	0036c333          	xor	t1,a3,gp
    70f4:	49d1c093          	xori	ra,gp,1181
    70f8:	bfda30b7          	lui	ra,0xbfda3
    70fc:	401281b3          	sub	gp,t0,ra
    7100:	6751a197          	auipc	gp,0x6751a
    7104:	7e324013          	xori	zero,tp,2019
    7108:	0032e1b3          	or	gp,t0,gp
    710c:	de9da197          	auipc	gp,0xde9da
    7110:	9df5e097          	auipc	ra,0x9df5e
    7114:	24ebf317          	auipc	t1,0x24ebf
    7118:	30318213          	addi	tp,gp,771 # 0xffffffffde9e140f
    711c:	000170b3          	and	ra,sp,zero
    7120:	941a1217          	auipc	tp,0x941a1
    7124:	18ac42b7          	lui	t0,0x18ac4
    7128:	7c06b337          	lui	t1,0x7c06b
    712c:	482da3b7          	lui	t2,0x482da
    7130:	003300b3          	add	ra,t1,gp
    7134:	da8523b7          	lui	t2,0xda852
    7138:	67308093          	addi	ra,ra,1651 # 0xffffffff9df65783
    713c:	0030c133          	xor	sp,ra,gp
    7140:	3ca14193          	xori	gp,sp,970
    7144:	5671e293          	ori	t0,gp,1383
    7148:	0030c133          	xor	sp,ra,gp
    714c:	0001c2b3          	xor	t0,gp,zero
    7150:	0070f033          	and	zero,ra,t2
    7154:	001164b3          	or	s1,sp,ra
    7158:	45c17093          	andi	ra,sp,1116
    715c:	95e160b7          	lui	ra,0x95e16
    7160:	0026f0b3          	and	ra,a3,sp
    7164:	002081b3          	add	gp,ra,sp
    7168:	bc33c197          	auipc	gp,0xbc33c
    716c:	2c04f137          	lui	sp,0x2c04f
    7170:	0168a137          	lui	sp,0x168a
    7174:	00114233          	xor	tp,sp,ra
    7178:	00000013          	nop
    717c:	48000663          	beqz	zero,0x7608
    7180:	4b216117          	auipc	sp,0x4b216
    7184:	3bd78197          	auipc	gp,0x3bd78
    7188:	002100b3          	add	ra,sp,sp
    718c:	da63f193          	andi	gp,t2,-602
    7190:	bdf6a4b7          	lui	s1,0xbdf6a
    7194:	bd0ba117          	auipc	sp,0xbd0ba
    7198:	0031c133          	xor	sp,gp,gp
    719c:	fe5ef1b7          	lui	gp,0xfe5ef
    71a0:	001180b3          	add	ra,gp,ra
    71a4:	3351e113          	ori	sp,gp,821
    71a8:	001161b3          	or	gp,sp,ra
    71ac:	60916193          	ori	gp,sp,1545
    71b0:	0060e133          	or	sp,ra,t1
    71b4:	0030c133          	xor	sp,ra,gp
    71b8:	002181b3          	add	gp,gp,sp
    71bc:	79fb31b7          	lui	gp,0x79fb3
    71c0:	a2243097          	auipc	ra,0xa2243
    71c4:	1c208293          	addi	t0,ra,450 # 0xffffffffa224a382
    71c8:	7181e093          	ori	ra,gp,1816
    71cc:	001142b3          	xor	t0,sp,ra
    71d0:	32628113          	addi	sp,t0,806 # 0x18ac4326
    71d4:	e4158317          	auipc	t1,0xe4158
    71d8:	fa9cc017          	auipc	zero,0xfa9cc
    71dc:	a8104113          	xori	sp,zero,-1407
    71e0:	fd92f1b7          	lui	gp,0xfd92f
    71e4:	9a5c5137          	lui	sp,0x9a5c5
    71e8:	31716113          	ori	sp,sp,791
    71ec:	14333197          	auipc	gp,0x14333
    71f0:	40d08933          	sub	s2,ra,a3
    71f4:	5a9b0297          	auipc	t0,0x5a9b0
    71f8:	eb52f193          	andi	gp,t0,-331
    71fc:	0011e1b3          	or	gp,gp,ra
    7200:	1f0e61b7          	lui	gp,0x1f0e6
    7204:	4d7951b7          	lui	gp,0x4d795
    7208:	e4418ae3          	beq	gp,tp,0x705c
    720c:	e51ff1ef          	jal	gp,0x705c
    7210:	7daf3117          	auipc	sp,0x7daf3
    7214:	86856597          	auipc	a1,0x86856
    7218:	a678d117          	auipc	sp,0xa678d
    721c:	dcb8a117          	auipc	sp,0xdcb8a
    7220:	001145b3          	xor	a1,sp,ra
    7224:	f07c2317          	auipc	t1,0xf07c2
    7228:	3bd350b7          	lui	ra,0x3bd35
    722c:	cb1240b7          	lui	ra,0xcb124
    7230:	e9f17093          	andi	ra,sp,-353
    7234:	5f62d037          	lui	zero,0x5f62d
    7238:	833afb17          	auipc	s6,0x833af
    723c:	7d38b1b7          	lui	gp,0x7d38b
    7240:	d302d197          	auipc	gp,0xd302d
    7244:	22ee2097          	auipc	ra,0x22ee2
    7248:	01e101b3          	add	gp,sp,t5
    724c:	6a010137          	lui	sp,0x6a010
    7250:	6fa42297          	auipc	t0,0x6fa42
    7254:	24814117          	auipc	sp,0x24814
    7258:	6ff2e113          	ori	sp,t0,1791
    725c:	1980e193          	ori	gp,ra,408
    7260:	6047b697          	auipc	a3,0x6047b
    7264:	d80bd137          	lui	sp,0xd80bd
    7268:	719dd197          	auipc	gp,0x719dd
    726c:	e6da7337          	lui	t1,0xe6da7
    7270:	25a261b7          	lui	gp,0x25a26
    7274:	a10b1137          	lui	sp,0xa10b1
    7278:	55843197          	auipc	gp,0x55843
    727c:	e0316193          	ori	gp,sp,-509
    7280:	2ee211b7          	lui	gp,0x2ee21
    7284:	fa175617          	auipc	a2,0xfa175
    7288:	444677b7          	lui	a5,0x44467
    728c:	00220233          	add	tp,tp,sp
    7290:	39225197          	auipc	gp,0x39225
    7294:	ee0186e3          	beqz	gp,0x7180
    7298:	ee9ff36f          	jal	t1,0x7180
    729c:	b23111b7          	lui	gp,0xb2311
    72a0:	be557197          	auipc	gp,0xbe557
    72a4:	9a14b697          	auipc	a3,0x9a14b
    72a8:	0031f033          	and	zero,gp,gp
    72ac:	b63b41b7          	lui	gp,0xb63b4
    72b0:	cf708213          	addi	tp,ra,-777 # 0x22ee8f3b
    72b4:	d25e73b7          	lui	t2,0xd25e7
    72b8:	3e7be0b7          	lui	ra,0x3e7be
    72bc:	455191b7          	lui	gp,0x45519
    72c0:	9904a137          	lui	sp,0x9904a
    72c4:	40208133          	sub	sp,ra,sp
    72c8:	8c805317          	auipc	t1,0x8c805
    72cc:	09042197          	auipc	gp,0x9042
    72d0:	0000f133          	and	sp,ra,zero
    72d4:	00230133          	add	sp,t1,sp
    72d8:	7dc1e013          	ori	zero,gp,2012
    72dc:	15a2c093          	xori	ra,t0,346
    72e0:	d7c89197          	auipc	gp,0xd7c89
    72e4:	32fd5317          	auipc	t1,0x32fd5
    72e8:	e8c4f137          	lui	sp,0xe8c4f
    72ec:	ef75a117          	auipc	sp,0xef75a
    72f0:	17c42197          	auipc	gp,0x17c42
    72f4:	c5bbf137          	lui	sp,0xc5bbf
    72f8:	0030f133          	and	sp,ra,gp
    72fc:	f20ca317          	auipc	t1,0xf20ca
    7300:	3cbeb0b7          	lui	ra,0x3cbeb
    7304:	a4214113          	xori	sp,sp,-1470
    7308:	00407233          	and	tp,zero,tp
    730c:	010180b3          	add	ra,gp,a6
    7310:	001400b3          	add	ra,s0,ra
    7314:	9107d737          	lui	a4,0x9107d
    7318:	1a316397          	auipc	t2,0x1a316
    731c:	66d920b7          	lui	ra,0x66d92
    7320:	26f14113          	xori	sp,sp,623
    7324:	49e08317          	auipc	t1,0x49e08
    7328:	0040f1b3          	and	gp,ra,tp
    732c:	0569f197          	auipc	gp,0x569f
    7330:	00000397          	auipc	t2,0x0
    7334:	ee038067          	jr	-288(t2) # 0x7210
    7338:	0031e133          	or	sp,gp,gp
    733c:	9395c093          	xori	ra,a1,-1735
    7340:	3097c313          	xori	t1,a5,777
    7344:	003002b3          	add	t0,zero,gp
    7348:	fe40c013          	xori	zero,ra,-28
    734c:	0051f133          	and	sp,gp,t0
    7350:	e3946037          	lui	zero,0xe3946
    7354:	cf2a95b7          	lui	a1,0xcf2a9
    7358:	72a0f393          	andi	t2,ra,1834
    735c:	001dc1b3          	xor	gp,s11,ra
    7360:	ece17993          	andi	s3,sp,-306
    7364:	f7330393          	addi	t2,t1,-141 # 0x49e0f297
    7368:	31b02117          	auipc	sp,0x31b02
    736c:	4b86c317          	auipc	t1,0x4b86c
    7370:	0077c2b3          	xor	t0,a5,t2
    7374:	a6730137          	lui	sp,0xa6730
    7378:	85a0f193          	andi	gp,ra,-1958
    737c:	5182b0b7          	lui	ra,0x5182b
    7380:	3ef68113          	addi	sp,a3,1007 # 0xffffffff9a152693
    7384:	c683d197          	auipc	gp,0xc683d
    7388:	003341b3          	xor	gp,t1,gp
    738c:	fa73b097          	auipc	ra,0xfa73b
    7390:	9b00cd37          	lui	s10,0x9b00c
    7394:	35d36193          	ori	gp,t1,861
    7398:	78c02117          	auipc	sp,0x78c02
    739c:	bc92c097          	auipc	ra,0xbc92c
    73a0:	e4f7e597          	auipc	a1,0xe4f7e
    73a4:	e7645137          	lui	sp,0xe7645
    73a8:	ef6ee097          	auipc	ra,0xef6ee
    73ac:	6fe1e113          	ori	sp,gp,1790
    73b0:	bc90e293          	ori	t0,ra,-1079
    73b4:	726cc597          	auipc	a1,0x726cc
    73b8:	00410bb3          	add	s7,sp,tp
    73bc:	31b06097          	auipc	ra,0x31b06
    73c0:	40118133          	sub	sp,gp,ra
    73c4:	46110a63          	beq	sp,ra,0x7838
    73c8:	470001ef          	jal	gp,0x7838
    73cc:	002081b3          	add	gp,ra,sp
    73d0:	56f0e093          	ori	ra,ra,1391
    73d4:	40220013          	addi	zero,tp,1026 # 0xffffffff941a8522
    73d8:	38b09217          	auipc	tp,0x38b09
    73dc:	6c31e093          	ori	ra,gp,1731
    73e0:	d10962b7          	lui	t0,0xd1096
    73e4:	0021ff33          	and	t5,gp,sp
    73e8:	00408133          	add	sp,ra,tp
    73ec:	0051f0b3          	and	ra,gp,t0
    73f0:	2c834093          	xori	ra,t1,712
    73f4:	007301b3          	add	gp,t1,t2
    73f8:	30718113          	addi	sp,gp,775 # 0xffffffffc684468b
    73fc:	02808b93          	addi	s7,ra,40 # 0x31b0d3e4
    7400:	3a8c2497          	auipc	s1,0x3a8c2
    7404:	7b4b6337          	lui	t1,0x7b4b6
    7408:	6a352297          	auipc	t0,0x6a352
    740c:	e3300093          	li	ra,-461
    7410:	0029f2b3          	and	t0,s3,sp
    7414:	0105f133          	and	sp,a1,a6
    7418:	402c3597          	auipc	a1,0x402c3
    741c:	2c08e2b7          	lui	t0,0x2c08e
    7420:	00208133          	add	sp,ra,sp
    7424:	7251c093          	xori	ra,gp,1829
    7428:	a3256297          	auipc	t0,0xa3256
    742c:	9c31f393          	andi	t2,gp,-1597
    7430:	28706493          	ori	s1,zero,647
    7434:	0010e0b3          	or	ra,ra,ra
    7438:	8ac62097          	auipc	ra,0x8ac62
    743c:	8e317113          	andi	sp,sp,-1821
    7440:	001060b3          	or	ra,zero,ra
    7444:	16c0c193          	xori	gp,ra,364
    7448:	0019c333          	xor	t1,s3,ra
    744c:	5f220093          	addi	ra,tp,1522 # 0x38b109ca
    7450:	a8814997          	auipc	s3,0xa8814
    7454:	dbd73117          	auipc	sp,0xdbd73
    7458:	b6ec9297          	auipc	t0,0xb6ec9
    745c:	00010113          	mv	sp,sp
    7460:	46210863          	beq	sp,sp,0x78d0
    7464:	ebff30b7          	lui	ra,0xebff3
    7468:	75f33017          	auipc	zero,0x75f33
    746c:	1760c093          	xori	ra,ra,374
    7470:	8c18a317          	auipc	t1,0x8c18a
    7474:	6a424093          	xori	ra,tp,1700
    7478:	6ef06093          	ori	ra,zero,1775
    747c:	0d81e193          	ori	gp,gp,216
    7480:	69316193          	ori	gp,sp,1683
    7484:	49a20197          	auipc	gp,0x49a20
    7488:	2e428293          	addi	t0,t0,740 # 0xffffffffb6ed073c
    748c:	43316093          	ori	ra,sp,1075
    7490:	3ae3b1b7          	lui	gp,0x3ae3b
    7494:	a1669337          	lui	t1,0xa1669
    7498:	a5757317          	auipc	t1,0xa5757
    749c:	46e6e0b7          	lui	ra,0x46e6e
    74a0:	81627113          	andi	sp,tp,-2026
    74a4:	f0d042b7          	lui	t0,0xf0d04
    74a8:	ebe0e013          	ori	zero,ra,-322
    74ac:	eb1444b7          	lui	s1,0xeb144
    74b0:	f0f13097          	auipc	ra,0xf0f13
    74b4:	4629ff37          	lui	t5,0x4629f
    74b8:	43599297          	auipc	t0,0x43599
    74bc:	00310133          	add	sp,sp,gp
    74c0:	001170b3          	and	ra,sp,ra
    74c4:	6e62f093          	andi	ra,t0,1766
    74c8:	aec2a137          	lui	sp,0xaec2a
    74cc:	fb4dd0b7          	lui	ra,0xfb4dd
    74d0:	40d100b3          	sub	ra,sp,a3
    74d4:	2089e197          	auipc	gp,0x2089e
    74d8:	1a1720b7          	lui	ra,0x1a172
    74dc:	070dc193          	xori	gp,s11,112
    74e0:	00438263          	beq	t2,tp,0x74e4
    74e4:	1f90036f          	jal	t1,0x7edc
    74e8:	b7c180b7          	lui	ra,0xb7c18
    74ec:	21417c93          	andi	s9,sp,532
    74f0:	003b81b3          	add	gp,s7,gp
    74f4:	ce2e3117          	auipc	sp,0xce2e3
    74f8:	7fa54013          	xori	zero,a0,2042
    74fc:	003370b3          	and	ra,t1,gp
    7500:	cc034113          	xori	sp,t1,-832
    7504:	ab673297          	auipc	t0,0xab673
    7508:	13c98137          	lui	sp,0x13c98
    750c:	bff590b7          	lui	ra,0xbff59
    7510:	4d208113          	addi	sp,ra,1234 # 0xffffffffbff594d2
    7514:	97a66137          	lui	sp,0x97a66
    7518:	0192c0b3          	xor	ra,t0,s9
    751c:	a4cef337          	lui	t1,0xa4cef
    7520:	8d5c60b7          	lui	ra,0x8d5c6
    7524:	855c2197          	auipc	gp,0x855c2
    7528:	308d4197          	auipc	gp,0x308d4
    752c:	ddad9197          	auipc	gp,0xddad9
    7530:	00110233          	add	tp,sp,ra
    7534:	3595a097          	auipc	ra,0x3595a
    7538:	0021ea33          	or	s4,gp,sp
    753c:	3f106117          	auipc	sp,0x3f106
    7540:	c709c117          	auipc	sp,0xc709c
    7544:	578a7097          	auipc	ra,0x578a7
    7548:	a8916193          	ori	gp,sp,-1399
    754c:	c578b097          	auipc	ra,0xc578b
    7550:	0033e0b3          	or	ra,t2,gp
    7554:	36504093          	xori	ra,zero,869
    7558:	0033f0b3          	and	ra,t2,gp
    755c:	f211d097          	auipc	ra,0xf211d
    7560:	00117333          	and	t1,sp,ra
    7564:	199d0117          	auipc	sp,0x199d0
    7568:	0010e1b3          	or	gp,ra,ra
    756c:	dc6186e3          	beq	gp,t1,0x7338
    7570:	dc9ff1ef          	jal	gp,0x7338
    7574:	8944e193          	ori	gp,s1,-1900
    7578:	5181e393          	ori	t2,gp,1304
    757c:	0021f7b3          	and	a5,gp,sp
    7580:	8e627193          	andi	gp,tp,-1818
    7584:	218ea1b7          	lui	gp,0x218ea
    7588:	562731b7          	lui	gp,0x56273
    758c:	11a14097          	auipc	ra,0x11a14
    7590:	0031e133          	or	sp,gp,gp
    7594:	002b00b3          	add	ra,s6,sp
    7598:	8cc0e093          	ori	ra,ra,-1844
    759c:	3c32b6b7          	lui	a3,0x3c32b
    75a0:	ec7d32b7          	lui	t0,0xec7d3
    75a4:	4ae47197          	auipc	gp,0x4ae47
    75a8:	a3691137          	lui	sp,0xa3691
    75ac:	2c61f213          	andi	tp,gp,710
    75b0:	0ce30293          	addi	t0,t1,206 # 0xffffffffa4cef0ce
    75b4:	00224133          	xor	sp,tp,sp
    75b8:	cf476137          	lui	sp,0xcf476
    75bc:	a4f2f593          	andi	a1,t0,-1457
    75c0:	b7c0e093          	ori	ra,ra,-1156
    75c4:	5a3bb117          	auipc	sp,0x5a3bb
    75c8:	8840e137          	lui	sp,0x8840e
    75cc:	76929017          	auipc	zero,0x76929
    75d0:	00117133          	and	sp,sp,ra
    75d4:	0070c0b3          	xor	ra,ra,t2
    75d8:	3ad090b7          	lui	ra,0x3ad09
    75dc:	00208133          	add	sp,ra,sp
    75e0:	145060b7          	lui	ra,0x14506
    75e4:	4510a1b7          	lui	gp,0x4510a
    75e8:	8d1eb037          	lui	zero,0x8d1eb
    75ec:	3d06a017          	auipc	zero,0x3d06a
    75f0:	4f279137          	lui	sp,0x4f279
    75f4:	d9263117          	auipc	sp,0xd9263
    75f8:	5363c397          	auipc	t2,0x5363c
    75fc:	a3642197          	auipc	gp,0xa3642
    7600:	00008193          	mv	gp,ra
    7604:	1a118463          	beq	gp,ra,0x77ac
    7608:	b871e113          	ori	sp,gp,-1145
    760c:	f50880b7          	lui	ra,0xf5088
    7610:	716240b7          	lui	ra,0x71624
    7614:	0024c1b3          	xor	gp,s1,sp
    7618:	26f36217          	auipc	tp,0x26f36
    761c:	9864d117          	auipc	sp,0x9864d
    7620:	f4924197          	auipc	gp,0xf4924
    7624:	003107b3          	add	a5,sp,gp
    7628:	002c7133          	and	sp,s8,sp
    762c:	1fb1c093          	xori	ra,gp,507
    7630:	15e14193          	xori	gp,sp,350
    7634:	c1330197          	auipc	gp,0xc1330
    7638:	5f6b1037          	lui	zero,0x5f6b1
    763c:	bd206113          	ori	sp,zero,-1070
    7640:	24a9c0b7          	lui	ra,0x24a9c
    7644:	5ab18093          	addi	ra,gp,1451 # 0xffffffffc1337bdf
    7648:	045ac193          	xori	gp,s5,69
    764c:	cfc06013          	ori	zero,zero,-772
    7650:	7328c113          	xori	sp,a7,1842
    7654:	0690f093          	andi	ra,ra,105
    7658:	f9028117          	auipc	sp,0xf9028
    765c:	001870b3          	and	ra,a6,ra
    7660:	37e1e193          	ori	gp,gp,894
    7664:	3514a137          	lui	sp,0x3514a
    7668:	003160b3          	or	ra,sp,gp
    766c:	472a21b7          	lui	gp,0x472a2
    7670:	bce1c113          	xori	sp,gp,-1074
    7674:	21923097          	auipc	ra,0x21923
    7678:	091d1097          	auipc	ra,0x91d1
    767c:	a310f093          	andi	ra,ra,-1487
    7680:	b937b1b7          	lui	gp,0xb937b
    7684:	00067333          	and	t1,a2,zero
    7688:	dc1f84b7          	lui	s1,0xdc1f8
    768c:	00000197          	auipc	gp,0x0
    7690:	ee8181e7          	jalr	gp,-280(gp) # 0x7574
    7694:	dcedf137          	lui	sp,0xdcedf
    7698:	0030c0b3          	xor	ra,ra,gp
    769c:	8a6c50b7          	lui	ra,0x8a6c5
    76a0:	001106b3          	add	a3,sp,ra
    76a4:	ace18193          	addi	gp,gp,-1330
    76a8:	ea696097          	auipc	ra,0xea696
    76ac:	8b4eb337          	lui	t1,0x8b4eb
    76b0:	b87c50b7          	lui	ra,0xb87c5
    76b4:	7c22e013          	ori	zero,t0,1986
    76b8:	f5567037          	lui	zero,0xf5567
    76bc:	bbd21237          	lui	tp,0xbbd21
    76c0:	362351b7          	lui	gp,0x36235
    76c4:	7640d037          	lui	zero,0x7640d
    76c8:	20b22797          	auipc	a5,0x20b22
    76cc:	31259097          	auipc	ra,0x31259
    76d0:	35018193          	addi	gp,gp,848 # 0x36235350
    76d4:	e1d56197          	auipc	gp,0xe1d56
    76d8:	d1f17893          	andi	a7,sp,-737
    76dc:	60f55137          	lui	sp,0x60f55
    76e0:	4b86b237          	lui	tp,0x4b86b
    76e4:	c43141b7          	lui	gp,0xc4314
    76e8:	f61c4117          	auipc	sp,0xf61c4
    76ec:	00455037          	lui	zero,0x455
    76f0:	0030f0b3          	and	ra,ra,gp
    76f4:	ca542097          	auipc	ra,0xca542
    76f8:	c2c36113          	ori	sp,t1,-980
    76fc:	ba73c117          	auipc	sp,0xba73c
    7700:	0030f0b3          	and	ra,ra,gp
    7704:	00128133          	add	sp,t0,ra
    7708:	40008133          	sub	sp,ra,zero
    770c:	2cb170b7          	lui	ra,0x2cb17
    7710:	eba8c197          	auipc	gp,0xeba8c
    7714:	3eb2a097          	auipc	ra,0x3eb2a
    7718:	99ff5097          	auipc	ra,0x99ff5
    771c:	26250097          	auipc	ra,0x26250
    7720:	000160b3          	or	ra,sp,zero
    7724:	6fc0c113          	xori	sp,ra,1788
    7728:	00010a13          	mv	s4,sp
    772c:	342a0e63          	beq	s4,sp,0x7a88
    7730:	4c618213          	addi	tp,gp,1222 # 0xffffffffeba93bd6
    7734:	978aa117          	auipc	sp,0x978aa
    7738:	b86cd197          	auipc	gp,0xb86cd
    773c:	7b918113          	addi	sp,gp,1977 # 0xffffffffb86d4ef1
    7740:	9166f0b7          	lui	ra,0x9166f
    7744:	00d2e1b3          	or	gp,t0,a3
    7748:	003083b3          	add	t2,ra,gp
    774c:	ced70117          	auipc	sp,0xced70
    7750:	f3b787b7          	lui	a5,0xf3b78
    7754:	b8b10113          	addi	sp,sp,-1141 # 0xffffffffced772d7
    7758:	003161b3          	or	gp,sp,gp
    775c:	0030c933          	xor	s2,ra,gp
    7760:	c572f113          	andi	sp,t0,-937
    7764:	4ae5e117          	auipc	sp,0x4ae5e
    7768:	4b36c197          	auipc	gp,0x4b36c
    776c:	00127133          	and	sp,tp,ra
    7770:	d5f1e093          	ori	ra,gp,-673
    7774:	e460c093          	xori	ra,ra,-442
    7778:	0b924113          	xori	sp,tp,185
    777c:	c4408013          	addi	zero,ra,-956 # 0xffffffff9166ec44
    7780:	40368db3          	sub	s11,a3,gp
    7784:	26b471b7          	lui	gp,0x26b47
    7788:	0022e0b3          	or	ra,t0,sp
    778c:	a2f1e093          	ori	ra,gp,-1489
    7790:	f4a3e313          	ori	t1,t2,-182
    7794:	c1926313          	ori	t1,tp,-999
    7798:	e6124113          	xori	sp,tp,-415
    779c:	0070c133          	xor	sp,ra,t2
    77a0:	84748137          	lui	sp,0x84748
    77a4:	00000193          	li	gp,0
    77a8:	92018ee3          	beqz	gp,0x70e4
    77ac:	d5119137          	lui	sp,0xd5119
    77b0:	e9a1d3b7          	lui	t2,0xe9a1d
    77b4:	e1bea117          	auipc	sp,0xe1bea
    77b8:	000181b3          	add	gp,gp,zero
    77bc:	9f36b197          	auipc	gp,0x9f36b
    77c0:	ad245037          	lui	zero,0xad245
    77c4:	4491c093          	xori	ra,gp,1097
    77c8:	5480f093          	andi	ra,ra,1352
    77cc:	66d08117          	auipc	sp,0x66d08
    77d0:	94a661b7          	lui	gp,0x94a66
    77d4:	f0f6c093          	xori	ra,a3,-241
    77d8:	4e3012b7          	lui	t0,0x4e301
    77dc:	003080b3          	add	ra,ra,gp
    77e0:	0030c133          	xor	sp,ra,gp
    77e4:	002040b3          	xor	ra,zero,sp
    77e8:	0033c1b3          	xor	gp,t2,gp
    77ec:	6ce74137          	lui	sp,0x6ce74
    77f0:	00118133          	add	sp,gp,ra
    77f4:	eef16113          	ori	sp,sp,-273
    77f8:	003171b3          	and	gp,sp,gp
    77fc:	2261c113          	xori	sp,gp,550
    7800:	39618137          	lui	sp,0x39618
    7804:	f33b6117          	auipc	sp,0xf33b6
    7808:	40638133          	sub	sp,t2,t1
    780c:	e29b9197          	auipc	gp,0xe29b9
    7810:	d3675337          	lui	t1,0xd3675
    7814:	0020c133          	xor	sp,ra,sp
    7818:	0035f4b3          	and	s1,a1,gp
    781c:	3a794137          	lui	sp,0x3a794
    7820:	00300133          	add	sp,zero,gp
    7824:	e4754c37          	lui	s8,0xe4754
    7828:	73acd1b7          	lui	gp,0x73acd
    782c:	e3d1c113          	xori	sp,gp,-451
    7830:	b8120ee3          	beq	tp,ra,0x73cc
    7834:	b99ff1ef          	jal	gp,0x73cc
    7838:	403101b3          	sub	gp,sp,gp
    783c:	0775f0b7          	lui	ra,0x775f
    7840:	5d610193          	addi	gp,sp,1494 # 0x3a7945d6
    7844:	342d0117          	auipc	sp,0x342d0
    7848:	5fdca117          	auipc	sp,0x5fdca
    784c:	484dc197          	auipc	gp,0x484dc
    7850:	7fb9c097          	auipc	ra,0x7fb9c
    7854:	60f1f093          	andi	ra,gp,1551
    7858:	10b17393          	andi	t2,sp,267
    785c:	c6ee1197          	auipc	gp,0xc6ee1
    7860:	6c498097          	auipc	ra,0x6c498
    7864:	00316133          	or	sp,sp,gp
    7868:	0020f133          	and	sp,ra,sp
    786c:	63d44497          	auipc	s1,0x63d44
    7870:	2b357197          	auipc	gp,0x2b357
    7874:	44fc01b7          	lui	gp,0x44fc0
    7878:	b6f5f0b7          	lui	ra,0xb6f5f
    787c:	446dd137          	lui	sp,0x446dd
    7880:	c7618093          	addi	ra,gp,-906 # 0x44fbfc76
    7884:	040d30b7          	lui	ra,0x40d3
    7888:	0032e1b3          	or	gp,t0,gp
    788c:	00230133          	add	sp,t1,sp
    7890:	43f0c097          	auipc	ra,0x43f0c
    7894:	545fcc17          	auipc	s8,0x545fc
    7898:	12e810b7          	lui	ra,0x12e81
    789c:	00027933          	and	s2,tp,zero
    78a0:	66a341b7          	lui	gp,0x66a34
    78a4:	82300193          	li	gp,-2013
    78a8:	c2c7f137          	lui	sp,0xc2c7f
    78ac:	ed53c697          	auipc	a3,0xed53c
    78b0:	af3961b7          	lui	gp,0xaf396
    78b4:	2e5e93b7          	lui	t2,0x2e5e9
    78b8:	b3e420b7          	lui	ra,0xb3e42
    78bc:	0c659097          	auipc	ra,0xc659
    78c0:	19ab5337          	lui	t1,0x19ab5
    78c4:	13d08113          	addi	sp,ra,317 # 0xc6609f9
    78c8:	08110c63          	beq	sp,ra,0x7960
    78cc:	094003ef          	jal	t2,0x7960
    78d0:	002142b3          	xor	t0,sp,sp
    78d4:	c3427137          	lui	sp,0xc3427
    78d8:	004161b3          	or	gp,sp,tp
    78dc:	e9622097          	auipc	ra,0xe9622
    78e0:	0001c0b3          	xor	ra,gp,zero
    78e4:	4f21b117          	auipc	sp,0x4f21b
    78e8:	0033c1b3          	xor	gp,t2,gp
    78ec:	00218133          	add	sp,gp,sp
    78f0:	ffd0f213          	andi	tp,ra,-3
    78f4:	d3bd0313          	addi	t1,s10,-709 # 0xffffffff9b00bd3b
    78f8:	d845c097          	auipc	ra,0xd845c
    78fc:	4591f213          	andi	tp,gp,1113
    7900:	0030e233          	or	tp,ra,gp
    7904:	42316313          	ori	t1,sp,1059
    7908:	a161e113          	ori	sp,gp,-1514
    790c:	07aef197          	auipc	gp,0x7aef
    7910:	c592e113          	ori	sp,t0,-935
    7914:	dfa65117          	auipc	sp,0xdfa65
    7918:	229fe137          	lui	sp,0x229fe
    791c:	f912d097          	auipc	ra,0xf912d
    7920:	302103b7          	lui	t2,0x30210
    7924:	cf692017          	auipc	zero,0xcf692
    7928:	2be10193          	addi	gp,sp,702 # 0x229fe2be
    792c:	7a295117          	auipc	sp,0x7a295
    7930:	0123f0b7          	lui	ra,0x123f
    7934:	59d08093          	addi	ra,ra,1437 # 0x123f59d
    7938:	752de113          	ori	sp,s11,1874
    793c:	e4d6f1b7          	lui	gp,0xe4d6f
    7940:	007180b3          	add	ra,gp,t2
    7944:	00310333          	add	t1,sp,gp
    7948:	72c6d197          	auipc	gp,0x72c6d
    794c:	453d9497          	auipc	s1,0x453d9
    7950:	b560e193          	ori	gp,ra,-1194
    7954:	466a8097          	auipc	ra,0x466a8
    7958:	00610263          	beq	sp,t1,0x795c
    795c:	e7cff06f          	j	0x6fd8
    7960:	07d06637          	lui	a2,0x7d06
    7964:	f9e0c493          	xori	s1,ra,-98
    7968:	0010c4b3          	xor	s1,ra,ra
    796c:	14c2e117          	auipc	sp,0x14c2e
    7970:	8530f113          	andi	sp,ra,-1965
    7974:	9d90e113          	ori	sp,ra,-1575
    7978:	0010c133          	xor	sp,ra,ra
    797c:	ec77c097          	auipc	ra,0xec77c
    7980:	c6b830b7          	lui	ra,0xc6b83
    7984:	001180b3          	add	ra,gp,ra
    7988:	8f916093          	ori	ra,sp,-1799
    798c:	c494c1b7          	lui	gp,0xc494c
    7990:	aaf10093          	addi	ra,sp,-1361 # 0x14c3541b
    7994:	dbd1c193          	xori	gp,gp,-579
    7998:	fa264017          	auipc	zero,0xfa264
    799c:	57b9d1b7          	lui	gp,0x57b9d
    79a0:	087162b7          	lui	t0,0x8716
    79a4:	0466d1b7          	lui	gp,0x466d
    79a8:	ee7b4297          	auipc	t0,0xee7b4
    79ac:	003007b3          	add	a5,zero,gp
    79b0:	0010c0b3          	xor	ra,ra,ra
    79b4:	218cf1b7          	lui	gp,0x218cf
    79b8:	002273b3          	and	t2,tp,sp
    79bc:	40310133          	sub	sp,sp,gp
    79c0:	401102b3          	sub	t0,sp,ra
    79c4:	00b2f1b3          	and	gp,t0,a1
    79c8:	20b9d197          	auipc	gp,0x20b9d
    79cc:	406101b3          	sub	gp,sp,t1
    79d0:	fde0c113          	xori	sp,ra,-34
    79d4:	9641c213          	xori	tp,gp,-1692
    79d8:	9512d197          	auipc	gp,0x9512d
    79dc:	407781b3          	sub	gp,a5,t2
    79e0:	8b36f897          	auipc	a7,0x8b36f
    79e4:	d43206e3          	beq	tp,gp,0x7730
    79e8:	d49ff36f          	jal	t1,0x7730
    79ec:	2932b0b7          	lui	ra,0x2932b
    79f0:	cd39e237          	lui	tp,0xcd39e
    79f4:	001071b3          	and	gp,zero,ra
    79f8:	0051f0b3          	and	ra,gp,t0
    79fc:	951141b7          	lui	gp,0x95114
    7a00:	460216b7          	lui	a3,0x46021
    7a04:	2ac08113          	addi	sp,ra,684 # 0x2932b2ac
    7a08:	0010e0b3          	or	ra,ra,ra
    7a0c:	c6da2097          	auipc	ra,0xc6da2
    7a10:	d9614113          	xori	sp,sp,-618
    7a14:	631be297          	auipc	t0,0x631be
    7a18:	04d48117          	auipc	sp,0x4d48
    7a1c:	38e34193          	xori	gp,t1,910
    7a20:	d0ffe097          	auipc	ra,0xd0ffe
    7a24:	8665d697          	auipc	a3,0x8665d
    7a28:	c7284197          	auipc	gp,0xc7284
    7a2c:	4520c113          	xori	sp,ra,1106
    7a30:	d6c38113          	addi	sp,t2,-660 # 0x3020fd6c
    7a34:	2eeb40b7          	lui	ra,0x2eeb4
    7a38:	001140b3          	xor	ra,sp,ra
    7a3c:	007ec0b3          	xor	ra,t4,t2
    7a40:	80308213          	addi	tp,ra,-2045 # 0x2eeb3803
    7a44:	96957097          	auipc	ra,0x96957
    7a48:	400386b3          	sub	a3,t2,zero
    7a4c:	7320f113          	andi	sp,ra,1842
    7a50:	8a7d5097          	auipc	ra,0x8a7d5
    7a54:	c3718113          	addi	sp,gp,-969 # 0xffffffffc728b65f
    7a58:	6fb810b7          	lui	ra,0x6fb81
    7a5c:	6710c137          	lui	sp,0x6710c
    7a60:	c4210113          	addi	sp,sp,-958 # 0x6710bc42
    7a64:	869e51b7          	lui	gp,0x869e5
    7a68:	f4515097          	auipc	ra,0xf4515
    7a6c:	3a9630b7          	lui	ra,0x3a963
    7a70:	40100333          	neg	t1,ra
    7a74:	f2a16113          	ori	sp,sp,-214
    7a78:	62e83c37          	lui	s8,0x62e83
    7a7c:	b1546197          	auipc	gp,0xb1546
    7a80:	00008393          	mv	t2,ra
    7a84:	9e1380e3          	beq	t2,ra,0x7464
    7a88:	9d928117          	auipc	sp,0x9d928
    7a8c:	0030e133          	or	sp,ra,gp
    7a90:	1037b797          	auipc	a5,0x1037b
    7a94:	534a20b7          	lui	ra,0x534a2
    7a98:	401081b3          	sub	gp,ra,ra
    7a9c:	24696137          	lui	sp,0x24696
    7aa0:	946b40b7          	lui	ra,0x946b4
    7aa4:	4360c093          	xori	ra,ra,1078
    7aa8:	00314233          	xor	tp,sp,gp
    7aac:	c9c1e293          	ori	t0,gp,-868
    7ab0:	1ae24113          	xori	sp,tp,430
    7ab4:	0020ff33          	and	t5,ra,sp
    7ab8:	eb694117          	auipc	sp,0xeb694
    7abc:	54c812b7          	lui	t0,0x54c81
    7ac0:	31a423b7          	lui	t2,0x31a42
    7ac4:	001180b3          	add	ra,gp,ra
    7ac8:	7dd5a397          	auipc	t2,0x7dd5a
    7acc:	5613e213          	ori	tp,t2,1377
    7ad0:	61916213          	ori	tp,sp,1561
    7ad4:	6b8cf193          	andi	gp,s9,1720
    7ad8:	234fa117          	auipc	sp,0x234fa
    7adc:	e7b0e113          	ori	sp,ra,-389
    7ae0:	01010233          	add	tp,sp,a6
    7ae4:	373bc1b7          	lui	gp,0x373bc
    7ae8:	13116393          	ori	t2,sp,305
    7aec:	880770b7          	lui	ra,0x88077
    7af0:	ccb08193          	addi	gp,ra,-821 # 0xffffffff88076ccb
    7af4:	15d180b7          	lui	ra,0x15d18
    7af8:	00217133          	and	sp,sp,sp
    7afc:	1a31c193          	xori	gp,gp,419
    7b00:	9ec6f097          	auipc	ra,0x9ec6f
    7b04:	617d4113          	xori	sp,s10,1559
    7b08:	4b208113          	addi	sp,ra,1202 # 0xffffffff9ec76fb2
    7b0c:	003060b3          	or	ra,zero,gp
    7b10:	45b7f1b7          	lui	gp,0x45b7f
    7b14:	97102197          	auipc	gp,0x97102
    7b18:	00310263          	beq	sp,gp,0x7b1c
    7b1c:	f80ff3ef          	jal	t2,0x729c
    7b20:	0017fe33          	and	t3,a5,ra
    7b24:	6f0414b7          	lui	s1,0x6f041
    7b28:	2bb7b0b7          	lui	ra,0x2bb7b
    7b2c:	403180b3          	sub	ra,gp,gp
    7b30:	20210093          	addi	ra,sp,514 # 0x23501cda
    7b34:	51d27093          	andi	ra,tp,1309
    7b38:	40210ab3          	sub	s5,sp,sp
    7b3c:	81591197          	auipc	gp,0x81591
    7b40:	8ff6e117          	auipc	sp,0x8ff6e
    7b44:	0010f233          	and	tp,ra,ra
    7b48:	002060b3          	or	ra,zero,sp
    7b4c:	85e5c037          	lui	zero,0x85e5c
    7b50:	6f20e113          	ori	sp,ra,1778
    7b54:	2c4f8097          	auipc	ra,0x2c4f8
    7b58:	402080b3          	sub	ra,ra,sp
    7b5c:	4385b137          	lui	sp,0x4385b
    7b60:	f7816197          	auipc	gp,0xf7816
    7b64:	d4761097          	auipc	ra,0xd4761
    7b68:	59eea0b7          	lui	ra,0x59eea
    7b6c:	0020e133          	or	sp,ra,sp
    7b70:	5997e317          	auipc	t1,0x5997e
    7b74:	c720f193          	andi	gp,ra,-910
    7b78:	6dd73197          	auipc	gp,0x6dd73
    7b7c:	2c727093          	andi	ra,tp,711
    7b80:	a242e117          	auipc	sp,0xa242e
    7b84:	0020f133          	and	sp,ra,sp
    7b88:	9ae08093          	addi	ra,ra,-1618 # 0x59ee99ae
    7b8c:	fdf3f097          	auipc	ra,0xfdf3f
    7b90:	35e1e0b7          	lui	ra,0x35e1e
    7b94:	e469c0b7          	lui	ra,0xe469c
    7b98:	80b58197          	auipc	gp,0x80b58
    7b9c:	c1a08413          	addi	s0,ra,-998 # 0xffffffffe469bc1a
    7ba0:	0e30c213          	xori	tp,ra,227
    7ba4:	00018713          	mv	a4,gp
    7ba8:	58370063          	beq	a4,gp,0x8128
    7bac:	07fa91b7          	lui	gp,0x7fa9
    7bb0:	71e1e0b7          	lui	ra,0x71e1e
    7bb4:	0052f3b3          	and	t2,t0,t0
    7bb8:	003071b3          	and	gp,zero,gp
    7bbc:	261b53b7          	lui	t2,0x261b5
    7bc0:	8bbe0117          	auipc	sp,0x8bbe0
    7bc4:	0030f1b3          	and	gp,ra,gp
    7bc8:	0021f133          	and	sp,gp,sp
    7bcc:	fef10093          	addi	ra,sp,-17 # 0xffffffff8bbe7baf
    7bd0:	de2f0237          	lui	tp,0xde2f0
    7bd4:	402380b3          	sub	ra,t2,sp
    7bd8:	aa35f197          	auipc	gp,0xaa35f
    7bdc:	d2516113          	ori	sp,sp,-731
    7be0:	1b118093          	addi	ra,gp,433 # 0xffffffffaa366d89
    7be4:	3750f193          	andi	gp,ra,885
    7be8:	00b1c133          	xor	sp,gp,a1
    7bec:	00316533          	or	a0,sp,gp
    7bf0:	a6b2f197          	auipc	gp,0xa6b2f
    7bf4:	e7cf00b7          	lui	ra,0xe7cf0
    7bf8:	84862137          	lui	sp,0x84862
    7bfc:	3c437093          	andi	ra,t1,964
    7c00:	efb3a297          	auipc	t0,0xefb3a
    7c04:	8a16c117          	auipc	sp,0x8a16c
    7c08:	006141b3          	xor	gp,sp,t1
    7c0c:	94f1f013          	andi	zero,gp,-1713
    7c10:	7c5b20b7          	lui	ra,0x7c5b2
    7c14:	b10c40b7          	lui	ra,0xb10c4
    7c18:	22050217          	auipc	tp,0x22050
    7c1c:	0021f1b3          	and	gp,gp,sp
    7c20:	32a94397          	auipc	t2,0x32a94
    7c24:	001281b3          	add	gp,t0,ra
    7c28:	854d51b7          	lui	gp,0x854d5
    7c2c:	b18a8297          	auipc	t0,0xb18a8
    7c30:	5431e793          	ori	a5,gp,1347
    7c34:	00000113          	li	sp,0
    7c38:	3c010c63          	beqz	sp,0x8010
    7c3c:	dae08193          	addi	gp,ra,-594 # 0xffffffffb10c3dae
    7c40:	5bf0c113          	xori	sp,ra,1471
    7c44:	393d4297          	auipc	t0,0x393d4
    7c48:	d3f16337          	lui	t1,0xd3f16
    7c4c:	fba7b097          	auipc	ra,0xfba7b
    7c50:	b3f3c393          	xori	t2,t2,-1217
    7c54:	7f56c117          	auipc	sp,0x7f56c
    7c58:	667011b7          	lui	gp,0x66701
    7c5c:	a52e81b7          	lui	gp,0xa52e8
    7c60:	98d63297          	auipc	t0,0x98d63
    7c64:	4f777117          	auipc	sp,0x4f777
    7c68:	7ec99097          	auipc	ra,0x7ec99
    7c6c:	31ede1b7          	lui	gp,0x31ede
    7c70:	b9eb1017          	auipc	zero,0xb9eb1
    7c74:	194ca0b7          	lui	ra,0x194ca
    7c78:	4baf91b7          	lui	gp,0x4baf9
    7c7c:	de24e1b7          	lui	gp,0xde24e
    7c80:	402081b3          	sub	gp,ra,sp
    7c84:	c586f213          	andi	tp,a3,-936
    7c88:	e8310193          	addi	gp,sp,-381 # 0x4f77eae7
    7c8c:	cfb0e093          	ori	ra,ra,-773
    7c90:	40208133          	sub	sp,ra,sp
    7c94:	0010f0b3          	and	ra,ra,ra
    7c98:	79dbf097          	auipc	ra,0x79dbf
    7c9c:	6626d397          	auipc	t2,0x6626d
    7ca0:	b30c8137          	lui	sp,0xb30c8
    7ca4:	b4120e97          	auipc	t4,0xb4120
    7ca8:	81910113          	addi	sp,sp,-2023 # 0xffffffffb30c7819
    7cac:	89b6a1b7          	lui	gp,0x89b6a
    7cb0:	8d00e937          	lui	s2,0x8d00e
    7cb4:	7e60e013          	ori	zero,ra,2022
    7cb8:	00418463          	beq	gp,tp,0x7cc0
    7cbc:	0040026f          	jal	tp,0x7cc0
    7cc0:	001080b3          	add	ra,ra,ra
    7cc4:	f8af3d17          	auipc	s10,0xf8af3
    7cc8:	403101b3          	sub	gp,sp,gp
    7ccc:	005040b3          	xor	ra,zero,t0
    7cd0:	c32d9097          	auipc	ra,0xc32d9
    7cd4:	4d338493          	addi	s1,t2,1235 # 0x6627516f
    7cd8:	17bd4497          	auipc	s1,0x17bd4
    7cdc:	fd718113          	addi	sp,gp,-41 # 0xffffffff89b69fd7
    7ce0:	60a0f113          	andi	sp,ra,1546
    7ce4:	0fe362b7          	lui	t0,0xfe36
    7ce8:	75506793          	ori	a5,zero,1877
    7cec:	04392137          	lui	sp,0x4392
    7cf0:	407301b3          	sub	gp,t1,t2
    7cf4:	401100b3          	sub	ra,sp,ra
    7cf8:	95e66337          	lui	t1,0x95e66
    7cfc:	e980f113          	andi	sp,ra,-360
    7d00:	8aae1017          	auipc	zero,0x8aae1
    7d04:	fb6104b7          	lui	s1,0xfb610
    7d08:	0021e833          	or	a6,gp,sp
    7d0c:	0c1e0f37          	lui	t5,0xc1e0
    7d10:	00a02117          	auipc	sp,0xa02
    7d14:	cd968113          	addi	sp,a3,-807 # 0xffffffff866646fd
    7d18:	73b81197          	auipc	gp,0x73b81
    7d1c:	5c30f113          	andi	sp,ra,1475
    7d20:	6ef8b0b7          	lui	ra,0x6ef8b
    7d24:	5c670197          	auipc	gp,0x5c670
    7d28:	a834b097          	auipc	ra,0xa834b
    7d2c:	d37b5197          	auipc	gp,0xd37b5
    7d30:	07bc4317          	auipc	t1,0x7bc4
    7d34:	0017f133          	and	sp,a5,ra
    7d38:	e6328ae3          	beq	t0,gp,0x7bac
    7d3c:	e71ff06f          	j	0x7bac
    7d40:	3fe10113          	addi	sp,sp,1022 # 0xa0a10e
    7d44:	00204133          	xor	sp,zero,sp
    7d48:	62a18113          	addi	sp,gp,1578 # 0xffffffffd37bd356
    7d4c:	4f322117          	auipc	sp,0x4f322
    7d50:	e6be3237          	lui	tp,0xe6be3
    7d54:	0091c133          	xor	sp,gp,s1
    7d58:	49c5a337          	lui	t1,0x49c5a
    7d5c:	00436133          	or	sp,t1,tp
    7d60:	9291c093          	xori	ra,gp,-1751
    7d64:	fb44b197          	auipc	gp,0xfb44b
    7d68:	f97d2317          	auipc	t1,0xf97d2
    7d6c:	7fd30017          	auipc	zero,0x7fd30
    7d70:	2dd26137          	lui	sp,0x2dd26
    7d74:	5ffbc137          	lui	sp,0x5ffbc
    7d78:	3523b0b7          	lui	ra,0x3523b
    7d7c:	6630e113          	ori	sp,ra,1635
    7d80:	212ae137          	lui	sp,0x212ae
    7d84:	a4d14197          	auipc	gp,0xa4d14
    7d88:	b6cab197          	auipc	gp,0xb6cab
    7d8c:	5ddad0b7          	lui	ra,0x5ddad
    7d90:	3f9d0237          	lui	tp,0x3f9d0
    7d94:	b7326113          	ori	sp,tp,-1165
    7d98:	c440a197          	auipc	gp,0xc440a
    7d9c:	23ba0097          	auipc	ra,0x23ba0
    7da0:	26a0e093          	ori	ra,ra,618
    7da4:	003141b3          	xor	gp,sp,gp
    7da8:	c83133b7          	lui	t2,0xc8313
    7dac:	0060e133          	or	sp,ra,t1
    7db0:	044391b7          	lui	gp,0x4439
    7db4:	10cdf137          	lui	sp,0x10cdf
    7db8:	4a876097          	auipc	ra,0x4a876
    7dbc:	b211d197          	auipc	gp,0xb211d
    7dc0:	74308663          	beq	ra,gp,0x850c
    7dc4:	748001ef          	jal	gp,0x850c
    7dc8:	538ea237          	lui	tp,0x538ea
    7dcc:	85216193          	ori	gp,sp,-1966
    7dd0:	b6f74197          	auipc	gp,0xb6f74
    7dd4:	be633097          	auipc	ra,0xbe633
    7dd8:	0041f333          	and	t1,gp,tp
    7ddc:	0031e1b3          	or	gp,gp,gp
    7de0:	b0451317          	auipc	t1,0xb0451
    7de4:	a8380137          	lui	sp,0xa8380
    7de8:	f4a781b7          	lui	gp,0xf4a78
    7dec:	f6c25237          	lui	tp,0xf6c25
    7df0:	17e643b7          	lui	t2,0x17e64
    7df4:	3ea18093          	addi	ra,gp,1002 # 0xfffffffff4a783ea
    7df8:	14adf117          	auipc	sp,0x14adf
    7dfc:	f7b1f193          	andi	gp,gp,-133
    7e00:	00b38133          	add	sp,t2,a1
    7e04:	0ac4f2b7          	lui	t0,0xac4f
    7e08:	2380c093          	xori	ra,ra,568
    7e0c:	91c14193          	xori	gp,sp,-1764
    7e10:	9ae7fcb7          	lui	s9,0x9ae7f
    7e14:	55b49097          	auipc	ra,0x55b49
    7e18:	d5331117          	auipc	sp,0xd5331
    7e1c:	5341f2b7          	lui	t0,0x5341f
    7e20:	129f7197          	auipc	gp,0x129f7
    7e24:	00317133          	and	sp,sp,gp
    7e28:	60f4b0b7          	lui	ra,0x60f4b
    7e2c:	40330233          	sub	tp,t1,gp
    7e30:	73038b93          	addi	s7,t2,1840 # 0x17e64730
    7e34:	0ab1e213          	ori	tp,gp,171
    7e38:	71914093          	xori	ra,sp,1817
    7e3c:	002241b3          	xor	gp,tp,sp
    7e40:	834d03b7          	lui	t2,0x834d0
    7e44:	bf30f193          	andi	gp,ra,-1037
    7e48:	e9f1f197          	auipc	gp,0xe9f1f
    7e4c:	62708c63          	beq	ra,t2,0x8484
    7e50:	6340026f          	jal	tp,0x8484
    7e54:	72d0d337          	lui	t1,0x72d0d
    7e58:	402080b3          	sub	ra,ra,sp
    7e5c:	0d0381b7          	lui	gp,0xd038
    7e60:	003304b3          	add	s1,t1,gp
    7e64:	253b0137          	lui	sp,0x253b0
    7e68:	2e717093          	andi	ra,sp,743
    7e6c:	93d08193          	addi	gp,ra,-1731 # 0x60f4a93d
    7e70:	40320133          	sub	sp,tp,gp
    7e74:	f201e113          	ori	sp,gp,-224
    7e78:	e3f9f197          	auipc	gp,0xe3f9f
    7e7c:	01de45b3          	xor	a1,t3,t4
    7e80:	96106093          	ori	ra,zero,-1695
    7e84:	40d101b3          	sub	gp,sp,a3
    7e88:	83957197          	auipc	gp,0x83957
    7e8c:	d8c8a697          	auipc	a3,0xd8c8a
    7e90:	f490c093          	xori	ra,ra,-183
    7e94:	817b3297          	auipc	t0,0x817b3
    7e98:	bd71f093          	andi	ra,gp,-1065
    7e9c:	f8538137          	lui	sp,0xf8538
    7ea0:	db314b13          	xori	s6,sp,-589
    7ea4:	2ef0a197          	auipc	gp,0x2ef0a
    7ea8:	9b604337          	lui	t1,0x9b604
    7eac:	0aaa81b7          	lui	gp,0xaaa8
    7eb0:	e820c093          	xori	ra,ra,-382
    7eb4:	50de91b7          	lui	gp,0x50de9
    7eb8:	87010013          	addi	zero,sp,-1936 # 0xfffffffff8537870
    7ebc:	cf808093          	addi	ra,ra,-776
    7ec0:	309123b7          	lui	t2,0x30912
    7ec4:	8505f2b7          	lui	t0,0x8505f
    7ec8:	c1d6c3b7          	lui	t2,0xc1d6c
    7ecc:	001170b3          	and	ra,sp,ra
    7ed0:	003260b3          	or	ra,tp,gp
    7ed4:	c41186e3          	beq	gp,ra,0x7b20
    7ed8:	c49ff1ef          	jal	gp,0x7b20
    7edc:	2c0af1b7          	lui	gp,0x2c0af
    7ee0:	705890b7          	lui	ra,0x70589
    7ee4:	7a0ad2b7          	lui	t0,0x7a0ad
    7ee8:	866d0097          	auipc	ra,0x866d0
    7eec:	002100b3          	add	ra,sp,sp
    7ef0:	00308333          	add	t1,ra,gp
    7ef4:	0e40c193          	xori	gp,ra,228
    7ef8:	312d1237          	lui	tp,0x312d1
    7efc:	31a5c137          	lui	sp,0x31a5c
    7f00:	1c331117          	auipc	sp,0x1c331
    7f04:	00110133          	add	sp,sp,ra
    7f08:	9d4f2037          	lui	zero,0x9d4f2
    7f0c:	afb1f093          	andi	ra,gp,-1285
    7f10:	debc0397          	auipc	t2,0xdebc0
    7f14:	91837117          	auipc	sp,0x91837
    7f18:	9e640337          	lui	t1,0x9e640
    7f1c:	fb217193          	andi	gp,sp,-78
    7f20:	6b207113          	andi	sp,zero,1714
    7f24:	0020e0b3          	or	ra,ra,sp
    7f28:	8f845437          	lui	s0,0x8f845
    7f2c:	088870b7          	lui	ra,0x8887
    7f30:	f952e193          	ori	gp,t0,-107
    7f34:	0031f1b3          	and	gp,gp,gp
    7f38:	bbe18093          	addi	ra,gp,-1090 # 0x2c0aebbe
    7f3c:	31707113          	andi	sp,zero,791
    7f40:	3b81e117          	auipc	sp,0x3b81e
    7f44:	27bd7117          	auipc	sp,0x27bd7
    7f48:	06dae1b7          	lui	gp,0x6dae
    7f4c:	b7236193          	ori	gp,t1,-1166
    7f50:	bee5f0b7          	lui	ra,0xbee5f
    7f54:	9731f213          	andi	tp,gp,-1677
    7f58:	8f88b017          	auipc	zero,0x8f88b
    7f5c:	6c87f313          	andi	t1,a5,1736
    7f60:	0e818193          	addi	gp,gp,232 # 0x6dae0e8
    7f64:	00018113          	mv	sp,gp
    7f68:	24310c63          	beq	sp,gp,0x81c0
    7f6c:	3690c113          	xori	sp,ra,873
    7f70:	401180b3          	sub	ra,gp,ra
    7f74:	403180b3          	sub	ra,gp,gp
    7f78:	453aa337          	lui	t1,0x453aa
    7f7c:	b00c9137          	lui	sp,0xb00c9
    7f80:	00008033          	add	zero,ra,zero
    7f84:	0facb137          	lui	sp,0xfacb
    7f88:	00304133          	xor	sp,zero,gp
    7f8c:	00210133          	add	sp,sp,sp
    7f90:	dcdfd317          	auipc	t1,0xdcdfd
    7f94:	f0a98097          	auipc	ra,0xf0a98
    7f98:	126ff1b7          	lui	gp,0x126ff
    7f9c:	3571f113          	andi	sp,gp,855
    7fa0:	f7aff197          	auipc	gp,0xf7aff
    7fa4:	44f6e0b7          	lui	ra,0x44f6e
    7fa8:	00236333          	or	t1,t1,sp
    7fac:	20eaa117          	auipc	sp,0x20eaa
    7fb0:	a8a17313          	andi	t1,sp,-1398
    7fb4:	9f1a21b7          	lui	gp,0x9f1a2
    7fb8:	00f242b3          	xor	t0,tp,a5
    7fbc:	00514333          	xor	t1,sp,t0
    7fc0:	f9015117          	auipc	sp,0xf9015
    7fc4:	26100217          	auipc	tp,0x26100
    7fc8:	a3709137          	lui	sp,0xa3709
    7fcc:	4924a097          	auipc	ra,0x4924a
    7fd0:	32bb30b7          	lui	ra,0x32bb3
    7fd4:	003170b3          	and	ra,sp,gp
    7fd8:	1921e113          	ori	sp,gp,402
    7fdc:	2e9a7217          	auipc	tp,0x2e9a7
    7fe0:	678f8017          	auipc	zero,0x678f8
    7fe4:	f4b08093          	addi	ra,ra,-181 # 0x32bb2f4b
    7fe8:	402180b3          	sub	ra,gp,sp
    7fec:	40328133          	sub	sp,t0,gp
    7ff0:	cd2de097          	auipc	ra,0xcd2de
    7ff4:	1c27e137          	lui	sp,0x1c27e
    7ff8:	c6ebb117          	auipc	sp,0xc6ebb
    7ffc:	7380e293          	ori	t0,ra,1848
    8000:	123d4197          	auipc	gp,0x123d4
    8004:	404101b3          	sub	gp,sp,tp
    8008:	00010193          	mv	gp,sp
    800c:	58218a63          	beq	gp,sp,0x85a0
    8010:	ea8881b7          	lui	gp,0xea888
    8014:	c1b510b7          	lui	ra,0xc1b51
    8018:	83287137          	lui	sp,0x83287
    801c:	7ef75197          	auipc	gp,0x7ef75
    8020:	ef4cb3b7          	lui	t2,0xef4cb
    8024:	6271f113          	andi	sp,gp,1575
    8028:	7b30d3b7          	lui	t2,0x7b30d
    802c:	003181b3          	add	gp,gp,gp
    8030:	9f2ed397          	auipc	t2,0x9f2ed
    8034:	2a817293          	andi	t0,sp,680
    8038:	002d6333          	or	t1,s10,sp
    803c:	46c60317          	auipc	t1,0x46c60
    8040:	ce607297          	auipc	t0,0xce607
    8044:	72108193          	addi	gp,ra,1825 # 0xffffffffc1b51721
    8048:	8fd9d137          	lui	sp,0x8fd9d
    804c:	928d7097          	auipc	ra,0x928d7
    8050:	308ad0b7          	lui	ra,0x308ad
    8054:	13775a37          	lui	s4,0x13775
    8058:	0043e1b3          	or	gp,t2,tp
    805c:	401180b3          	sub	ra,gp,ra
    8060:	f022e193          	ori	gp,t0,-254
    8064:	40110133          	sub	sp,sp,ra
    8068:	003171b3          	and	gp,sp,gp
    806c:	216be1b7          	lui	gp,0x216be
    8070:	f611f113          	andi	sp,gp,-159
    8074:	40210333          	sub	t1,sp,sp
    8078:	4171f093          	andi	ra,gp,1047
    807c:	003161b3          	or	gp,sp,gp
    8080:	ad55b337          	lui	t1,0xad55b
    8084:	004200b3          	add	ra,tp,tp
    8088:	b3d0e317          	auipc	t1,0xb3d0e
    808c:	00018093          	mv	ra,gp
    8090:	dc3082e3          	beq	ra,gp,0x7e54
    8094:	fc6ec1b7          	lui	gp,0xfc6ec
    8098:	0022f133          	and	sp,t0,sp
    809c:	62d16293          	ori	t0,sp,1581
    80a0:	00016033          	or	zero,sp,zero
    80a4:	165bf117          	auipc	sp,0x165bf
    80a8:	001160b3          	or	ra,sp,ra
    80ac:	0064e2b3          	or	t0,s1,t1
    80b0:	8206e117          	auipc	sp,0x8206e
    80b4:	38ba7237          	lui	tp,0x38ba7
    80b8:	a3504513          	xori	a0,zero,-1483
    80bc:	de710013          	addi	zero,sp,-537 # 0xffffffff82075e97
    80c0:	dc9a4137          	lui	sp,0xdc9a4
    80c4:	5496f0b7          	lui	ra,0x5496f
    80c8:	c6316113          	ori	sp,sp,-925
    80cc:	d996b097          	auipc	ra,0xd996b
    80d0:	a0262097          	auipc	ra,0xa0262
    80d4:	25cf4237          	lui	tp,0x25cf4
    80d8:	001340b3          	xor	ra,t1,ra
    80dc:	b85de013          	ori	zero,s11,-1147
    80e0:	af10e217          	auipc	tp,0xaf10e
    80e4:	151e0137          	lui	sp,0x151e0
    80e8:	38d5d1b7          	lui	gp,0x38d5d
    80ec:	a9d03197          	auipc	gp,0xa9d03
    80f0:	0a5801b7          	lui	gp,0xa580
    80f4:	afd081b7          	lui	gp,0xafd08
    80f8:	0031c033          	xor	zero,gp,gp
    80fc:	0031c133          	xor	sp,gp,gp
    8100:	0020e133          	or	sp,ra,sp
    8104:	8d208113          	addi	sp,ra,-1838 # 0xffffffffa02699a2
    8108:	233097b7          	lui	a5,0x23309
    810c:	0020e1b3          	or	gp,ra,sp
    8110:	e9caf1b7          	lui	gp,0xe9caf
    8114:	0021c1b3          	xor	gp,gp,sp
    8118:	13fd8137          	lui	sp,0x13fd8
    811c:	ed00e093          	ori	ra,ra,-304
    8120:	00600263          	beq	zero,t1,0x8124
    8124:	6c50036f          	jal	t1,0x8fe8
    8128:	918f2017          	auipc	zero,0x918f2
    812c:	58016113          	ori	sp,sp,1408
    8130:	6ce09137          	lui	sp,0x6ce09
    8134:	0020e233          	or	tp,ra,sp
    8138:	404301b3          	sub	gp,t1,tp
    813c:	d889d137          	lui	sp,0xd889d
    8140:	0071e2b3          	or	t0,gp,t2
    8144:	7ff14113          	xori	sp,sp,2047
    8148:	88b0e393          	ori	t2,ra,-1909
    814c:	cf8d80b7          	lui	ra,0xcf8d8
    8150:	003181b3          	add	gp,gp,gp
    8154:	0f875197          	auipc	gp,0xf875
    8158:	409080b3          	sub	ra,ra,s1
    815c:	d10ca137          	lui	sp,0xd10ca
    8160:	82238f93          	addi	t6,t2,-2014 # 0xffffffff9f2f4852
    8164:	4a05c097          	auipc	ra,0x4a05c
    8168:	e6f861b7          	lui	gp,0xe6f86
    816c:	4af80197          	auipc	gp,0x4af80
    8170:	89dbdd37          	lui	s10,0x89dbd
    8174:	401080b3          	sub	ra,ra,ra
    8178:	402181b3          	sub	gp,gp,sp
    817c:	659023b7          	lui	t2,0x65902
    8180:	2650f093          	andi	ra,ra,613
    8184:	0021f1b3          	and	gp,gp,sp
    8188:	00314333          	xor	t1,sp,gp
    818c:	00236233          	or	tp,t1,sp
    8190:	6fcf4117          	auipc	sp,0x6fcf4
    8194:	5d71c213          	xori	tp,gp,1495
    8198:	a0336193          	ori	gp,t1,-1533
    819c:	67dd9097          	auipc	ra,0x67dd9
    81a0:	db4a1137          	lui	sp,0xdb4a1
    81a4:	b2bf3937          	lui	s2,0xb2bf3
    81a8:	dc727097          	auipc	ra,0xdc727
    81ac:	3a7f73b7          	lui	t2,0x3a7f7
    81b0:	402181b3          	sub	gp,gp,sp
    81b4:	82fdd117          	auipc	sp,0x82fdd
    81b8:	00030193          	mv	gp,t1
    81bc:	da6188e3          	beq	gp,t1,0x7f6c
    81c0:	00326b33          	or	s6,tp,gp
    81c4:	b7c36113          	ori	sp,t1,-1156
    81c8:	b75d90b7          	lui	ra,0xb75d9
    81cc:	15906117          	auipc	sp,0x15906
    81d0:	c463a5b7          	lui	a1,0xc463a
    81d4:	249a5017          	auipc	zero,0x249a5
    81d8:	00217133          	and	sp,sp,sp
    81dc:	6c85a1b7          	lui	gp,0x6c85a
    81e0:	002180b3          	add	ra,gp,sp
    81e4:	b5a00193          	li	gp,-1190
    81e8:	f3a6b0b7          	lui	ra,0xf3a6b
    81ec:	628b70b7          	lui	ra,0x628b7
    81f0:	5bf10e93          	addi	t4,sp,1471 # 0x1590e78b
    81f4:	be40c0b7          	lui	ra,0xbe40c
    81f8:	19b9b197          	auipc	gp,0x19b9b
    81fc:	99db80b7          	lui	ra,0x99db8
    8200:	0067f133          	and	sp,a5,t1
    8204:	865be097          	auipc	ra,0x865be
    8208:	0011c133          	xor	sp,gp,ra
    820c:	22ec6237          	lui	tp,0x22ec6
    8210:	a3653197          	auipc	gp,0xa3653
    8214:	7bbdd197          	auipc	gp,0x7bbdd
    8218:	28610193          	addi	gp,sp,646
    821c:	eddd9137          	lui	sp,0xeddd9
    8220:	cd469717          	auipc	a4,0xcd469
    8224:	490ba117          	auipc	sp,0x490ba
    8228:	002170b3          	and	ra,sp,sp
    822c:	a87a9117          	auipc	sp,0xa87a9
    8230:	e1f44097          	auipc	ra,0xe1f44
    8234:	c5814113          	xori	sp,sp,-936
    8238:	0020e033          	or	zero,ra,sp
    823c:	1eca90b7          	lui	ra,0x1eca9
    8240:	58dfb117          	auipc	sp,0x58dfb
    8244:	001360b3          	or	ra,t1,ra
    8248:	00010293          	mv	t0,sp
    824c:	10228e63          	beq	t0,sp,0x8368
    8250:	0fa1f093          	andi	ra,gp,250
    8254:	91f3b397          	auipc	t2,0x91f3b
    8258:	409300b3          	sub	ra,t1,s1
    825c:	8f16f013          	andi	zero,a3,-1807
    8260:	157145b7          	lui	a1,0x15714
    8264:	38670197          	auipc	gp,0x38670
    8268:	20d10213          	addi	tp,sp,525 # 0x58e0344d
    826c:	57107393          	andi	t2,zero,1393
    8270:	0f0981b7          	lui	gp,0xf098
    8274:	8251e113          	ori	sp,gp,-2011
    8278:	f8fc01b7          	lui	gp,0xf8fc0
    827c:	0021e0b3          	or	ra,gp,sp
    8280:	83e56197          	auipc	gp,0x83e56
    8284:	85616193          	ori	gp,sp,-1962
    8288:	00214133          	xor	sp,sp,sp
    828c:	eaa16093          	ori	ra,sp,-342
    8290:	f1f14393          	xori	t2,sp,-225
    8294:	e04b7217          	auipc	tp,0xe04b7
    8298:	00618033          	add	zero,gp,t1
    829c:	1d5be0b7          	lui	ra,0x1d5be
    82a0:	002181b3          	add	gp,gp,sp
    82a4:	ee66e313          	ori	t1,a3,-282
    82a8:	7fe05117          	auipc	sp,0x7fe05
    82ac:	0021e1b3          	or	gp,gp,sp
    82b0:	003361b3          	or	gp,t1,gp
    82b4:	b61bafb7          	lui	t6,0xb61ba
    82b8:	7db00313          	li	t1,2011
    82bc:	40310133          	sub	sp,sp,gp
    82c0:	3df0c193          	xori	gp,ra,991
    82c4:	f1f5c197          	auipc	gp,0xf1f5c
    82c8:	7bd3f197          	auipc	gp,0x7bd3f
    82cc:	ff747097          	auipc	ra,0xff747
    82d0:	34e4c093          	xori	ra,s1,846
    82d4:	00008113          	mv	sp,ra
    82d8:	00110263          	beq	sp,ra,0x82dc
    82dc:	402107b3          	sub	a5,sp,sp
    82e0:	4b406393          	ori	t2,zero,1204
    82e4:	40008033          	sub	zero,ra,zero
    82e8:	0d189197          	auipc	gp,0xd189
    82ec:	76d35097          	auipc	ra,0x76d35
    82f0:	a6416093          	ori	ra,sp,-1436
    82f4:	0031f0b3          	and	ra,gp,gp
    82f8:	0133c097          	auipc	ra,0x133c
    82fc:	fc7e81b7          	lui	gp,0xfc7e8
    8300:	3c307093          	andi	ra,zero,963
    8304:	00108333          	add	t1,ra,ra
    8308:	0070f1b3          	and	gp,ra,t2
    830c:	505e6097          	auipc	ra,0x505e6
    8310:	f2dac097          	auipc	ra,0xf2dac
    8314:	4d116797          	auipc	a5,0x4d116
    8318:	40230133          	sub	sp,t1,sp
    831c:	4fa30193          	addi	gp,t1,1274 # 0xffffffffb3d16582
    8320:	ce65f137          	lui	sp,0xce65f
    8324:	75528193          	addi	gp,t0,1877 # 0xffffffffce60f795
    8328:	23626113          	ori	sp,tp,566
    832c:	e2f53117          	auipc	sp,0xe2f53
    8330:	002140b3          	xor	ra,sp,sp
    8334:	000180b3          	add	ra,gp,zero
    8338:	96316313          	ori	t1,sp,-1693
    833c:	3f723217          	auipc	tp,0x3f723
    8340:	80efba37          	lui	s4,0x80efb
    8344:	7bb18113          	addi	sp,gp,1979 # 0xfffffffffc7e87bb
    8348:	014240b3          	xor	ra,tp,s4
    834c:	29abc113          	xori	sp,s7,666
    8350:	ba824097          	auipc	ra,0xba824
    8354:	44e16193          	ori	gp,sp,1102
    8358:	003161b3          	or	gp,sp,gp
    835c:	bdb64217          	auipc	tp,0xbdb64
    8360:	00000197          	auipc	gp,0x0
    8364:	d34181e7          	jalr	gp,-716(gp) # 0x8094
    8368:	12bbc117          	auipc	sp,0x12bbc
    836c:	7ef09017          	auipc	zero,0x7ef09
    8370:	001160b3          	or	ra,sp,ra
    8374:	a49f7197          	auipc	gp,0xa49f7
    8378:	209ed137          	lui	sp,0x209ed
    837c:	75a34097          	auipc	ra,0x75a34
    8380:	40110133          	sub	sp,sp,ra
    8384:	1563e197          	auipc	gp,0x1563e
    8388:	0010f133          	and	sp,ra,ra
    838c:	c5f11217          	auipc	tp,0xc5f11
    8390:	3f379117          	auipc	sp,0x3f379
    8394:	59f5c237          	lui	tp,0x59f5c
    8398:	92cea1b7          	lui	gp,0x92cea
    839c:	b15430b7          	lui	ra,0xb1543
    83a0:	7e818193          	addi	gp,gp,2024 # 0xffffffff92cea7e8
    83a4:	0000f0b3          	and	ra,ra,zero
    83a8:	0020c133          	xor	sp,ra,sp
    83ac:	0ecc8113          	addi	sp,s9,236 # 0xffffffff9ae7f0ec
    83b0:	a9a1f0b7          	lui	ra,0xa9a1f
    83b4:	db304113          	xori	sp,zero,-589
    83b8:	3e4a4117          	auipc	sp,0x3e4a4
    83bc:	407300b3          	sub	ra,t1,t2
    83c0:	80403117          	auipc	sp,0x80403
    83c4:	cf05e037          	lui	zero,0xcf05e
    83c8:	18e83197          	auipc	gp,0x18e83
    83cc:	06a2c093          	xori	ra,t0,106
    83d0:	62d38213          	addi	tp,t2,1581 # 0xffffffff91f43881
    83d4:	0f1a1117          	auipc	sp,0xf1a1
    83d8:	3640e097          	auipc	ra,0x3640e
    83dc:	04a00537          	lui	a0,0x4a00
    83e0:	97fa90b7          	lui	ra,0x97fa9
    83e4:	035ae2b7          	lui	t0,0x35ae
    83e8:	f089c937          	lui	s2,0xf089c
    83ec:	00018113          	mv	sp,gp
    83f0:	00310263          	beq	sp,gp,0x83f4
    83f4:	3197c093          	xori	ra,a5,793
    83f8:	1d30f193          	andi	gp,ra,467
    83fc:	a3300193          	li	gp,-1485
    8400:	23ddd097          	auipc	ra,0x23ddd
    8404:	58d1f093          	andi	ra,gp,1421
    8408:	8af12097          	auipc	ra,0x8af12
    840c:	9e7741b7          	lui	gp,0x9e774
    8410:	bba07197          	auipc	gp,0xbba07
    8414:	7e89c197          	auipc	gp,0x7e89c
    8418:	0010e133          	or	sp,ra,ra
    841c:	ae10e113          	ori	sp,ra,-1311
    8420:	6b4e0097          	auipc	ra,0x6b4e0
    8424:	00117333          	and	t1,sp,ra
    8428:	401181b3          	sub	gp,gp,ra
    842c:	8c772097          	auipc	ra,0x8c772
    8430:	0e9d9117          	auipc	sp,0xe9d9
    8434:	00108233          	add	tp,ra,ra
    8438:	5d1b1397          	auipc	t2,0x5d1b1
    843c:	44c1c093          	xori	ra,gp,1100
    8440:	00b3f133          	and	sp,t2,a1
    8444:	9eaca317          	auipc	t1,0x9eaca
    8448:	0030e033          	or	zero,ra,gp
    844c:	4253c0b7          	lui	ra,0x4253c
    8450:	406105b3          	sub	a1,sp,t1
    8454:	f7694137          	lui	sp,0xf7694
    8458:	ae2aa137          	lui	sp,0xae2aa
    845c:	006161b3          	or	gp,sp,t1
    8460:	b7a08093          	addi	ra,ra,-1158 # 0x4253bb7a
    8464:	0021e3b3          	or	t2,gp,sp
    8468:	b8318193          	addi	gp,gp,-1149 # 0x7e8a3f97
    846c:	a22e90b7          	lui	ra,0xa22e9
    8470:	25adc113          	xori	sp,s11,602
    8474:	19a57797          	auipc	a5,0x19a57
    8478:	0016f0b3          	and	ra,a3,ra
    847c:	947206e3          	beq	tp,t2,0x7dc8
    8480:	949ff16f          	jal	sp,0x7dc8
    8484:	40fae097          	auipc	ra,0x40fae
    8488:	40600033          	neg	zero,t1
    848c:	409080b3          	sub	ra,ra,s1
    8490:	b022d037          	lui	zero,0xb022d
    8494:	70142197          	auipc	gp,0x70142
    8498:	8e428093          	addi	ra,t0,-1820 # 0x35ad8e4
    849c:	17c92097          	auipc	ra,0x17c92
    84a0:	f10a4517          	auipc	a0,0xf10a4
    84a4:	40308033          	sub	zero,ra,gp
    84a8:	f5c352b7          	lui	t0,0xf5c35
    84ac:	0141e0b3          	or	ra,gp,s4
    84b0:	66700213          	li	tp,1639
    84b4:	deec60b7          	lui	ra,0xdeec6
    84b8:	80965097          	auipc	ra,0x80965
    84bc:	d169a137          	lui	sp,0xd169a
    84c0:	00108393          	addi	t2,ra,1 # 0xffffffff8096d4b9
    84c4:	5da2e013          	ori	zero,t0,1498
    84c8:	abe5c097          	auipc	ra,0xabe5c
    84cc:	a1e570b7          	lui	ra,0xa1e57
    84d0:	35d16693          	ori	a3,sp,861
    84d4:	a718d1b7          	lui	gp,0xa718d
    84d8:	8510f113          	andi	sp,ra,-1967
    84dc:	e5c53197          	auipc	gp,0xe5c53
    84e0:	bb1d1097          	auipc	ra,0xbb1d1
    84e4:	d725d0b7          	lui	ra,0xd725d
    84e8:	05daa197          	auipc	gp,0x5daa
    84ec:	6760c293          	xori	t0,ra,1654
    84f0:	02d12337          	lui	t1,0x2d12
    84f4:	118e6117          	auipc	sp,0x118e6
    84f8:	003171b3          	and	gp,sp,gp
    84fc:	49e16a13          	ori	s4,sp,1182
    8500:	d6b17293          	andi	t0,sp,-661
    8504:	82008ee3          	beqz	ra,0x7d40
    8508:	839ff0ef          	jal	ra,0x7d40
    850c:	127c8093          	addi	ra,s9,295
    8510:	4de0d1b7          	lui	gp,0x4de0d
    8514:	dfc4a097          	auipc	ra,0xdfc4a
    8518:	14e910b7          	lui	ra,0x14e91
    851c:	af00c193          	xori	gp,ra,-1296
    8520:	003161b3          	or	gp,sp,gp
    8524:	6fc310b7          	lui	ra,0x6fc31
    8528:	000141b3          	xor	gp,sp,zero
    852c:	002180b3          	add	ra,gp,sp
    8530:	1921e093          	ori	ra,gp,402
    8534:	c085e0b7          	lui	ra,0xc085e
    8538:	34f77137          	lui	sp,0x34f77
    853c:	88d54037          	lui	zero,0x88d54
    8540:	28815137          	lui	sp,0x28815
    8544:	bf752117          	auipc	sp,0xbf752
    8548:	efb621b7          	lui	gp,0xefb62
    854c:	28dcb397          	auipc	t2,0x28dcb
    8550:	dbd10313          	addi	t1,sp,-579 # 0xffffffffbf75a301
    8554:	23d343b7          	lui	t2,0x23d34
    8558:	9ab17193          	andi	gp,sp,-1621
    855c:	e55c0137          	lui	sp,0xe55c0
    8560:	406181b3          	sub	gp,gp,t1
    8564:	75a26193          	ori	gp,tp,1882
    8568:	9fb0c693          	xori	a3,ra,-1541
    856c:	36c1f113          	andi	sp,gp,876
    8570:	002100b3          	add	ra,sp,sp
    8574:	00b06a33          	or	s4,zero,a1
    8578:	41eaa297          	auipc	t0,0x41eaa
    857c:	222cc837          	lui	a6,0x222cc
    8580:	f6740137          	lui	sp,0xf6740
    8584:	4ed6f137          	lui	sp,0x4ed6f
    8588:	923f40b7          	lui	ra,0x923f4
    858c:	00330233          	add	tp,t1,gp
    8590:	00510bb3          	add	s7,sp,t0
    8594:	d7da41b7          	lui	gp,0xd7da4
    8598:	00110263          	beq	sp,ra,0x859c
    859c:	ea0ff3ef          	jal	t2,0x7c3c
    85a0:	0016e1b3          	or	gp,a3,ra
    85a4:	532eaf37          	lui	t5,0x532ea
    85a8:	cf616193          	ori	gp,sp,-778
    85ac:	39e27117          	auipc	sp,0x39e27
    85b0:	65d9b197          	auipc	gp,0x65d9b
    85b4:	420e2097          	auipc	ra,0x420e2
    85b8:	6401e193          	ori	gp,gp,1600
    85bc:	a7c04113          	xori	sp,zero,-1412
    85c0:	58016313          	ori	t1,sp,1408
    85c4:	ec31c193          	xori	gp,gp,-317
    85c8:	3005e197          	auipc	gp,0x3005e
    85cc:	40110133          	sub	sp,sp,ra
    85d0:	e73fd197          	auipc	gp,0xe73fd
    85d4:	4c108093          	addi	ra,ra,1217 # 0x420eaa75
    85d8:	6564f113          	andi	sp,s1,1622
    85dc:	bdb1f113          	andi	sp,gp,-1061
    85e0:	e429e137          	lui	sp,0xe429e
    85e4:	003081b3          	add	gp,ra,gp
    85e8:	fd33f0b7          	lui	ra,0xfd33f
    85ec:	402180b3          	sub	ra,gp,sp
    85f0:	e5a052b7          	lui	t0,0xe5a05
    85f4:	5821f0b7          	lui	ra,0x5821f
    85f8:	a4a04193          	xori	gp,zero,-1462
    85fc:	0001e133          	or	sp,gp,zero
    8600:	09fb4193          	xori	gp,s6,159
    8604:	37bdb017          	auipc	zero,0x37bdb
    8608:	401083b3          	sub	t2,ra,ra
    860c:	00216133          	or	sp,sp,sp
    8610:	0a816193          	ori	gp,sp,168
    8614:	0022e0b3          	or	ra,t0,sp
    8618:	6681a697          	auipc	a3,0x6681a
    861c:	002382b3          	add	t0,t2,sp
    8620:	8ac1c293          	xori	t0,gp,-1876
    8624:	736c8137          	lui	sp,0x736c8
    8628:	2c026313          	ori	t1,tp,704
    862c:	1587d117          	auipc	sp,0x1587d
    8630:	cde52097          	auipc	ra,0xcde52
    8634:	cdf0f213          	andi	tp,ra,-801
    8638:	8f14d117          	auipc	sp,0x8f14d
    863c:	00000197          	auipc	gp,0x0
    8640:	c1418267          	jalr	tp,-1004(gp) # 0x8250
    8644:	cc60f393          	andi	t2,ra,-826
    8648:	16786197          	auipc	gp,0x16786
    864c:	012c6117          	auipc	sp,0x12c6
    8650:	46778017          	auipc	zero,0x46778
    8654:	64736193          	ori	gp,t1,1607
    8658:	62b993b7          	lui	t2,0x62b99
    865c:	ae57a097          	auipc	ra,0xae57a
    8660:	8a910393          	addi	t2,sp,-1879 # 0x12cdef5
    8664:	cce14393          	xori	t2,sp,-818
    8668:	b2c0a397          	auipc	t2,0xb2c0a
    866c:	a5f50117          	auipc	sp,0xa5f50
    8670:	d6c461b7          	lui	gp,0xd6c46
    8674:	c11ef3b7          	lui	t2,0xc11ef
    8678:	001181b3          	add	gp,gp,ra
    867c:	230670b7          	lui	ra,0x23067
    8680:	4f281137          	lui	sp,0x4f281
    8684:	f5914093          	xori	ra,sp,-167
    8688:	ea5ecf93          	xori	t6,t4,-347
    868c:	372eb097          	auipc	ra,0x372eb
    8690:	7c173097          	auipc	ra,0x7c173
    8694:	003df0b3          	and	ra,s11,gp
    8698:	dbc6b137          	lui	sp,0xdbc6b
    869c:	06928113          	addi	sp,t0,105 # 0xffffffffe5a05069
    86a0:	e5f0f193          	andi	gp,ra,-417
    86a4:	3cfe0197          	auipc	gp,0x3cfe0
    86a8:	2f758037          	lui	zero,0x2f758
    86ac:	405180b3          	sub	ra,gp,t0
    86b0:	75d27117          	auipc	sp,0x75d27
    86b4:	64ca2197          	auipc	gp,0x64ca2
    86b8:	3f1e4097          	auipc	ra,0x3f1e4
    86bc:	8499b0b7          	lui	ra,0x8499b
    86c0:	7ce1c393          	xori	t2,gp,1998
    86c4:	43b26117          	auipc	sp,0x43b26
    86c8:	1b94f137          	lui	sp,0x1b94f
    86cc:	9c9e8097          	auipc	ra,0x9c9e8
    86d0:	46e08013          	addi	zero,ra,1134 # 0xffffffff9c9f0b3a
    86d4:	94652197          	auipc	gp,0x94652
    86d8:	00250263          	beq	a0,sp,0x86dc
    86dc:	219000ef          	jal	ra,0x90f4
    86e0:	beb3f093          	andi	ra,t2,-1045
    86e4:	06c18093          	addi	ra,gp,108 # 0xffffffff9465a740
    86e8:	003160b3          	or	ra,sp,gp
    86ec:	e2c5c037          	lui	zero,0xe2c5c
    86f0:	003170b3          	and	ra,sp,gp
    86f4:	00310333          	add	t1,sp,gp
    86f8:	ee208093          	addi	ra,ra,-286
    86fc:	e711c193          	xori	gp,gp,-399
    8700:	002181b3          	add	gp,gp,sp
    8704:	ca982097          	auipc	ra,0xca982
    8708:	5f3c63b7          	lui	t2,0x5f3c6
    870c:	00f280b3          	add	ra,t0,a5
    8710:	2ab1ed13          	ori	s10,gp,683
    8714:	c098e097          	auipc	ra,0xc098e
    8718:	003082b3          	add	t0,ra,gp
    871c:	324e2037          	lui	zero,0x324e2
    8720:	003140b3          	xor	ra,sp,gp
    8724:	59717193          	andi	gp,sp,1431
    8728:	002083b3          	add	t2,ra,sp
    872c:	bb9cf137          	lui	sp,0xbb9cf
    8730:	003082b3          	add	t0,ra,gp
    8734:	604031b7          	lui	gp,0x60403
    8738:	0070ccb3          	xor	s9,ra,t2
    873c:	d5f942b7          	lui	t0,0xd5f94
    8740:	d82bf0b7          	lui	ra,0xd82bf
    8744:	afd27693          	andi	a3,tp,-1283
    8748:	f9b46137          	lui	sp,0xf9b46
    874c:	64104093          	xori	ra,zero,1601
    8750:	71610093          	addi	ra,sp,1814 # 0xfffffffff9b46716
    8754:	cde6d137          	lui	sp,0xcde6d
    8758:	e233f217          	auipc	tp,0xe233f
    875c:	003ff133          	and	sp,t6,gp
    8760:	4f50f393          	andi	t2,ra,1269
    8764:	3dc0f093          	andi	ra,ra,988
    8768:	d416d397          	auipc	t2,0xd416d
    876c:	487b22b7          	lui	t0,0x487b2
    8770:	00508263          	beq	ra,t0,0x8774
    8774:	0f90016f          	jal	sp,0x906c
    8778:	a1014193          	xori	gp,sp,-1520
    877c:	c8761637          	lui	a2,0xc8761
    8780:	00118233          	add	tp,gp,ra
    8784:	0aa86197          	auipc	gp,0xaa86
    8788:	fce02017          	auipc	zero,0xfce02
    878c:	40b14193          	xori	gp,sp,1035
    8790:	0031f133          	and	sp,gp,gp
    8794:	a29312b7          	lui	t0,0xa2931
    8798:	402381b3          	sub	gp,t2,sp
    879c:	00176233          	or	tp,a4,ra
    87a0:	822490b7          	lui	ra,0x82249
    87a4:	40628233          	sub	tp,t0,t1
    87a8:	0012c1b3          	xor	gp,t0,ra
    87ac:	f8063217          	auipc	tp,0xf8063
    87b0:	690b7197          	auipc	gp,0x690b7
    87b4:	65b10193          	addi	gp,sp,1627 # 0xffffffffcde6d65b
    87b8:	a9863397          	auipc	t2,0xa9863
    87bc:	c091c193          	xori	gp,gp,-1015
    87c0:	6b12c093          	xori	ra,t0,1713
    87c4:	33020117          	auipc	sp,0x33020
    87c8:	4c47f217          	auipc	tp,0x4c47f
    87cc:	8ab8b3b7          	lui	t2,0x8ab8b
    87d0:	defd7117          	auipc	sp,0xdefd7
    87d4:	fb90e113          	ori	sp,ra,-71
    87d8:	7dfc2337          	lui	t1,0x7dfc2
    87dc:	cf90c393          	xori	t2,ra,-775
    87e0:	0020c133          	xor	sp,ra,sp
    87e4:	47e18113          	addi	sp,gp,1150 # 0x690bfc2e
    87e8:	efff9097          	auipc	ra,0xefff9
    87ec:	868e8137          	lui	sp,0x868e8
    87f0:	0002e0b3          	or	ra,t0,zero
    87f4:	97ad0137          	lui	sp,0x97ad0
    87f8:	f29b7097          	auipc	ra,0xf29b7
    87fc:	0000c0b3          	xor	ra,ra,zero
    8800:	ffc3cd93          	xori	s11,t2,-4
    8804:	09610663          	beq	sp,s6,0x8890
    8808:	088001ef          	jal	gp,0x8890
    880c:	003061b3          	or	gp,zero,gp
    8810:	0060c1b3          	xor	gp,ra,t1
    8814:	0aba3317          	auipc	t1,0xaba3
    8818:	17531137          	lui	sp,0x17531
    881c:	00304233          	xor	tp,zero,gp
    8820:	038ad117          	auipc	sp,0x38ad
    8824:	637c5137          	lui	sp,0x637c5
    8828:	8aee3c97          	auipc	s9,0x8aee3
    882c:	0033e1b3          	or	gp,t2,gp
    8830:	003270b3          	and	ra,tp,gp
    8834:	2371c393          	xori	t2,gp,567
    8838:	00108133          	add	sp,ra,ra
    883c:	1ba31397          	auipc	t2,0x1ba31
    8840:	e12db117          	auipc	sp,0xe12db
    8844:	9b14e097          	auipc	ra,0x9b14e
    8848:	40118133          	sub	sp,gp,ra
    884c:	b8c1f093          	andi	ra,gp,-1140
    8850:	5003c113          	xori	sp,t2,1280
    8854:	3ebab4b7          	lui	s1,0x3ebab
    8858:	b7d10093          	addi	ra,sp,-1155 # 0xffffffffe12e33bd
    885c:	3f90c093          	xori	ra,ra,1017
    8860:	d5633097          	auipc	ra,0xd5633
    8864:	5dac9137          	lui	sp,0x5dac9
    8868:	9dc0e113          	ori	sp,ra,-1572
    886c:	e6edc217          	auipc	tp,0xe6edc
    8870:	f555f517          	auipc	a0,0xf555f
    8874:	e16ec197          	auipc	gp,0xe16ec
    8878:	65d311b7          	lui	gp,0x65d31
    887c:	0024c1b3          	xor	gp,s1,sp
    8880:	4e4301b7          	lui	gp,0x4e430
    8884:	d57b5137          	lui	sp,0xd57b5
    8888:	00000397          	auipc	t2,0x0
    888c:	25438167          	jalr	sp,596(t2) # 0x8adc
    8890:	9750e093          	ori	ra,ra,-1675
    8894:	088c2097          	auipc	ra,0x88c2
    8898:	6b31c193          	xori	gp,gp,1715
    889c:	00234133          	xor	sp,t1,sp
    88a0:	e83a00b7          	lui	ra,0xe83a0
    88a4:	4df16193          	ori	gp,sp,1247
    88a8:	0031e1b3          	or	gp,gp,gp
    88ac:	fa3a5117          	auipc	sp,0xfa3a5
    88b0:	97a87237          	lui	tp,0x97a87
    88b4:	0021f1b3          	and	gp,gp,sp
    88b8:	48db63b7          	lui	t2,0x48db6
    88bc:	55b54317          	auipc	t1,0x55b54
    88c0:	bdf07397          	auipc	t2,0xbdf07
    88c4:	9f18f097          	auipc	ra,0x9f18f
    88c8:	5ded3297          	auipc	t0,0x5ded3
    88cc:	4ca7b0b7          	lui	ra,0x4ca7b
    88d0:	0010e0b3          	or	ra,ra,ra
    88d4:	7564c097          	auipc	ra,0x7564c
    88d8:	c3e87137          	lui	sp,0xc3e87
    88dc:	001360b3          	or	ra,t1,ra
    88e0:	8c440197          	auipc	gp,0x8c440
    88e4:	40208133          	sub	sp,ra,sp
    88e8:	f20990b7          	lui	ra,0xf2099
    88ec:	0011f0b3          	and	ra,gp,ra
    88f0:	40110033          	sub	zero,sp,ra
    88f4:	00116233          	or	tp,sp,ra
    88f8:	fd072117          	auipc	sp,0xfd072
    88fc:	4efa9137          	lui	sp,0x4efa9
    8900:	0020f2b3          	and	t0,ra,sp
    8904:	0030e333          	or	t1,ra,gp
    8908:	0ee540b7          	lui	ra,0xee54
    890c:	00008113          	mv	sp,ra
    8910:	52110463          	beq	sp,ra,0x8e38
    8914:	430231b7          	lui	gp,0x43023
    8918:	222b7117          	auipc	sp,0x222b7
    891c:	cae14713          	xori	a4,sp,-850
    8920:	c93a3697          	auipc	a3,0xc93a3
    8924:	f57651b7          	lui	gp,0xf5765
    8928:	0030e1b3          	or	gp,ra,gp
    892c:	d8f200b7          	lui	ra,0xd8f20
    8930:	e6eb30b7          	lui	ra,0xe6eb3
    8934:	d0c3d097          	auipc	ra,0xd0c3d
    8938:	1b90d1b7          	lui	gp,0x1b90d
    893c:	40118133          	sub	sp,gp,ra
    8940:	72933137          	lui	sp,0x72933
    8944:	31202137          	lui	sp,0x31202
    8948:	60918093          	addi	ra,gp,1545 # 0x1b90d609
    894c:	679a4317          	auipc	t1,0x679a4
    8950:	403c81b3          	sub	gp,s9,gp
    8954:	9df560b7          	lui	ra,0x9df56
    8958:	f52a3217          	auipc	tp,0xf52a3
    895c:	40714313          	xori	t1,sp,1031
    8960:	0077f0b3          	and	ra,a5,t2
    8964:	a7ddc137          	lui	sp,0xa7ddc
    8968:	3280f097          	auipc	ra,0x3280f
    896c:	6cc18093          	addi	ra,gp,1740
    8970:	00257133          	and	sp,a0,sp
    8974:	013140b3          	xor	ra,sp,s3
    8978:	2c2f1117          	auipc	sp,0x2c2f1
    897c:	406103b3          	sub	t2,sp,t1
    8980:	8f908093          	addi	ra,ra,-1799 # 0x32817261
    8984:	b1bb6397          	auipc	t2,0xb1bb6
    8988:	4c8fb097          	auipc	ra,0x4c8fb
    898c:	ded1e213          	ori	tp,gp,-531
    8990:	587d40b7          	lui	ra,0x587d4
    8994:	2b2ab137          	lui	sp,0x2b2ab
    8998:	232ed1b7          	lui	gp,0x232ed
    899c:	0a2c70b7          	lui	ra,0xa2c7
    89a0:	63976097          	auipc	ra,0x63976
    89a4:	7fa28093          	addi	ra,t0,2042 # 0x5dedc0c2
    89a8:	41508863          	beq	ra,s5,0x8db8
    89ac:	40c001ef          	jal	gp,0x8db8
    89b0:	87d240b7          	lui	ra,0x87d24
    89b4:	7434f1b7          	lui	gp,0x7434f
    89b8:	e1a800b7          	lui	ra,0xe1a80
    89bc:	d0614193          	xori	gp,sp,-762
    89c0:	d4e7c097          	auipc	ra,0xd4e7c
    89c4:	00916133          	or	sp,sp,s1
    89c8:	bd837197          	auipc	gp,0xbd837
    89cc:	00916bb3          	or	s7,sp,s1
    89d0:	002083b3          	add	t2,ra,sp
    89d4:	9882c113          	xori	sp,t0,-1656
    89d8:	0000c0b3          	xor	ra,ra,zero
    89dc:	00216133          	or	sp,sp,sp
    89e0:	4534e237          	lui	tp,0x4534e
    89e4:	66c33137          	lui	sp,0x66c33
    89e8:	0023c0b3          	xor	ra,t2,sp
    89ec:	a3617193          	andi	gp,sp,-1482
    89f0:	a6e3a137          	lui	sp,0xa6e3a
    89f4:	d8e35097          	auipc	ra,0xd8e35
    89f8:	c48f7197          	auipc	gp,0xc48f7
    89fc:	11803cb7          	lui	s9,0x11803
    8a00:	406100b3          	sub	ra,sp,t1
    8a04:	f36dd137          	lui	sp,0xf36dd
    8a08:	0020f833          	and	a6,ra,sp
    8a0c:	fefd1097          	auipc	ra,0xfefd1
    8a10:	8194e017          	auipc	zero,0x8194e
    8a14:	fcd3e1b7          	lui	gp,0xfcd3e
    8a18:	33dc0237          	lui	tp,0x33dc0
    8a1c:	28345837          	lui	a6,0x28345
    8a20:	88bc3137          	lui	sp,0x88bc3
    8a24:	2fa1e193          	ori	gp,gp,762
    8a28:	00114133          	xor	sp,sp,ra
    8a2c:	237d31b7          	lui	gp,0x237d3
    8a30:	f1b29117          	auipc	sp,0xf1b29
    8a34:	002241b3          	xor	gp,tp,sp
    8a38:	dc660197          	auipc	gp,0xdc660
    8a3c:	f0e08213          	addi	tp,ra,-242 # 0xfffffffffefd991a
    8a40:	00000197          	auipc	gp,0x0
    8a44:	008182e7          	jalr	t0,8(gp) # 0x8a48
    8a48:	505c6197          	auipc	gp,0x505c6
    8a4c:	0021c133          	xor	sp,gp,sp
    8a50:	002176b3          	and	a3,sp,sp
    8a54:	401100b3          	sub	ra,sp,ra
    8a58:	47763197          	auipc	gp,0x47763
    8a5c:	c3226113          	ori	sp,tp,-974
    8a60:	6b89e097          	auipc	ra,0x6b89e
    8a64:	0011e1b3          	or	gp,gp,ra
    8a68:	7fa8f0b7          	lui	ra,0x7fa8f
    8a6c:	0031f1b3          	and	gp,gp,gp
    8a70:	002140b3          	xor	ra,sp,sp
    8a74:	cfd0f393          	andi	t2,ra,-771
    8a78:	4bb400b7          	lui	ra,0x4bb40
    8a7c:	007340b3          	xor	ra,t1,t2
    8a80:	338bd137          	lui	sp,0x338bd
    8a84:	63631137          	lui	sp,0x63631
    8a88:	89b17013          	andi	zero,sp,-1893
    8a8c:	2750f493          	andi	s1,ra,629
    8a90:	001182b3          	add	t0,gp,ra
    8a94:	91404093          	xori	ra,zero,-1772
    8a98:	6050e193          	ori	gp,ra,1541
    8a9c:	76c08093          	addi	ra,ra,1900 # 0x4bb4076c
    8aa0:	8507c317          	auipc	t1,0x8507c
    8aa4:	1213f0b7          	lui	ra,0x1213f
    8aa8:	32c6e0b7          	lui	ra,0x32c6e
    8aac:	11b1f093          	andi	ra,gp,283
    8ab0:	8a42e093          	ori	ra,t0,-1884
    8ab4:	3d2a9137          	lui	sp,0x3d2a9
    8ab8:	b804b317          	auipc	t1,0xb804b
    8abc:	a406e217          	auipc	tp,0xa406e
    8ac0:	9394b197          	auipc	gp,0x9394b
    8ac4:	3da08313          	addi	t1,ra,986 # 0x32c6e3da
    8ac8:	8dd3f237          	lui	tp,0x8dd3f
    8acc:	d0c78037          	lui	zero,0xd0c78
    8ad0:	6a8cc117          	auipc	sp,0x6a8cc
    8ad4:	00000197          	auipc	gp,0x0
    8ad8:	c0c18167          	jalr	sp,-1012(gp) # 0x86e0
    8adc:	b474b097          	auipc	ra,0xb474b
    8ae0:	991e41b7          	lui	gp,0x991e4
    8ae4:	c013f097          	auipc	ra,0xc013f
    8ae8:	9fe4d117          	auipc	sp,0x9fe4d
    8aec:	002000b3          	add	ra,zero,sp
    8af0:	4d71c193          	xori	gp,gp,1239
    8af4:	401281b3          	sub	gp,t0,ra
    8af8:	93d27097          	auipc	ra,0x93d27
    8afc:	a3687297          	auipc	t0,0xa3687
    8b00:	0021c133          	xor	sp,gp,sp
    8b04:	00d17233          	and	tp,sp,a3
    8b08:	fcd58193          	addi	gp,a1,-51 # 0x15713fcd
    8b0c:	f77dc137          	lui	sp,0xf77dc
    8b10:	bb20c293          	xori	t0,ra,-1102
    8b14:	9ca3a097          	auipc	ra,0x9ca3a
    8b18:	1bc23237          	lui	tp,0x1bc23
    8b1c:	0030c133          	xor	sp,ra,gp
    8b20:	7196c197          	auipc	gp,0x7196c
    8b24:	5e108393          	addi	t2,ra,1505 # 0xffffffff9ca430f5
    8b28:	ea11e193          	ori	gp,gp,-351
    8b2c:	2de540b7          	lui	ra,0x2de54
    8b30:	89014693          	xori	a3,sp,-1904
    8b34:	7bebd2b7          	lui	t0,0x7bebd
    8b38:	00d37333          	and	t1,t1,a3
    8b3c:	44034113          	xori	sp,t1,1088
    8b40:	40420133          	sub	sp,tp,tp
    8b44:	001283b3          	add	t2,t0,ra
    8b48:	8f70c113          	xori	sp,ra,-1801
    8b4c:	0d600137          	lui	sp,0xd600
    8b50:	0011c133          	xor	sp,gp,ra
    8b54:	40208033          	sub	zero,ra,sp
    8b58:	0011f1b3          	and	gp,gp,ra
    8b5c:	401181b3          	sub	gp,gp,ra
    8b60:	31617113          	andi	sp,sp,790
    8b64:	4fb0c113          	xori	sp,ra,1275
    8b68:	00058093          	mv	ra,a1
    8b6c:	dab084e3          	beq	ra,a1,0x8914
    8b70:	a49ff397          	auipc	t2,0xa49ff
    8b74:	bdf113b7          	lui	t2,0xbdf11
    8b78:	e9a0c113          	xori	sp,ra,-358
    8b7c:	856a6337          	lui	t1,0x856a6
    8b80:	40710133          	sub	sp,sp,t2
    8b84:	35d552b7          	lui	t0,0x35d55
    8b88:	0334c137          	lui	sp,0x334c
    8b8c:	533b2117          	auipc	sp,0x533b2
    8b90:	b0d29097          	auipc	ra,0xb0d29
    8b94:	ffd36117          	auipc	sp,0xffd36
    8b98:	001140b3          	xor	ra,sp,ra
    8b9c:	8e150117          	auipc	sp,0x8e150
    8ba0:	e2b0e093          	ori	ra,ra,-469
    8ba4:	6861f193          	andi	gp,gp,1670
    8ba8:	0d7d3117          	auipc	sp,0xd7d3
    8bac:	003281b3          	add	gp,t0,gp
    8bb0:	38a08093          	addi	ra,ra,906 # 0xffffffffb0d31f1a
    8bb4:	e3b1e193          	ori	gp,gp,-453
    8bb8:	2fe0f193          	andi	gp,ra,766
    8bbc:	0051c0b3          	xor	ra,gp,t0
    8bc0:	d5e61097          	auipc	ra,0xd5e61
    8bc4:	56a3a237          	lui	tp,0x56a3a
    8bc8:	3b6d71b7          	lui	gp,0x3b6d7
    8bcc:	a6e7d217          	auipc	tp,0xa6e7d
    8bd0:	47dc10b7          	lui	ra,0x47dc1
    8bd4:	aca23a37          	lui	s4,0xaca23
    8bd8:	f2e25197          	auipc	gp,0xf2e25
    8bdc:	e41ba597          	auipc	a1,0xe41ba
    8be0:	065b2337          	lui	t1,0x65b2
    8be4:	0020c0b3          	xor	ra,ra,sp
    8be8:	0010f7b3          	and	a5,ra,ra
    8bec:	00e1c093          	xori	ra,gp,14
    8bf0:	c134f097          	auipc	ra,0xc134f
    8bf4:	c0010ce3          	beqz	sp,0x880c
    8bf8:	c15ff2ef          	jal	t0,0x880c
    8bfc:	74c716b7          	lui	a3,0x74c71
    8c00:	402e80b3          	sub	ra,t4,sp
    8c04:	41116013          	ori	zero,sp,1041
    8c08:	12bca037          	lui	zero,0x12bca
    8c0c:	41fa73b7          	lui	t2,0x41fa7
    8c10:	4710e137          	lui	sp,0x4710e
    8c14:	6eff4137          	lui	sp,0x6eff4
    8c18:	007181b3          	add	gp,gp,t2
    8c1c:	0030c233          	xor	tp,ra,gp
    8c20:	8bd58097          	auipc	ra,0x8bd58
    8c24:	fa916313          	ori	t1,sp,-87
    8c28:	00110133          	add	sp,sp,ra
    8c2c:	45291137          	lui	sp,0x45291
    8c30:	c77ac117          	auipc	sp,0xc77ac
    8c34:	e61671b7          	lui	gp,0xe6167
    8c38:	1219b037          	lui	zero,0x1219b
    8c3c:	587510b7          	lui	ra,0x58751
    8c40:	2fd17193          	andi	gp,sp,765
    8c44:	563c2117          	auipc	sp,0x563c2
    8c48:	aa555637          	lui	a2,0xaa555
    8c4c:	41310333          	sub	t1,sp,s3
    8c50:	404101b3          	sub	gp,sp,tp
    8c54:	400081b3          	sub	gp,ra,zero
    8c58:	24ff31b7          	lui	gp,0x24ff3
    8c5c:	0020e4b3          	or	s1,ra,sp
    8c60:	65e38113          	addi	sp,t2,1630 # 0x41fa765e
    8c64:	2c2f5137          	lui	sp,0x2c2f5
    8c68:	002080b3          	add	ra,ra,sp
    8c6c:	4a2e0097          	auipc	ra,0x4a2e0
    8c70:	40318133          	sub	sp,gp,gp
    8c74:	9df18113          	addi	sp,gp,-1569 # 0x24ff29df
    8c78:	35b36093          	ori	ra,t1,859
    8c7c:	406100b3          	sub	ra,sp,t1
    8c80:	e5dbe1b7          	lui	gp,0xe5dbe
    8c84:	b9b4a237          	lui	tp,0xb9b4a
    8c88:	a2c493b7          	lui	t2,0xa2c49
    8c8c:	401102b3          	sub	t0,sp,ra
    8c90:	ae3084e3          	beq	ra,gp,0x8778
    8c94:	ae5ff36f          	jal	t1,0x8778
    8c98:	a827f193          	andi	gp,a5,-1406
    8c9c:	12518493          	addi	s1,gp,293 # 0xffffffffe5dbe125
    8ca0:	d780b197          	auipc	gp,0xd780b
    8ca4:	564271b7          	lui	gp,0x56427
    8ca8:	492e1797          	auipc	a5,0x492e1
    8cac:	3f718093          	addi	ra,gp,1015 # 0x564273f7
    8cb0:	0010e1b3          	or	gp,ra,ra
    8cb4:	670d9097          	auipc	ra,0x670d9
    8cb8:	16614193          	xori	gp,sp,358
    8cbc:	9ee0e193          	ori	gp,ra,-1554
    8cc0:	51ae3197          	auipc	gp,0x51ae3
    8cc4:	710e71b7          	lui	gp,0x710e7
    8cc8:	851d30b7          	lui	ra,0x851d3
    8ccc:	003171b3          	and	gp,sp,gp
    8cd0:	401480b3          	sub	ra,s1,ra
    8cd4:	1d330793          	addi	a5,t1,467 # 0x65b21d3
    8cd8:	93fc10b7          	lui	ra,0x93fc1
    8cdc:	8680f393          	andi	t2,ra,-1944
    8ce0:	f8b97217          	auipc	tp,0xf8b97
    8ce4:	9df1e093          	ori	ra,gp,-1569
    8ce8:	71c37193          	andi	gp,t1,1820
    8cec:	f0d6b117          	auipc	sp,0xf0d6b
    8cf0:	cf8c1117          	auipc	sp,0xcf8c1
    8cf4:	7bed7097          	auipc	ra,0x7bed7
    8cf8:	35a0c117          	auipc	sp,0x35a0c
    8cfc:	a966f317          	auipc	t1,0xa966f
    8d00:	0031e0b3          	or	ra,gp,gp
    8d04:	001081b3          	add	gp,ra,ra
    8d08:	00f1f1b3          	and	gp,gp,a5
    8d0c:	5a008293          	addi	t0,ra,1440 # 0x7bee0294
    8d10:	0030e2b3          	or	t0,ra,gp
    8d14:	e5736113          	ori	sp,t1,-425
    8d18:	8a34d117          	auipc	sp,0x8a34d
    8d1c:	157b5097          	auipc	ra,0x157b5
    8d20:	0042f0b3          	and	ra,t0,tp
    8d24:	000b0093          	mv	ra,s6
    8d28:	c96084e3          	beq	ra,s6,0x89b0
    8d2c:	d07a8037          	lui	zero,0xd07a8
    8d30:	40308233          	sub	tp,ra,gp
    8d34:	a1672337          	lui	t1,0xa1672
    8d38:	cfc1c093          	xori	ra,gp,-772
    8d3c:	003341b3          	xor	gp,t1,gp
    8d40:	ca1421b7          	lui	gp,0xca142
    8d44:	20d9a837          	lui	a6,0x20d9a
    8d48:	65abc197          	auipc	gp,0x65abc
    8d4c:	adb17093          	andi	ra,sp,-1317
    8d50:	dab36797          	auipc	a5,0xdab36
    8d54:	d1dd1137          	lui	sp,0xd1dd1
    8d58:	4fade117          	auipc	sp,0x4fade
    8d5c:	40b180b3          	sub	ra,gp,a1
    8d60:	15e30197          	auipc	gp,0x15e30
    8d64:	96194317          	auipc	t1,0x96194
    8d68:	9a4701b7          	lui	gp,0x9a470
    8d6c:	0033e233          	or	tp,t2,gp
    8d70:	d7005137          	lui	sp,0xd7005
    8d74:	b93a8137          	lui	sp,0xb93a8
    8d78:	06523397          	auipc	t2,0x6523
    8d7c:	40318133          	sub	sp,gp,gp
    8d80:	0021c0b3          	xor	ra,gp,sp
    8d84:	4ce1e217          	auipc	tp,0x4ce1e
    8d88:	c3ad10b7          	lui	ra,0xc3ad1
    8d8c:	0000f233          	and	tp,ra,zero
    8d90:	1965b097          	auipc	ra,0x1965b
    8d94:	f5216093          	ori	ra,sp,-174
    8d98:	84b61697          	auipc	a3,0x84b61
    8d9c:	239b7037          	lui	zero,0x239b7
    8da0:	54127117          	auipc	sp,0x54127
    8da4:	1862f093          	andi	ra,t0,390
    8da8:	00127133          	and	sp,tp,ra
    8dac:	0043f033          	and	zero,t2,tp
    8db0:	00310263          	beq	sp,gp,0x8db4
    8db4:	631001ef          	jal	gp,0x9be4
    8db8:	0030e2b3          	or	t0,ra,gp
    8dbc:	88314113          	xori	sp,sp,-1917
    8dc0:	001160b3          	or	ra,sp,ra
    8dc4:	c461e113          	ori	sp,gp,-954
    8dc8:	f9b57117          	auipc	sp,0xf9b57
    8dcc:	0033e3b3          	or	t2,t2,gp
    8dd0:	e77e03b7          	lui	t2,0xe77e0
    8dd4:	6692e113          	ori	sp,t0,1641
    8dd8:	5e40e037          	lui	zero,0x5e40e
    8ddc:	4bb14313          	xori	t1,sp,1211
    8de0:	1e548093          	addi	ra,s1,485 # 0x3ebab1e5
    8de4:	0e2061b7          	lui	gp,0xe206
    8de8:	04116093          	ori	ra,sp,65
    8dec:	016242b3          	xor	t0,tp,s6
    8df0:	5bb85317          	auipc	t1,0x5bb85
    8df4:	e60e6797          	auipc	a5,0xe60e6
    8df8:	76dc0297          	auipc	t0,0x76dc0
    8dfc:	003061b3          	or	gp,zero,gp
    8e00:	6bbbb137          	lui	sp,0x6bbbb
    8e04:	bef3e313          	ori	t1,t2,-1041
    8e08:	3e9ba117          	auipc	sp,0x3e9ba
    8e0c:	9178d117          	auipc	sp,0x9178d
    8e10:	e4f18113          	addi	sp,gp,-433 # 0xe205e4f
    8e14:	0011e0b3          	or	ra,gp,ra
    8e18:	395a1117          	auipc	sp,0x395a1
    8e1c:	00b100b3          	add	ra,sp,a1
    8e20:	405085b3          	sub	a1,ra,t0
    8e24:	401581b3          	sub	gp,a1,ra
    8e28:	009ea217          	auipc	tp,0x9ea
    8e2c:	78230593          	addi	a1,t1,1922 # 0x5bb8e572
    8e30:	dc2186e3          	beq	gp,sp,0x8bfc
    8e34:	dc9ff0ef          	jal	ra,0x8bfc
    8e38:	002180b3          	add	ra,gp,sp
    8e3c:	adcd9097          	auipc	ra,0xadcd9
    8e40:	00d38133          	add	sp,t2,a3
    8e44:	06ee2197          	auipc	gp,0x6ee2
    8e48:	e6b28093          	addi	ra,t0,-405 # 0x76dc8c63
    8e4c:	e41ee1b7          	lui	gp,0xe41ee
    8e50:	d0926213          	ori	tp,tp,-759
    8e54:	df728097          	auipc	ra,0xdf728
    8e58:	f6eb38b7          	lui	a7,0xf6eb3
    8e5c:	004fe133          	or	sp,t6,tp
    8e60:	00118233          	add	tp,gp,ra
    8e64:	40220133          	sub	sp,tp,sp
    8e68:	00108033          	add	zero,ra,ra
    8e6c:	0da73197          	auipc	gp,0xda73
    8e70:	dfe0c113          	xori	sp,ra,-514
    8e74:	00768133          	add	sp,a3,t2
    8e78:	16be20b7          	lui	ra,0x16be2
    8e7c:	817480b7          	lui	ra,0x81748
    8e80:	a6a701b7          	lui	gp,0xa6a70
    8e84:	e6b84117          	auipc	sp,0xe6b84
    8e88:	fcb0e113          	ori	sp,ra,-53
    8e8c:	40110133          	sub	sp,sp,ra
    8e90:	ad156213          	ori	tp,a0,-1327
    8e94:	00214133          	xor	sp,sp,sp
    8e98:	5be483b7          	lui	t2,0x5be48
    8e9c:	2ff3b197          	auipc	gp,0x2ff3b
    8ea0:	42bba197          	auipc	gp,0x42bba
    8ea4:	40548133          	sub	sp,s1,t0
    8ea8:	faa14313          	xori	t1,sp,-86
    8eac:	f3c1c193          	xori	gp,gp,-196
    8eb0:	00127133          	and	sp,tp,ra
    8eb4:	26a1a197          	auipc	gp,0x26a1a
    8eb8:	97579117          	auipc	sp,0x97579
    8ebc:	b14c60b7          	lui	ra,0xb14c6
    8ec0:	42c40137          	lui	sp,0x42c40
    8ec4:	71fd50b7          	lui	ra,0x71fd5
    8ec8:	00310463          	beq	sp,gp,0x8ed0
    8ecc:	0040016f          	jal	sp,0x8ed0
    8ed0:	002cc1b3          	xor	gp,s9,sp
    8ed4:	5620f013          	andi	zero,ra,1378
    8ed8:	d8b16393          	ori	t2,sp,-629
    8edc:	79296037          	lui	zero,0x79296
    8ee0:	40110133          	sub	sp,sp,ra
    8ee4:	00916333          	or	t1,sp,s1
    8ee8:	1484ac97          	auipc	s9,0x1484a
    8eec:	d3fbc0b7          	lui	ra,0xd3fbc
    8ef0:	9cc1c193          	xori	gp,gp,-1588
    8ef4:	933b02b7          	lui	t0,0x933b0
    8ef8:	7b0442b7          	lui	t0,0x7b044
    8efc:	9040e313          	ori	t1,ra,-1788
    8f00:	4d90d197          	auipc	gp,0x4d90d
    8f04:	e96b6113          	ori	sp,s6,-362
    8f08:	0020c3b3          	xor	t2,ra,sp
    8f0c:	cdf84097          	auipc	ra,0xcdf84
    8f10:	cd349197          	auipc	gp,0xcd349
    8f14:	46e27313          	andi	t1,tp,1134
    8f18:	a0b1c013          	xori	zero,gp,-1525
    8f1c:	8d00f293          	andi	t0,ra,-1840
    8f20:	41e1f293          	andi	t0,gp,1054
    8f24:	0040f133          	and	sp,ra,tp
    8f28:	183f7117          	auipc	sp,0x183f7
    8f2c:	45ba01b7          	lui	gp,0x45ba0
    8f30:	0040c033          	xor	zero,ra,tp
    8f34:	113f1117          	auipc	sp,0x113f1
    8f38:	40108333          	sub	t1,ra,ra
    8f3c:	bc314193          	xori	gp,sp,-1085
    8f40:	2f316093          	ori	ra,sp,755
    8f44:	5110c113          	xori	sp,ra,1297
    8f48:	d9853237          	lui	tp,0xd9853
    8f4c:	f6a73137          	lui	sp,0xf6a73
    8f50:	544fe237          	lui	tp,0x544fe
    8f54:	5031e193          	ori	gp,gp,1283
    8f58:	beb44097          	auipc	ra,0xbeb44
    8f5c:	01a16293          	ori	t0,sp,26
    8f60:	00218263          	beq	gp,sp,0x8f64
    8f64:	ee0ff16f          	jal	sp,0x8644
    8f68:	087c30b7          	lui	ra,0x87c3
    8f6c:	8de5a197          	auipc	gp,0x8de5a
    8f70:	00136133          	or	sp,t1,ra
    8f74:	0023c133          	xor	sp,t2,sp
    8f78:	59706113          	ori	sp,zero,1431
    8f7c:	0010f1b3          	and	gp,ra,ra
    8f80:	32418c13          	addi	s8,gp,804 # 0xffffffff8de63290
    8f84:	caaac0b7          	lui	ra,0xcaaac
    8f88:	0012e2b3          	or	t0,t0,ra
    8f8c:	12017093          	andi	ra,sp,288
    8f90:	81f55db7          	lui	s11,0x81f55
    8f94:	40348333          	sub	t1,s1,gp
    8f98:	851b0037          	lui	zero,0x851b0
    8f9c:	3e40f193          	andi	gp,ra,996
    8fa0:	a8114193          	xori	gp,sp,-1407
    8fa4:	0011f0b3          	and	ra,gp,ra
    8fa8:	2ec0e093          	ori	ra,ra,748
    8fac:	a821e293          	ori	t0,gp,-1406
    8fb0:	78497a97          	auipc	s5,0x78497
    8fb4:	00316033          	or	zero,sp,gp
    8fb8:	0000f0b3          	and	ra,ra,zero
    8fbc:	34cf2097          	auipc	ra,0x34cf2
    8fc0:	52116b13          	ori	s6,sp,1313
    8fc4:	00204333          	xor	t1,zero,sp
    8fc8:	0021f5b3          	and	a1,gp,sp
    8fcc:	5950d097          	auipc	ra,0x5950d
    8fd0:	0020c133          	xor	sp,ra,sp
    8fd4:	892c8137          	lui	sp,0x892c8
    8fd8:	d480f093          	andi	ra,ra,-696
    8fdc:	a4bcf017          	auipc	zero,0xa4bcf
    8fe0:	b86788e3          	beq	a5,t1,0x8b70
    8fe4:	b8dff0ef          	jal	ra,0x8b70
    8fe8:	d2ba2097          	auipc	ra,0xd2ba2
    8fec:	52b49097          	auipc	ra,0x52b49
    8ff0:	d2736093          	ori	ra,t1,-729
    8ff4:	15d4f137          	lui	sp,0x15d4f
    8ff8:	a5c640b7          	lui	ra,0xa5c64
    8ffc:	5bcc90b7          	lui	ra,0x5bcc9
    9000:	1a5b62b7          	lui	t0,0x1a5b6
    9004:	40618133          	sub	sp,gp,t1
    9008:	40310133          	sub	sp,sp,gp
    900c:	69d17193          	andi	gp,sp,1693
    9010:	402081b3          	sub	gp,ra,sp
    9014:	0001c1b3          	xor	gp,gp,zero
    9018:	89e33197          	auipc	gp,0x89e33
    901c:	56a0f013          	andi	zero,ra,1386
    9020:	001170b3          	and	ra,sp,ra
    9024:	01a0f033          	and	zero,ra,s10
    9028:	f1216093          	ori	ra,sp,-238
    902c:	62d280b7          	lui	ra,0x62d28
    9030:	e9e510b7          	lui	ra,0xe9e51
    9034:	1cb6f0b7          	lui	ra,0x1cb6f
    9038:	bd80d1b7          	lui	gp,0xbd80d
    903c:	00207033          	and	zero,zero,sp
    9040:	c7b0e113          	ori	sp,ra,-901
    9044:	0b508313          	addi	t1,ra,181 # 0x1cb6f0b5
    9048:	88c17393          	andi	t2,sp,-1908
    904c:	bd7fb037          	lui	zero,0xbd7fb
    9050:	29c13137          	lui	sp,0x29c13
    9054:	00217133          	and	sp,sp,sp
    9058:	68f82397          	auipc	t2,0x68f82
    905c:	b8a1e193          	ori	gp,gp,-1142
    9060:	0010e333          	or	t1,ra,ra
    9064:	00008213          	mv	tp,ra
    9068:	c21208e3          	beq	tp,ra,0x8c98
    906c:	1f3d2137          	lui	sp,0x1f3d2
    9070:	9498a337          	lui	t1,0x9498a
    9074:	7c336117          	auipc	sp,0x7c336
    9078:	00316133          	or	sp,sp,gp
    907c:	f968d0b7          	lui	ra,0xf968d
    9080:	e3e3d0b7          	lui	ra,0xe3e3d
    9084:	33ac52b7          	lui	t0,0x33ac5
    9088:	06e00113          	li	sp,110
    908c:	2f71e113          	ori	sp,gp,759
    9090:	48003117          	auipc	sp,0x48003
    9094:	1e3ae117          	auipc	sp,0x1e3ae
    9098:	1cb08193          	addi	gp,ra,459 # 0xffffffffe3e3d1cb
    909c:	00018033          	add	zero,gp,zero
    90a0:	2d4cb117          	auipc	sp,0x2d4cb
    90a4:	ba5b1097          	auipc	ra,0xba5b1
    90a8:	3dd22337          	lui	t1,0x3dd22
    90ac:	7550f337          	lui	t1,0x7550f
    90b0:	0030ff33          	and	t5,ra,gp
    90b4:	fc336193          	ori	gp,t1,-61
    90b8:	68922397          	auipc	t2,0x68922
    90bc:	f961e393          	ori	t2,gp,-106
    90c0:	fc08e097          	auipc	ra,0xfc08e
    90c4:	a944f137          	lui	sp,0xa944f
    90c8:	004140b3          	xor	ra,sp,tp
    90cc:	001060b3          	or	ra,zero,ra
    90d0:	3f088337          	lui	t1,0x3f088
    90d4:	d00cd037          	lui	zero,0xd00cd
    90d8:	405080b3          	sub	ra,ra,t0
    90dc:	28114393          	xori	t2,sp,641
    90e0:	e5f9e2b7          	lui	t0,0xe5f9e
    90e4:	0010f0b3          	and	ra,ra,ra
    90e8:	2d8f9197          	auipc	gp,0x2d8f9
    90ec:	00000117          	auipc	sp,0x0
    90f0:	e7c100e7          	jalr	-388(sp) # 0x8f68
    90f4:	001140b3          	xor	ra,sp,ra
    90f8:	1550c197          	auipc	gp,0x1550c
    90fc:	6a2b30b7          	lui	ra,0x6a2b3
    9100:	92942097          	auipc	ra,0x92942
    9104:	586e63b7          	lui	t2,0x586e6
    9108:	40210233          	sub	tp,sp,sp
    910c:	c42151b7          	lui	gp,0xc4215
    9110:	003080b3          	add	ra,ra,gp
    9114:	1dca4337          	lui	t1,0x1dca4
    9118:	50652097          	auipc	ra,0x50652
    911c:	3e80c197          	auipc	gp,0x3e80c
    9120:	00317233          	and	tp,sp,gp
    9124:	64910213          	addi	tp,sp,1609
    9128:	a35b43b7          	lui	t2,0xa35b4
    912c:	8addc097          	auipc	ra,0x8addc
    9130:	4cfe5117          	auipc	sp,0x4cfe5
    9134:	b8917113          	andi	sp,sp,-1143
    9138:	ed585197          	auipc	gp,0xed585
    913c:	849ec297          	auipc	t0,0x849ec
    9140:	81b9c197          	auipc	gp,0x81b9c
    9144:	0010e0b3          	or	ra,ra,ra
    9148:	3bb14093          	xori	ra,sp,955
    914c:	c7207113          	andi	sp,zero,-910
    9150:	002142b3          	xor	t0,sp,sp
    9154:	81a07193          	andi	gp,zero,-2022
    9158:	5229b137          	lui	sp,0x5229b
    915c:	7e92e293          	ori	t0,t0,2025
    9160:	bcab2037          	lui	zero,0xbcab2
    9164:	002365b3          	or	a1,t1,sp
    9168:	0011e1b3          	or	gp,gp,ra
    916c:	13318093          	addi	ra,gp,307 # 0xffffffff81ba5273
    9170:	00008113          	mv	sp,ra
    9174:	ba110ce3          	beq	sp,ra,0x8d2c
    9178:	9820b117          	auipc	sp,0x9820b
    917c:	2fa4a237          	lui	tp,0x2fa4a
    9180:	c4dde117          	auipc	sp,0xc4dde
    9184:	7ac54337          	lui	t1,0x7ac54
    9188:	0010c2b3          	xor	t0,ra,ra
    918c:	db710017          	auipc	zero,0xdb710
    9190:	4aeef237          	lui	tp,0x4aeef
    9194:	d5b2f293          	andi	t0,t0,-677
    9198:	fcc6e197          	auipc	gp,0xfcc6e
    919c:	2b217013          	andi	zero,sp,690
    91a0:	00114133          	xor	sp,sp,ra
    91a4:	c7e4a597          	auipc	a1,0xc7e4a
    91a8:	0021e0b3          	or	ra,gp,sp
    91ac:	0151c1b3          	xor	gp,gp,s5
    91b0:	aaf81137          	lui	sp,0xaaf81
    91b4:	989d61b7          	lui	gp,0x989d6
    91b8:	09f17093          	andi	ra,sp,159
    91bc:	402100b3          	sub	ra,sp,sp
    91c0:	079ca117          	auipc	sp,0x79ca
    91c4:	0051f0b3          	and	ra,gp,t0
    91c8:	1100f093          	andi	ra,ra,272
    91cc:	9631f093          	andi	ra,gp,-1693
    91d0:	00026697          	auipc	a3,0x26
    91d4:	401084b3          	sub	s1,ra,ra
    91d8:	fc0ea1b7          	lui	gp,0xfc0ea
    91dc:	ad2bb0b7          	lui	ra,0xad2bb
    91e0:	f040f093          	andi	ra,ra,-252
    91e4:	673bb097          	auipc	ra,0x673bb
    91e8:	4ab4c113          	xori	sp,s1,1195
    91ec:	002101b3          	add	gp,sp,sp
    91f0:	3f920137          	lui	sp,0x3f920
    91f4:	0034f033          	and	zero,s1,gp
    91f8:	d164d1b7          	lui	gp,0xd164d
    91fc:	400e81b3          	sub	gp,t4,zero
    9200:	a8ad40b7          	lui	ra,0xa8ad4
    9204:	dfd23297          	auipc	t0,0xdfd23
    9208:	0030c1b3          	xor	gp,ra,gp
    920c:	312db137          	lui	sp,0x312db
    9210:	00010093          	mv	ra,sp
    9214:	6e208e63          	beq	ra,sp,0x9910
    9218:	55428097          	auipc	ra,0x55428
    921c:	b847e113          	ori	sp,a5,-1148
    9220:	0025f333          	and	t1,a1,sp
    9224:	0ee271b7          	lui	gp,0xee27
    9228:	cb014093          	xori	ra,sp,-848
    922c:	5746e137          	lui	sp,0x5746e
    9230:	58114093          	xori	ra,sp,1409
    9234:	002171b3          	and	gp,sp,sp
    9238:	1a9c7117          	auipc	sp,0x1a9c7
    923c:	13c16193          	ori	gp,sp,316
    9240:	74f11137          	lui	sp,0x74f11
    9244:	03016113          	ori	sp,sp,48
    9248:	1a3f9217          	auipc	tp,0x1a3f9
    924c:	84ef6117          	auipc	sp,0x84ef6
    9250:	913431b7          	lui	gp,0x91343
    9254:	42adc137          	lui	sp,0x42adc
    9258:	8de1c193          	xori	gp,gp,-1826
    925c:	bff9f1b7          	lui	gp,0xbff9f
    9260:	eba1c193          	xori	gp,gp,-326
    9264:	bab4b2b7          	lui	t0,0xbab4b
    9268:	55116193          	ori	gp,sp,1361
    926c:	7ba4f117          	auipc	sp,0x7ba4f
    9270:	00118133          	add	sp,gp,ra
    9274:	a530f113          	andi	sp,ra,-1453
    9278:	13216093          	ori	ra,sp,306
    927c:	003181b3          	add	gp,gp,gp
    9280:	3ae3b217          	auipc	tp,0x3ae3b
    9284:	79c052b7          	lui	t0,0x79c05
    9288:	58dcc1b7          	lui	gp,0x58dcc
    928c:	f7e1e093          	ori	ra,gp,-130
    9290:	a1916113          	ori	sp,sp,-1511
    9294:	013145b3          	xor	a1,sp,s3
    9298:	a9d3e197          	auipc	gp,0xa9d3e
    929c:	00030693          	mv	a3,t1
    92a0:	22668c63          	beq	a3,t1,0x94d8
    92a4:	3b734097          	auipc	ra,0x3b734
    92a8:	3c186213          	ori	tp,a6,961
    92ac:	001160b3          	or	ra,sp,ra
    92b0:	f1216113          	ori	sp,sp,-238
    92b4:	f4a49097          	auipc	ra,0xf4a49
    92b8:	bbc3f293          	andi	t0,t2,-1092
    92bc:	0062c133          	xor	sp,t0,t1
    92c0:	47c4c1b7          	lui	gp,0x47c4c
    92c4:	038e91b7          	lui	gp,0x38e9
    92c8:	0030f133          	and	sp,ra,gp
    92cc:	0031c133          	xor	sp,gp,gp
    92d0:	a8453197          	auipc	gp,0xa8453
    92d4:	9c914093          	xori	ra,sp,-1591
    92d8:	7e9e8097          	auipc	ra,0x7e9e8
    92dc:	efb14193          	xori	gp,sp,-261
    92e0:	043d41b7          	lui	gp,0x43d4
    92e4:	527c1137          	lui	sp,0x527c1
    92e8:	8ed0f113          	andi	sp,ra,-1811
    92ec:	13960137          	lui	sp,0x13960
    92f0:	0032e1b3          	or	gp,t0,gp
    92f4:	37508037          	lui	zero,0x37508
    92f8:	b967a1b7          	lui	gp,0xb967a
    92fc:	a2ac5017          	auipc	zero,0xa2ac5
    9300:	b4922497          	auipc	s1,0xb4922
    9304:	a5d1e113          	ori	sp,gp,-1443
    9308:	3e314913          	xori	s2,sp,995
    930c:	40610133          	sub	sp,sp,t1
    9310:	7cf491b7          	lui	gp,0x7cf49
    9314:	b2c08013          	addi	zero,ra,-1236 # 0x7e9f0e04
    9318:	0031f133          	and	sp,gp,gp
    931c:	007240b3          	xor	ra,tp,t2
    9320:	00008193          	mv	gp,ra
    9324:	ee118ae3          	beq	gp,ra,0x9218
    9328:	ddc340b7          	lui	ra,0xddc34
    932c:	eeb1c237          	lui	tp,0xeeb1c
    9330:	13641137          	lui	sp,0x13641
    9334:	13d10393          	addi	t2,sp,317 # 0x1364113d
    9338:	5c19c117          	auipc	sp,0x5c19c
    933c:	16278d97          	auipc	s11,0x16278
    9340:	003141b3          	xor	gp,sp,gp
    9344:	40008e33          	sub	t3,ra,zero
    9348:	c3b1e113          	ori	sp,gp,-965
    934c:	0002c033          	xor	zero,t0,zero
    9350:	0012e1b3          	or	gp,t0,ra
    9354:	004061b3          	or	gp,zero,tp
    9358:	aec10193          	addi	gp,sp,-1300 # 0x5c1a4e24
    935c:	3821d117          	auipc	sp,0x3821d
    9360:	66e881b7          	lui	gp,0x66e88
    9364:	0c511c97          	auipc	s9,0xc511
    9368:	5a4ec137          	lui	sp,0x5a4ec
    936c:	75507093          	andi	ra,zero,1877
    9370:	d370f113          	andi	sp,ra,-713
    9374:	da630213          	addi	tp,t1,-602 # 0x7ac53da6
    9378:	00717133          	and	sp,sp,t2
    937c:	1af1c193          	xori	gp,gp,431
    9380:	0957b997          	auipc	s3,0x957b
    9384:	0ccd91b7          	lui	gp,0xccd9
    9388:	0021e333          	or	t1,gp,sp
    938c:	00308233          	add	tp,ra,gp
    9390:	6cdd5097          	auipc	ra,0x6cdd5
    9394:	00317133          	and	sp,sp,gp
    9398:	49b18193          	addi	gp,gp,1179 # 0xccd949b
    939c:	6cd741b7          	lui	gp,0x6cd74
    93a0:	1da44017          	auipc	zero,0x1da44
    93a4:	a1aa9197          	auipc	gp,0xa1aa9
    93a8:	ab4d4097          	auipc	ra,0xab4d4
    93ac:	002001b3          	add	gp,zero,sp
    93b0:	dbdde0b7          	lui	ra,0xdbdde
    93b4:	92a271b7          	lui	gp,0x92a27
    93b8:	5c608e63          	beq	ra,t1,0x9994
    93bc:	5d80016f          	jal	sp,0x9994
    93c0:	0036c0b3          	xor	ra,a3,gp
    93c4:	d282e193          	ori	gp,t0,-728
    93c8:	c7fd1f37          	lui	t5,0xc7fd1
    93cc:	6a378317          	auipc	t1,0x6a378
    93d0:	ad1f1097          	auipc	ra,0xad1f1
    93d4:	d9991097          	auipc	ra,0xd9991
    93d8:	865ca097          	auipc	ra,0x865ca
    93dc:	3281e013          	ori	zero,gp,808
    93e0:	0021c0b3          	xor	ra,gp,sp
    93e4:	099051b7          	lui	gp,0x9905
    93e8:	1f47f197          	auipc	gp,0x1f47f
    93ec:	0035f233          	and	tp,a1,gp
    93f0:	3128e337          	lui	t1,0x3128e
    93f4:	4dc08813          	addi	a6,ra,1244 # 0xffffffff865d38b4
    93f8:	9f009197          	auipc	gp,0x9f009
    93fc:	17b92197          	auipc	gp,0x17b92
    9400:	002142b3          	xor	t0,sp,sp
    9404:	4eae9237          	lui	tp,0x4eae9
    9408:	e72501b7          	lui	gp,0xe7250
    940c:	51b10093          	addi	ra,sp,1307 # 0x5a4ec51b
    9410:	a8ffc193          	xori	gp,t6,-1393
    9414:	0021c1b3          	xor	gp,gp,sp
    9418:	2e451097          	auipc	ra,0x2e451
    941c:	0030c133          	xor	sp,ra,gp
    9420:	1edf0017          	auipc	zero,0x1edf0
    9424:	b6b1f193          	andi	gp,gp,-1173
    9428:	aaa0c293          	xori	t0,ra,-1366
    942c:	7a5964b7          	lui	s1,0x7a596
    9430:	398951b7          	lui	gp,0x39895
    9434:	39a9b097          	auipc	ra,0x39a9b
    9438:	b57211b7          	lui	gp,0xb5721
    943c:	3b43f113          	andi	sp,t2,948
    9440:	22208c63          	beq	ra,sp,0x9678
    9444:	234001ef          	jal	gp,0x9678
    9448:	3d5c27b7          	lui	a5,0x3d5c2
    944c:	c70d9097          	auipc	ra,0xc70d9
    9450:	0033f2b3          	and	t0,t2,gp
    9454:	57fcf197          	auipc	gp,0x57fcf
    9458:	a910f137          	lui	sp,0xa910f
    945c:	c6008193          	addi	gp,ra,-928 # 0xffffffffc70e20ac
    9460:	9e88d017          	auipc	zero,0x9e88d
    9464:	004061b3          	or	gp,zero,tp
    9468:	c29ac197          	auipc	gp,0xc29ac
    946c:	003080b3          	add	ra,ra,gp
    9470:	000171b3          	and	gp,sp,zero
    9474:	f3409097          	auipc	ra,0xf3409
    9478:	0003f3b3          	and	t2,t2,zero
    947c:	35970517          	auipc	a0,0x35970
    9480:	0021e133          	or	sp,gp,sp
    9484:	7a5f61b7          	lui	gp,0x7a5f6
    9488:	403080b3          	sub	ra,ra,gp
    948c:	0011c1b3          	xor	gp,gp,ra
    9490:	00518133          	add	sp,gp,t0
    9494:	6c75d1b7          	lui	gp,0x6c75d
    9498:	4691f093          	andi	ra,gp,1129
    949c:	e20bd217          	auipc	tp,0xe20bd
    94a0:	41e0a097          	auipc	ra,0x41e0a
    94a4:	fda5f317          	auipc	t1,0xfda5f
    94a8:	40308033          	sub	zero,ra,gp
    94ac:	db416113          	ori	sp,sp,-588
    94b0:	c4fb1b97          	auipc	s7,0xc4fb1
    94b4:	06c7f037          	lui	zero,0x6c7f
    94b8:	000071b3          	and	gp,zero,zero
    94bc:	893021b7          	lui	gp,0x89302
    94c0:	00216233          	or	tp,sp,sp
    94c4:	4999b2b7          	lui	t0,0x4999b
    94c8:	c0827237          	lui	tp,0xc0827
    94cc:	a98f1137          	lui	sp,0xa98f1
    94d0:	00000217          	auipc	tp,0x0
    94d4:	e58201e7          	jalr	gp,-424(tp) # 0x0
    94d8:	e34871b7          	lui	gp,0xe3487
    94dc:	ba4e6117          	auipc	sp,0xba4e6
    94e0:	0012e1b3          	or	gp,t0,ra
    94e4:	b7dfd2b7          	lui	t0,0xb7dfd
    94e8:	897b32b7          	lui	t0,0x897b3
    94ec:	96b46297          	auipc	t0,0x96b46
    94f0:	40320033          	sub	zero,tp,gp
    94f4:	a5ca2017          	auipc	zero,0xa5ca2
    94f8:	41508133          	sub	sp,ra,s5
    94fc:	18d1f293          	andi	t0,gp,397
    9500:	97140137          	lui	sp,0x97140
    9504:	e6a25197          	auipc	gp,0xe6a25
    9508:	1d505117          	auipc	sp,0x1d505
    950c:	c5205197          	auipc	gp,0xc5205
    9510:	a9f8c097          	auipc	ra,0xa9f8c
    9514:	1edb0197          	auipc	gp,0x1edb0
    9518:	5e7b91b7          	lui	gp,0x5e7b9
    951c:	a4cf8093          	addi	ra,t6,-1460 # 0xffffffffb61b9a4c
    9520:	01b361b3          	or	gp,t1,s11
    9524:	8947b0b7          	lui	ra,0x8947b
    9528:	00618133          	add	sp,gp,t1
    952c:	19a02237          	lui	tp,0x19a02
    9530:	a8f8f0b7          	lui	ra,0xa8f8f
    9534:	ec72b137          	lui	sp,0xec72b
    9538:	f8be8197          	auipc	gp,0xf8be8
    953c:	3bd1f293          	andi	t0,gp,957
    9540:	4ead1197          	auipc	gp,0x4ead1
    9544:	b6cb90b7          	lui	ra,0xb6cb9
    9548:	f3696393          	ori	t2,s2,-202
    954c:	496c61b7          	lui	gp,0x496c6
    9550:	9de24117          	auipc	sp,0x9de24
    9554:	0070f133          	and	sp,ra,t2
    9558:	0002e133          	or	sp,t0,zero
    955c:	9ebb50b7          	lui	ra,0x9ebb5
    9560:	405080b3          	sub	ra,ra,t0
    9564:	002182b3          	add	t0,gp,sp
    9568:	54310463          	beq	sp,gp,0x9ab0
    956c:	544002ef          	jal	t0,0x9ab0
    9570:	8ea31097          	auipc	ra,0x8ea31
    9574:	11abc117          	auipc	sp,0x11abc
    9578:	9f117113          	andi	sp,sp,-1551
    957c:	1d014093          	xori	ra,sp,464
    9580:	0e806093          	ori	ra,zero,232
    9584:	adb30113          	addi	sp,t1,-1317 # 0xfffffffffda67f7f
    9588:	00137133          	and	sp,t1,ra
    958c:	941e15b7          	lui	a1,0x941e1
    9590:	4f449297          	auipc	t0,0x4f449
    9594:	a3e39837          	lui	a6,0xa3e39
    9598:	e190e197          	auipc	gp,0xe190e
    959c:	6c5671b7          	lui	gp,0x6c567
    95a0:	40110133          	sub	sp,sp,ra
    95a4:	1fa4c0b7          	lui	ra,0x1fa4c
    95a8:	72500113          	li	sp,1829
    95ac:	999f92b7          	lui	t0,0x999f9
    95b0:	7b908293          	addi	t0,ra,1977 # 0x1fa4c7b9
    95b4:	74d6f297          	auipc	t0,0x74d6f
    95b8:	169f8097          	auipc	ra,0x169f8
    95bc:	0031e1b3          	or	gp,gp,gp
    95c0:	40938133          	sub	sp,t2,s1
    95c4:	ce5fa1b7          	lui	gp,0xce5fa
    95c8:	18261117          	auipc	sp,0x18261
    95cc:	35300093          	li	ra,851
    95d0:	00637133          	and	sp,t1,t1
    95d4:	602c90b7          	lui	ra,0x602c9
    95d8:	c0b3a397          	auipc	t2,0xc0b3a
    95dc:	c62fa237          	lui	tp,0xc62fa
    95e0:	7a972137          	lui	sp,0x7a972
    95e4:	57014113          	xori	sp,sp,1392
    95e8:	5a1ec117          	auipc	sp,0x5a1ec
    95ec:	69274197          	auipc	gp,0x69274
    95f0:	b89104e3          	beq	sp,s1,0x9178
    95f4:	b85ff0ef          	jal	ra,0x9178
    95f8:	13403097          	auipc	ra,0x13403
    95fc:	c6ea1117          	auipc	sp,0xc6ea1
    9600:	4119f117          	auipc	sp,0x4119f
    9604:	ac01e313          	ori	t1,gp,-1344
    9608:	f091e097          	auipc	ra,0xf091e
    960c:	e4d266b7          	lui	a3,0xe4d26
    9610:	45533037          	lui	zero,0x45533
    9614:	40008133          	sub	sp,ra,zero
    9618:	2ec14a93          	xori	s5,sp,748
    961c:	7fb52297          	auipc	t0,0x7fb52
    9620:	ceb2c293          	xori	t0,t0,-789
    9624:	b72510b7          	lui	ra,0xb7251
    9628:	8e7df037          	lui	zero,0x8e7df
    962c:	070ec1b7          	lui	gp,0x70ec
    9630:	20d08297          	auipc	t0,0x20d08
    9634:	0031c133          	xor	sp,gp,gp
    9638:	01b2c133          	xor	sp,t0,s11
    963c:	2b608193          	addi	gp,ra,694 # 0xffffffffb72512b6
    9640:	3e55c4b7          	lui	s1,0x3e55c
    9644:	4ef60117          	auipc	sp,0x4ef60
    9648:	002365b3          	or	a1,t1,sp
    964c:	001080b3          	add	ra,ra,ra
    9650:	df617193          	andi	gp,sp,-522
    9654:	19710313          	addi	t1,sp,407 # 0x4ef697db
    9658:	950ca117          	auipc	sp,0x950ca
    965c:	0137e1b3          	or	gp,a5,s3
    9660:	a4928213          	addi	tp,t0,-1463 # 0x20d11079
    9664:	34a30213          	addi	tp,t1,842
    9668:	79d40397          	auipc	t2,0x79d40
    966c:	77614193          	xori	gp,sp,1910
    9670:	00010193          	mv	gp,sp
    9674:	08218863          	beq	gp,sp,0x9704
    9678:	7b8f2537          	lui	a0,0x7b8f2
    967c:	403080b3          	sub	ra,ra,gp
    9680:	d8dbb197          	auipc	gp,0xd8dbb
    9684:	f281f193          	andi	gp,gp,-216
    9688:	c0260237          	lui	tp,0xc0260
    968c:	0032e133          	or	sp,t0,gp
    9690:	cdb1f893          	andi	a7,gp,-805
    9694:	b83c71b7          	lui	gp,0xb83c7
    9698:	efa9b1b7          	lui	gp,0xefa9b
    969c:	1d416393          	ori	t2,sp,468
    96a0:	d58fd097          	auipc	ra,0xd58fd
    96a4:	d74312b7          	lui	t0,0xd7431
    96a8:	c1e1f013          	andi	zero,gp,-994
    96ac:	fd214113          	xori	sp,sp,-46
    96b0:	77ee7093          	andi	ra,t3,1918
    96b4:	0e6a00b7          	lui	ra,0xe6a0
    96b8:	1ff08013          	addi	zero,ra,511 # 0xe6a01ff
    96bc:	d171e393          	ori	t2,gp,-745
    96c0:	8c0a0137          	lui	sp,0x8c0a0
    96c4:	2f9e4097          	auipc	ra,0x2f9e4
    96c8:	77691117          	auipc	sp,0x77691
    96cc:	9a218393          	addi	t2,gp,-1630 # 0xffffffffefa9a9a2
    96d0:	7f23e693          	ori	a3,t2,2034
    96d4:	d3b7f137          	lui	sp,0xd3b7f
    96d8:	0000e133          	or	sp,ra,zero
    96dc:	c628a0b7          	lui	ra,0xc628a
    96e0:	1b8791b7          	lui	gp,0x1b879
    96e4:	c294b697          	auipc	a3,0xc294b
    96e8:	59d047b7          	lui	a5,0x59d04
    96ec:	8b367493          	andi	s1,a2,-1869
    96f0:	9d8321b7          	lui	gp,0x9d832
    96f4:	64f191b7          	lui	gp,0x64f19
    96f8:	0010c1b3          	xor	gp,ra,ra
    96fc:	e6018ae3          	beqz	gp,0x9570
    9700:	e71ff1ef          	jal	gp,0x9570
    9704:	00014133          	xor	sp,sp,zero
    9708:	008070b3          	and	ra,zero,s0
    970c:	ac8911b7          	lui	gp,0xac891
    9710:	a860c393          	xori	t2,ra,-1402
    9714:	ddbed317          	auipc	t1,0xddbed
    9718:	1e116113          	ori	sp,sp,481
    971c:	e59e90b7          	lui	ra,0xe59e9
    9720:	4c21e113          	ori	sp,gp,1218
    9724:	85b421b7          	lui	gp,0x85b42
    9728:	407180b3          	sub	ra,gp,t2
    972c:	e528b0b7          	lui	ra,0xe528b
    9730:	0010f1b3          	and	gp,ra,ra
    9734:	4bed0197          	auipc	gp,0x4bed0
    9738:	09c1e093          	ori	ra,gp,156
    973c:	3072e197          	auipc	gp,0x3072e
    9740:	512b0017          	auipc	zero,0x512b0
    9744:	002de133          	or	sp,s11,sp
    9748:	003063b3          	or	t2,zero,gp
    974c:	2ae10293          	addi	t0,sp,686 # 0xffffffffd3b7f2ae
    9750:	001270b3          	and	ra,tp,ra
    9754:	317c6113          	ori	sp,s8,791
    9758:	dc82a197          	auipc	gp,0xdc82a
    975c:	52527197          	auipc	gp,0x52527
    9760:	9ac5f0b7          	lui	ra,0x9ac5f
    9764:	403180b3          	sub	ra,gp,gp
    9768:	f060e113          	ori	sp,ra,-250
    976c:	00217133          	and	sp,sp,sp
    9770:	404100b3          	sub	ra,sp,tp
    9774:	b55d10b7          	lui	ra,0xb55d1
    9778:	fbf290b7          	lui	ra,0xfbf29
    977c:	0041f333          	and	t1,gp,tp
    9780:	fd5ad217          	auipc	tp,0xfd5ad
    9784:	00000193          	li	gp,0
    9788:	10018063          	beqz	gp,0x9888
    978c:	5b29b2b7          	lui	t0,0x5b29b
    9790:	002171b3          	and	gp,sp,sp
    9794:	ed218097          	auipc	ra,0xed218
    9798:	fb31f093          	andi	ra,gp,-77
    979c:	002082b3          	add	t0,ra,sp
    97a0:	00136c33          	or	s8,t1,ra
    97a4:	2bf0c093          	xori	ra,ra,703
    97a8:	394f11b7          	lui	gp,0x394f1
    97ac:	f8006137          	lui	sp,0xf8006
    97b0:	2760e293          	ori	t0,ra,630
    97b4:	c8847017          	auipc	zero,0xc8847
    97b8:	66714413          	xori	s0,sp,1639
    97bc:	40318833          	sub	a6,gp,gp
    97c0:	a541f093          	andi	ra,gp,-1452
    97c4:	00918e33          	add	t3,gp,s1
    97c8:	a2604037          	lui	zero,0xa2604
    97cc:	8a51a117          	auipc	sp,0x8a51a
    97d0:	3aacf1b7          	lui	gp,0x3aacf
    97d4:	813ff197          	auipc	gp,0x813ff
    97d8:	01e70333          	add	t1,a4,t5
    97dc:	728a4117          	auipc	sp,0x728a4
    97e0:	00177133          	and	sp,a4,ra
    97e4:	e7b10093          	addi	ra,sp,-389 # 0x728ad657
    97e8:	40b66137          	lui	sp,0x40b66
    97ec:	34559037          	lui	zero,0x34559
    97f0:	4821e293          	ori	t0,gp,1154
    97f4:	0011f033          	and	zero,gp,ra
    97f8:	3a515197          	auipc	gp,0x3a515
    97fc:	1793f2b7          	lui	t0,0x1793f
    9800:	bec2f2b7          	lui	t0,0xbec2f
    9804:	00018193          	mv	gp,gp
    9808:	ba318ce3          	beq	gp,gp,0x93c0
    980c:	4c79a137          	lui	sp,0x4c79a
    9810:	6a433317          	auipc	t1,0x6a433
    9814:	0051f133          	and	sp,gp,t0
    9818:	3c31f193          	andi	gp,gp,963
    981c:	48b10193          	addi	gp,sp,1163 # 0x4c79a48b
    9820:	4410e113          	ori	sp,ra,1089
    9824:	78173097          	auipc	ra,0x78173
    9828:	006e81b3          	add	gp,t4,t1
    982c:	00d1f2b3          	and	t0,gp,a3
    9830:	00324133          	xor	sp,tp,gp
    9834:	50136317          	auipc	t1,0x50136
    9838:	402181b3          	sub	gp,gp,sp
    983c:	0bff1297          	auipc	t0,0xbff1
    9840:	45665397          	auipc	t2,0x45665
    9844:	f4748093          	addi	ra,s1,-185 # 0x3e55bf47
    9848:	2421e313          	ori	t1,gp,578
    984c:	0180f133          	and	sp,ra,s8
    9850:	007182b3          	add	t0,gp,t2
    9854:	003160b3          	or	ra,sp,gp
    9858:	dfea4037          	lui	zero,0xdfea4
    985c:	76d10093          	addi	ra,sp,1901
    9860:	2810f493          	andi	s1,ra,641
    9864:	0010c0b3          	xor	ra,ra,ra
    9868:	003081b3          	add	gp,ra,gp
    986c:	a4410093          	addi	ra,sp,-1468
    9870:	989c4117          	auipc	sp,0x989c4
    9874:	003183b3          	add	t2,gp,gp
    9878:	3161c393          	xori	t2,gp,790
    987c:	b5d16293          	ori	t0,sp,-1187
    9880:	00018193          	mv	gp,gp
    9884:	1a318263          	beq	gp,gp,0x9a28
    9888:	40108133          	sub	sp,ra,ra
    988c:	755bd097          	auipc	ra,0x755bd
    9890:	114f01b7          	lui	gp,0x114f0
    9894:	0a9e61b7          	lui	gp,0xa9e6
    9898:	3f57b097          	auipc	ra,0x3f57b
    989c:	290c7137          	lui	sp,0x290c7
    98a0:	00116533          	or	a0,sp,ra
    98a4:	9052e113          	ori	sp,t0,-1787
    98a8:	001140b3          	xor	ra,sp,ra
    98ac:	9c71c013          	xori	zero,gp,-1593
    98b0:	bbdf3197          	auipc	gp,0xbbdf3
    98b4:	4a2a2337          	lui	t1,0x4a2a2
    98b8:	56a16393          	ori	t2,sp,1386
    98bc:	dce18113          	addi	sp,gp,-562 # 0xffffffffbbdfc67e
    98c0:	1d157097          	auipc	ra,0x1d157
    98c4:	8129f137          	lui	sp,0x8129f
    98c8:	0021e3b3          	or	t2,gp,sp
    98cc:	15c84197          	auipc	gp,0x15c84
    98d0:	9cf5a0b7          	lui	ra,0x9cf5a
    98d4:	2a113197          	auipc	gp,0x2a113
    98d8:	0032c2b3          	xor	t0,t0,gp
    98dc:	fb20c313          	xori	t1,ra,-78
    98e0:	409200b3          	sub	ra,tp,s1
    98e4:	890f4097          	auipc	ra,0x890f4
    98e8:	0063c133          	xor	sp,t2,t1
    98ec:	173d81b7          	lui	gp,0x173d8
    98f0:	00217033          	and	zero,sp,sp
    98f4:	0021e1b3          	or	gp,gp,sp
    98f8:	8a6fe197          	auipc	gp,0x8a6fe
    98fc:	c240c613          	xori	a2,ra,-988
    9900:	6f47d017          	auipc	zero,0x6f47d
    9904:	77914113          	xori	sp,sp,1913
    9908:	00000197          	auipc	gp,0x0
    990c:	f04186e7          	jalr	a3,-252(gp) # 0x980c
    9910:	ed516113          	ori	sp,sp,-299
    9914:	eb4c4697          	auipc	a3,0xeb4c4
    9918:	09bc1117          	auipc	sp,0x9bc1
    991c:	b59ff137          	lui	sp,0xb59ff
    9920:	9f0f1197          	auipc	gp,0x9f0f1
    9924:	97b16193          	ori	gp,sp,-1669
    9928:	2e0f6197          	auipc	gp,0x2e0f6
    992c:	40210133          	sub	sp,sp,sp
    9930:	00107133          	and	sp,zero,ra
    9934:	f0930193          	addi	gp,t1,-247 # 0x4a2a1f09
    9938:	027fa1b7          	lui	gp,0x27fa
    993c:	5115f1b7          	lui	gp,0x5115f
    9940:	b1aa9097          	auipc	ra,0xb1aa9
    9944:	0c6451b7          	lui	gp,0xc645
    9948:	67d52097          	auipc	ra,0x67d52
    994c:	fc4805b7          	lui	a1,0xfc480
    9950:	475e61b7          	lui	gp,0x475e6
    9954:	b7b1f193          	andi	gp,gp,-1157
    9958:	005086b3          	add	a3,ra,t0
    995c:	5a02e197          	auipc	gp,0x5a02e
    9960:	282fd1b7          	lui	gp,0x282fd
    9964:	25102197          	auipc	gp,0x25102
    9968:	00717033          	and	zero,sp,t2
    996c:	1591e193          	ori	gp,gp,345
    9970:	00214333          	xor	t1,sp,sp
    9974:	09d1c093          	xori	ra,gp,157
    9978:	9bd3d1b7          	lui	gp,0x9bd3d
    997c:	55188117          	auipc	sp,0x55188
    9980:	7007e1b7          	lui	gp,0x7007e
    9984:	002081b3          	add	gp,ra,sp
    9988:	ad3bf197          	auipc	gp,0xad3bf
    998c:	aa408ee3          	beq	ra,tp,0x9448
    9990:	ab9ff2ef          	jal	t0,0x9448
    9994:	0021e0b3          	or	ra,gp,sp
    9998:	c09af097          	auipc	ra,0xc09af
    999c:	cdc0b2b7          	lui	t0,0xcdc0b
    99a0:	2272d197          	auipc	gp,0x2272d
    99a4:	003381b3          	add	gp,t2,gp
    99a8:	0016e133          	or	sp,a3,ra
    99ac:	e0317113          	andi	sp,sp,-509
    99b0:	2dbc8117          	auipc	sp,0x2dbc8
    99b4:	fc514313          	xori	t1,sp,-59
    99b8:	8d4bc097          	auipc	ra,0x8d4bc
    99bc:	0aeed3b7          	lui	t2,0xaeed
    99c0:	96ea9597          	auipc	a1,0x96ea9
    99c4:	f5627193          	andi	gp,tp,-170
    99c8:	bd959137          	lui	sp,0xbd959
    99cc:	402181b3          	sub	gp,gp,sp
    99d0:	4570d1b7          	lui	gp,0x4570d
    99d4:	402080b3          	sub	ra,ra,sp
    99d8:	d0b5e137          	lui	sp,0xd0b5e
    99dc:	7a024093          	xori	ra,tp,1952
    99e0:	132f6217          	auipc	tp,0x132f6
    99e4:	00318133          	add	sp,gp,gp
    99e8:	f47ca1b7          	lui	gp,0xf47ca
    99ec:	a9008093          	addi	ra,ra,-1392 # 0xffffffff8d4c5448
    99f0:	00117133          	and	sp,sp,ra
    99f4:	6eb67317          	auipc	t1,0x6eb67
    99f8:	c2720197          	auipc	gp,0xc2720
    99fc:	98a4e137          	lui	sp,0x98a4e
    9a00:	00320133          	add	sp,tp,gp
    9a04:	d2a0c0b7          	lui	ra,0xd2a0c
    9a08:	2738e117          	auipc	sp,0x2738e
    9a0c:	d018b137          	lui	sp,0xd018b
    9a10:	3c874137          	lui	sp,0x3c874
    9a14:	7a41f193          	andi	gp,gp,1956
    9a18:	0010e133          	or	sp,ra,ra
    9a1c:	003170b3          	and	ra,sp,gp
    9a20:	00308263          	beq	ra,gp,0x9a24
    9a24:	46d0006f          	j	0xa690
    9a28:	e3cb6137          	lui	sp,0xe3cb6
    9a2c:	97f0c093          	xori	ra,ra,-1665
    9a30:	01b1c133          	xor	sp,gp,s11
    9a34:	2140f113          	andi	sp,ra,532
    9a38:	0021e1b3          	or	gp,gp,sp
    9a3c:	ed504297          	auipc	t0,0xed504
    9a40:	91ab8197          	auipc	gp,0x91ab8
    9a44:	09793117          	auipc	sp,0x9793
    9a48:	4488a0b7          	lui	ra,0x4488a
    9a4c:	8e867397          	auipc	t2,0x8e867
    9a50:	001380b3          	add	ra,t2,ra
    9a54:	004141b3          	xor	gp,sp,tp
    9a58:	e7408113          	addi	sp,ra,-396 # 0x44889e74
    9a5c:	c5914213          	xori	tp,sp,-935
    9a60:	0071e1b3          	or	gp,gp,t2
    9a64:	80f3b137          	lui	sp,0x80f3b
    9a68:	b5d79137          	lui	sp,0xb5d79
    9a6c:	b0e73d17          	auipc	s10,0xb0e73
    9a70:	677cd0b7          	lui	ra,0x677cd
    9a74:	488a0097          	auipc	ra,0x488a0
    9a78:	9ebc6197          	auipc	gp,0x9ebc6
    9a7c:	402301b3          	sub	gp,t1,sp
    9a80:	0030e133          	or	sp,ra,gp
    9a84:	403580b3          	sub	ra,a1,gp
    9a88:	e4d85617          	auipc	a2,0xe4d85
    9a8c:	00320133          	add	sp,tp,gp
    9a90:	92f16493          	ori	s1,sp,-1745
    9a94:	aaf96097          	auipc	ra,0xaaf96
    9a98:	79d3e113          	ori	sp,t2,1949
    9a9c:	401000b3          	neg	ra,ra
    9aa0:	5219c137          	lui	sp,0x5219c
    9aa4:	0060e2b3          	or	t0,ra,t1
    9aa8:	ce2182e3          	beq	gp,sp,0x978c
    9aac:	ce1ff9ef          	jal	s3,0x978c
    9ab0:	270ee137          	lui	sp,0x270ee
    9ab4:	3e917113          	andi	sp,sp,1001
    9ab8:	d815e197          	auipc	gp,0xd815e
    9abc:	002260b3          	or	ra,tp,sp
    9ac0:	b4ead0b7          	lui	ra,0xb4ead
    9ac4:	0b286137          	lui	sp,0xb286
    9ac8:	94c00d13          	li	s10,-1716
    9acc:	d059a137          	lui	sp,0xd059a
    9ad0:	6e747117          	auipc	sp,0x6e747
    9ad4:	678a10b7          	lui	ra,0x678a1
    9ad8:	ff0f5097          	auipc	ra,0xff0f5
    9adc:	f22120b7          	lui	ra,0xf2212
    9ae0:	8fb6a197          	auipc	gp,0x8fb6a
    9ae4:	622a3097          	auipc	ra,0x622a3
    9ae8:	5891e113          	ori	sp,gp,1417
    9aec:	00314133          	xor	sp,sp,gp
    9af0:	0031c0b3          	xor	ra,gp,gp
    9af4:	9a81e293          	ori	t0,gp,-1624
    9af8:	0011c1b3          	xor	gp,gp,ra
    9afc:	c797e1b7          	lui	gp,0xc797e
    9b00:	a8308193          	addi	gp,ra,-1405 # 0x622ac567
    9b04:	cebab0b7          	lui	ra,0xcebab
    9b08:	03930113          	addi	sp,t1,57 # 0x6eb70a2d
    9b0c:	9bc67117          	auipc	sp,0x9bc67
    9b10:	fe679517          	auipc	a0,0xfe679
    9b14:	2e930193          	addi	gp,t1,745
    9b18:	a671f093          	andi	ra,gp,-1433
    9b1c:	8ea01217          	auipc	tp,0x8ea01
    9b20:	b3117093          	andi	ra,sp,-1231
    9b24:	b0da1137          	lui	sp,0xb0da1
    9b28:	0000c133          	xor	sp,ra,zero
    9b2c:	2c05b117          	auipc	sp,0x2c05b
    9b30:	00208233          	add	tp,ra,sp
    9b34:	0d330597          	auipc	a1,0xd330
    9b38:	00018093          	mv	ra,gp
    9b3c:	00308263          	beq	ra,gp,0x9b40
    9b40:	00016f33          	or	t5,sp,zero
    9b44:	4b2bb097          	auipc	ra,0x4b2bb
    9b48:	003081b3          	add	gp,ra,gp
    9b4c:	0011c133          	xor	sp,gp,ra
    9b50:	406000b3          	neg	ra,t1
    9b54:	0138c117          	auipc	sp,0x138c
    9b58:	b1900313          	li	t1,-1255
    9b5c:	00e100b3          	add	ra,sp,a4
    9b60:	b1c10213          	addi	tp,sp,-1252 # 0x1395670
    9b64:	0010c1b3          	xor	gp,ra,ra
    9b68:	fa10e113          	ori	sp,ra,-95
    9b6c:	a4a7c137          	lui	sp,0xa4a7c
    9b70:	fe7491b7          	lui	gp,0xfe749
    9b74:	0251c193          	xori	gp,gp,37
    9b78:	272a32b7          	lui	t0,0x272a3
    9b7c:	a5d1c113          	xori	sp,gp,-1443
    9b80:	ceb7e0b7          	lui	ra,0xceb7e
    9b84:	6836e217          	auipc	tp,0x6836e
    9b88:	004080b3          	add	ra,ra,tp
    9b8c:	002271b3          	and	gp,tp,sp
    9b90:	40230ab3          	sub	s5,t1,sp
    9b94:	0010c133          	xor	sp,ra,ra
    9b98:	6dc74197          	auipc	gp,0x6dc74
    9b9c:	f8b14317          	auipc	t1,0xf8b14
    9ba0:	406081b3          	sub	gp,ra,t1
    9ba4:	7f13f213          	andi	tp,t2,2033
    9ba8:	ffd0c693          	xori	a3,ra,-3
    9bac:	0030c3b3          	xor	t2,ra,gp
    9bb0:	4d0101b7          	lui	gp,0x4d010
    9bb4:	002101b3          	add	gp,sp,sp
    9bb8:	009340b3          	xor	ra,t1,s1
    9bbc:	4441e213          	ori	tp,gp,1092
    9bc0:	06ef11b7          	lui	gp,0x6ef1
    9bc4:	eff8e117          	auipc	sp,0xeff8e
    9bc8:	04611197          	auipc	gp,0x4611
    9bcc:	a775f337          	lui	t1,0xa775f
    9bd0:	f4f6ca13          	xori	s4,a3,-177
    9bd4:	70a16313          	ori	t1,sp,1802
    9bd8:	af34f097          	auipc	ra,0xaf34f
    9bdc:	a0308ee3          	beq	ra,gp,0x95f8
    9be0:	a19ff26f          	jal	tp,0x95f8
    9be4:	4515b997          	auipc	s3,0x4515b
    9be8:	82617093          	andi	ra,sp,-2010
    9bec:	c3c36093          	ori	ra,t1,-964
    9bf0:	006060b3          	or	ra,zero,t1
    9bf4:	130796b7          	lui	a3,0x13079
    9bf8:	ae8f9117          	auipc	sp,0xae8f9
    9bfc:	34918193          	addi	gp,gp,841 # 0x461af11
    9c00:	00236133          	or	sp,t1,sp
    9c04:	00208333          	add	t1,ra,sp
    9c08:	ade421b7          	lui	gp,0xade42
    9c0c:	a5924113          	xori	sp,tp,-1447
    9c10:	37e1e293          	ori	t0,gp,894
    9c14:	78ec70b7          	lui	ra,0x78ec7
    9c18:	32f0de37          	lui	t3,0x32f0d
    9c1c:	00158133          	add	sp,a1,ra
    9c20:	50810093          	addi	ra,sp,1288 # 0xffffffffae903100
    9c24:	37a0d2b7          	lui	t0,0x37a0d
    9c28:	2b518213          	addi	tp,gp,693 # 0xffffffffade422b5
    9c2c:	0035e0b3          	or	ra,a1,gp
    9c30:	afaf13b7          	lui	t2,0xafaf1
    9c34:	a4786137          	lui	sp,0xa4786
    9c38:	c5104217          	auipc	tp,0xc5104
    9c3c:	0031f133          	and	sp,gp,gp
    9c40:	e9998197          	auipc	gp,0xe9998
    9c44:	79b49117          	auipc	sp,0x79b49
    9c48:	a9c35117          	auipc	sp,0xa9c35
    9c4c:	b03be117          	auipc	sp,0xb03be
    9c50:	93fe6337          	lui	t1,0x93fe6
    9c54:	065142b7          	lui	t0,0x6514
    9c58:	ca524093          	xori	ra,tp,-859
    9c5c:	75720793          	addi	a5,tp,1879 # 0xffffffffc510e38f
    9c60:	a791e193          	ori	gp,gp,-1415
    9c64:	0020f7b3          	and	a5,ra,sp
    9c68:	62d8d1b7          	lui	gp,0x62d8d
    9c6c:	6987d137          	lui	sp,0x6987d
    9c70:	00208263          	beq	ra,sp,0x9c74
    9c74:	e30ff16f          	jal	sp,0x92a4
    9c78:	0033fc33          	and	s8,t2,gp
    9c7c:	fe1fa697          	auipc	a3,0xfe1fa
    9c80:	cd0731b7          	lui	gp,0xcd073
    9c84:	0011c0b3          	xor	ra,gp,ra
    9c88:	02c77293          	andi	t0,a4,44
    9c8c:	d821a117          	auipc	sp,0xd821a
    9c90:	948e5397          	auipc	t2,0x948e5
    9c94:	7bbf81b7          	lui	gp,0x7bbf8
    9c98:	c52e7197          	auipc	gp,0xc52e7
    9c9c:	002373b3          	and	t2,t1,sp
    9ca0:	0031c0b3          	xor	ra,gp,gp
    9ca4:	00348233          	add	tp,s1,gp
    9ca8:	cd0fc097          	auipc	ra,0xcd0fc
    9cac:	40300033          	neg	zero,gp
    9cb0:	9871f193          	andi	gp,gp,-1657
    9cb4:	df1d1097          	auipc	ra,0xdf1d1
    9cb8:	0030e3b3          	or	t2,ra,gp
    9cbc:	87648117          	auipc	sp,0x87648
    9cc0:	3cc8e1b7          	lui	gp,0x3cc8e
    9cc4:	2c97e197          	auipc	gp,0x2c97e
    9cc8:	402180b3          	sub	ra,gp,sp
    9ccc:	eb898393          	addi	t2,s3,-328 # 0x45164a9c
    9cd0:	82089017          	auipc	zero,0x82089
    9cd4:	89e0e113          	ori	sp,ra,-1890
    9cd8:	779ed097          	auipc	ra,0x779ed
    9cdc:	32d1c093          	xori	ra,gp,813
    9ce0:	49df20b7          	lui	ra,0x49df2
    9ce4:	0e3cd197          	auipc	gp,0xe3cd
    9ce8:	003070b3          	and	ra,zero,gp
    9cec:	6fb2f313          	andi	t1,t0,1787
    9cf0:	a1f0f193          	andi	gp,ra,-1505
    9cf4:	400001b3          	neg	gp,zero
    9cf8:	5f208393          	addi	t2,ra,1522 # 0x49df25f2
    9cfc:	c4d2e113          	ori	sp,t0,-947
    9d00:	00000097          	auipc	ra,0x0
    9d04:	08c080e7          	jalr	140(ra) # 0x9d8c
    9d08:	236ab0b7          	lui	ra,0x236ab
    9d0c:	003140b3          	xor	ra,sp,gp
    9d10:	4af910b7          	lui	ra,0x4af91
    9d14:	c7fd8197          	auipc	gp,0xc7fd8
    9d18:	001041b3          	xor	gp,zero,ra
    9d1c:	40308133          	sub	sp,ra,gp
    9d20:	9b67e097          	auipc	ra,0x9b67e
    9d24:	4a9db237          	lui	tp,0x4a9db
    9d28:	e06b62b7          	lui	t0,0xe06b6
    9d2c:	401381b3          	sub	gp,t2,ra
    9d30:	cb626093          	ori	ra,tp,-842
    9d34:	0021f1b3          	and	gp,gp,sp
    9d38:	e4e1f113          	andi	sp,gp,-434
    9d3c:	0020c3b3          	xor	t2,ra,sp
    9d40:	34132017          	auipc	zero,0x34132
    9d44:	2eda4737          	lui	a4,0x2eda4
    9d48:	40200133          	neg	sp,sp
    9d4c:	0043c033          	xor	zero,t2,tp
    9d50:	3bddf0b7          	lui	ra,0x3bddf
    9d54:	9a56d117          	auipc	sp,0x9a56d
    9d58:	00237333          	and	t1,t1,sp
    9d5c:	9cad30b7          	lui	ra,0x9cad3
    9d60:	27317213          	andi	tp,sp,627
    9d64:	bebd1297          	auipc	t0,0xbebd1
    9d68:	b2124137          	lui	sp,0xb2124
    9d6c:	003161b3          	or	gp,sp,gp
    9d70:	00114233          	xor	tp,sp,ra
    9d74:	84800113          	li	sp,-1976
    9d78:	00110233          	add	tp,sp,ra
    9d7c:	8e000193          	li	gp,-1824
    9d80:	b58ec1b7          	lui	gp,0xb58ec
    9d84:	32110063          	beq	sp,ra,0xa0a4
    9d88:	31c001ef          	jal	gp,0xa0a4
    9d8c:	005b70b7          	lui	ra,0x5b7
    9d90:	932d9037          	lui	zero,0x932d9
    9d94:	11318b13          	addi	s6,gp,275 # 0xffffffffb58ec113
    9d98:	40310133          	sub	sp,sp,gp
    9d9c:	f9832197          	auipc	gp,0xf9832
    9da0:	fd524113          	xori	sp,tp,-43
    9da4:	402c00b3          	sub	ra,s8,sp
    9da8:	0c51d217          	auipc	tp,0xc51d
    9dac:	195460b7          	lui	ra,0x19546
    9db0:	002181b3          	add	gp,gp,sp
    9db4:	c93ff197          	auipc	gp,0xc93ff
    9db8:	c963e013          	ori	zero,t2,-874
    9dbc:	3430c113          	xori	sp,ra,835
    9dc0:	a782e3b7          	lui	t2,0xa782e
    9dc4:	0b8c2197          	auipc	gp,0xb8c2
    9dc8:	8232c197          	auipc	gp,0x8232c
    9dcc:	e645d117          	auipc	sp,0xe645d
    9dd0:	88a27113          	andi	sp,tp,-1910
    9dd4:	00320133          	add	sp,tp,gp
    9dd8:	b3a8b197          	auipc	gp,0xb3a8b
    9ddc:	005086b3          	add	a3,ra,t0
    9de0:	0011e133          	or	sp,gp,ra
    9de4:	effe8197          	auipc	gp,0xeffe8
    9de8:	d0567117          	auipc	sp,0xd0567
    9dec:	00d6f133          	and	sp,a3,a3
    9df0:	76510c63          	beq	sp,t0,0xa568
    9df4:	7740006f          	j	0xa568
    9df8:	c45321b7          	lui	gp,0xc4532
    9dfc:	33a08293          	addi	t0,ra,826 # 0x1954633a
    9e00:	bf2fa137          	lui	sp,0xbf2fa
    9e04:	a9736493          	ori	s1,t1,-1385
    9e08:	f397ff37          	lui	t5,0xf397f
    9e0c:	569ef117          	auipc	sp,0x569ef
    9e10:	00e1e033          	or	zero,gp,a4
    9e14:	225810b7          	lui	ra,0x22581
    9e18:	9f21f193          	andi	gp,gp,-1550
    9e1c:	00216033          	or	zero,sp,sp
    9e20:	94218093          	addi	ra,gp,-1726 # 0xffffffffc4531942
    9e24:	11b310b7          	lui	ra,0x11b31
    9e28:	7f8a1137          	lui	sp,0x7f8a1
    9e2c:	8939e0b7          	lui	ra,0x8939e
    9e30:	0030e0b3          	or	ra,ra,gp
    9e34:	57d85197          	auipc	gp,0x57d85
    9e38:	3e317113          	andi	sp,sp,995
    9e3c:	2d125217          	auipc	tp,0x2d125
    9e40:	ccc2d137          	lui	sp,0xccc2d
    9e44:	6640f193          	andi	gp,ra,1636
    9e48:	24c08193          	addi	gp,ra,588 # 0xffffffff8939e24c
    9e4c:	1fcdf017          	auipc	zero,0x1fcdf
    9e50:	1d25f137          	lui	sp,0x1d25f
    9e54:	4da08093          	addi	ra,ra,1242
    9e58:	f19d5097          	auipc	ra,0xf19d5
    9e5c:	5e534113          	xori	sp,t1,1509
    9e60:	c7208193          	addi	gp,ra,-910 # 0xfffffffff19deaca
    9e64:	b1025097          	auipc	ra,0xb1025
    9e68:	4e337197          	auipc	gp,0x4e337
    9e6c:	003083b3          	add	t2,ra,gp
    9e70:	09a97097          	auipc	ra,0x9a97
    9e74:	003171b3          	and	gp,sp,gp
    9e78:	00108133          	add	sp,ra,ra
    9e7c:	00000197          	auipc	gp,0x0
    9e80:	3c018167          	jalr	sp,960(gp) # 0xa23c
    9e84:	1bc1c113          	xori	sp,gp,444
    9e88:	347521b7          	lui	gp,0x34752
    9e8c:	43f57197          	auipc	gp,0x43f57
    9e90:	2084d337          	lui	t1,0x2084d
    9e94:	a039f1b7          	lui	gp,0xa039f
    9e98:	54168097          	auipc	ra,0x54168
    9e9c:	00216033          	or	zero,sp,sp
    9ea0:	2cac4113          	xori	sp,s8,714
    9ea4:	b62c61b7          	lui	gp,0xb62c6
    9ea8:	874ca317          	auipc	t1,0x874ca
    9eac:	e7e72117          	auipc	sp,0xe7e72
    9eb0:	84530117          	auipc	sp,0x84530
    9eb4:	cfa1e113          	ori	sp,gp,-774
    9eb8:	25719137          	lui	sp,0x25719
    9ebc:	267b30b7          	lui	ra,0x267b3
    9ec0:	f88bc097          	auipc	ra,0xf88bc
    9ec4:	28c46017          	auipc	zero,0x28c46
    9ec8:	e770f113          	andi	sp,ra,-393
    9ecc:	da3a83b7          	lui	t2,0xda3a8
    9ed0:	9010f3b7          	lui	t2,0x9010f
    9ed4:	4b8b1137          	lui	sp,0x4b8b1
    9ed8:	0071e2b3          	or	t0,gp,t2
    9edc:	003df1b3          	and	gp,s11,gp
    9ee0:	3027b117          	auipc	sp,0x3027b
    9ee4:	44010193          	addi	gp,sp,1088 # 0x30285320
    9ee8:	d094f393          	andi	t2,s1,-759
    9eec:	001101b3          	add	gp,sp,ra
    9ef0:	cfb0d217          	auipc	tp,0xcfb0d
    9ef4:	84d14c93          	xori	s9,sp,-1971
    9ef8:	0110d1b7          	lui	gp,0x110d
    9efc:	2ca1a117          	auipc	sp,0x2ca1a
    9f00:	4ed19317          	auipc	t1,0x4ed19
    9f04:	4900c193          	xori	gp,ra,1168
    9f08:	404301b3          	sub	gp,t1,tp
    9f0c:	001081b3          	add	gp,ra,ra
    9f10:	c5d50197          	auipc	gp,0xc5d50
    9f14:	00000117          	auipc	sp,0x0
    9f18:	d64100e7          	jalr	-668(sp) # 0x9c78
    9f1c:	00217133          	and	sp,sp,sp
    9f20:	14ceec37          	lui	s8,0x14cee
    9f24:	8fa5bb97          	auipc	s7,0x8fa5b
    9f28:	8a51e313          	ori	t1,gp,-1883
    9f2c:	23e08193          	addi	gp,ra,574 # 0xfffffffff88c60fe
    9f30:	03b78113          	addi	sp,a5,59 # 0x59d0403b
    9f34:	9914f093          	andi	ra,s1,-1647
    9f38:	006fcbb3          	xor	s7,t6,t1
    9f3c:	155cb197          	auipc	gp,0x155cb
    9f40:	907f6337          	lui	t1,0x907f6
    9f44:	b5c6e317          	auipc	t1,0xb5c6e
    9f48:	003141b3          	xor	gp,sp,gp
    9f4c:	b70afc97          	auipc	s9,0xb70af
    9f50:	907d4197          	auipc	gp,0x907d4
    9f54:	5e61c193          	xori	gp,gp,1510
    9f58:	001140b3          	xor	ra,sp,ra
    9f5c:	0032f233          	and	tp,t0,gp
    9f60:	00336233          	or	tp,t1,gp
    9f64:	68014113          	xori	sp,sp,1664
    9f68:	087cd137          	lui	sp,0x87cd
    9f6c:	ae99f693          	andi	a3,s3,-1303
    9f70:	d5714213          	xori	tp,sp,-681
    9f74:	5c46a117          	auipc	sp,0x5c46a
    9f78:	b0f08693          	addi	a3,ra,-1265
    9f7c:	d1c16113          	ori	sp,sp,-740
    9f80:	d1ab23b7          	lui	t2,0xd1ab2
    9f84:	9e8c9097          	auipc	ra,0x9e8c9
    9f88:	cf12d0b7          	lui	ra,0xcf12d
    9f8c:	9233a037          	lui	zero,0x9233a
    9f90:	47227213          	andi	tp,tp,1138
    9f94:	f1edb137          	lui	sp,0xf1edb
    9f98:	0011e6b3          	or	a3,gp,ra
    9f9c:	00000197          	auipc	gp,0x0
    9fa0:	e5c18367          	jalr	t1,-420(gp) # 0x9df8
    9fa4:	1d3f0197          	auipc	gp,0x1d3f0
    9fa8:	9cbb5197          	auipc	gp,0x9cbb5
    9fac:	aa117213          	andi	tp,sp,-1375
    9fb0:	002201b3          	add	gp,tp,sp
    9fb4:	dc990297          	auipc	t0,0xdc990
    9fb8:	400180b3          	sub	ra,gp,zero
    9fbc:	acfb10b7          	lui	ra,0xacfb1
    9fc0:	00210133          	add	sp,sp,sp
    9fc4:	caa590b7          	lui	ra,0xcaa59
    9fc8:	c0d18093          	addi	ra,gp,-1011 # 0xffffffff9cbbebb5
    9fcc:	9f9fc037          	lui	zero,0x9f9fc
    9fd0:	41c0e113          	ori	sp,ra,1052
    9fd4:	0cd3c113          	xori	sp,t2,205
    9fd8:	52214093          	xori	ra,sp,1314
    9fdc:	8ef16193          	ori	gp,sp,-1809
    9fe0:	64d26193          	ori	gp,tp,1613
    9fe4:	fd04a0b7          	lui	ra,0xfd04a
    9fe8:	7dc16093          	ori	ra,sp,2012
    9fec:	38320093          	addi	ra,tp,899 # 0xffffffffcfb17273
    9ff0:	9d4d00b7          	lui	ra,0x9d4d0
    9ff4:	7cb16197          	auipc	gp,0x7cb16
    9ff8:	171da037          	lui	zero,0x171da
    9ffc:	d3316093          	ori	ra,sp,-717
    a000:	18d0a197          	auipc	gp,0x18d0a
    a004:	6b81c313          	xori	t1,gp,1720
    a008:	b0136117          	auipc	sp,0xb0136
    a00c:	40218133          	sub	sp,gp,sp
    a010:	0025e1b3          	or	gp,a1,sp
    a014:	00000117          	auipc	sp,0x0
    a018:	cf4100e7          	jalr	-780(sp) # 0x9d08
    a01c:	62bf5097          	auipc	ra,0x62bf5
    a020:	0021e013          	ori	zero,gp,2
    a024:	55c0c113          	xori	sp,ra,1372
    a028:	426bc337          	lui	t1,0x426bc
    a02c:	8991f113          	andi	sp,gp,-1895
    a030:	dc09b1b7          	lui	gp,0xdc09b
    a034:	b5456117          	auipc	sp,0xb5456
    a038:	a53e70b7          	lui	ra,0xa53e7
    a03c:	d8c9f097          	auipc	ra,0xd8c9f
    a040:	401100b3          	sub	ra,sp,ra
    a044:	377c00b7          	lui	ra,0x377c0
    a048:	6a574217          	auipc	tp,0x6a574
    a04c:	e0ade237          	lui	tp,0xe0ade
    a050:	d909c197          	auipc	gp,0xd909c
    a054:	c4d26093          	ori	ra,tp,-947
    a058:	80912137          	lui	sp,0x80912
    a05c:	cce86097          	auipc	ra,0xcce86
    a060:	bef10113          	addi	sp,sp,-1041 # 0xffffffff80911bef
    a064:	0ca320b7          	lui	ra,0xca32
    a068:	40318133          	sub	sp,gp,gp
    a06c:	e6b40e97          	auipc	t4,0xe6b40
    a070:	73b1f293          	andi	t0,gp,1851
    a074:	8144d037          	lui	zero,0x8144d
    a078:	000140b3          	xor	ra,sp,zero
    a07c:	d663e313          	ori	t1,t2,-666
    a080:	0025c0b3          	xor	ra,a1,sp
    a084:	d0f0e193          	ori	gp,ra,-753
    a088:	00116133          	or	sp,sp,ra
    a08c:	f6bf4017          	auipc	zero,0xf6bf4
    a090:	35a0c193          	xori	gp,ra,858
    a094:	002083b3          	add	t2,ra,sp
    a098:	dd0351b7          	lui	gp,0xdd035
    a09c:	00008193          	mv	gp,ra
    a0a0:	06118e63          	beq	gp,ra,0xa11c
    a0a4:	0015f133          	and	sp,a1,ra
    a0a8:	256661b7          	lui	gp,0x25666
    a0ac:	6271f193          	andi	gp,gp,1575
    a0b0:	8bf0e113          	ori	sp,ra,-1857
    a0b4:	40300233          	neg	tp,gp
    a0b8:	00538233          	add	tp,t2,t0
    a0bc:	002362b3          	or	t0,t1,sp
    a0c0:	fa272597          	auipc	a1,0xfa272
    a0c4:	26531197          	auipc	gp,0x26531
    a0c8:	74bb6137          	lui	sp,0x74bb6
    a0cc:	9366f0b7          	lui	ra,0x9366f
    a0d0:	0111c193          	xori	gp,gp,17
    a0d4:	0ca17393          	andi	t2,sp,202
    a0d8:	9f649137          	lui	sp,0x9f649
    a0dc:	f0d0f093          	andi	ra,ra,-243
    a0e0:	39638093          	addi	ra,t2,918 # 0xffffffffd1ab2396
    a0e4:	0023c1b3          	xor	gp,t2,sp
    a0e8:	40238233          	sub	tp,t2,sp
    a0ec:	4f3241b7          	lui	gp,0x4f324
    a0f0:	0011c3b3          	xor	t2,gp,ra
    a0f4:	c686d137          	lui	sp,0xc686d
    a0f8:	fb81c393          	xori	t2,gp,-72
    a0fc:	9a300093          	li	ra,-1629
    a100:	182b5117          	auipc	sp,0x182b5
    a104:	0032c1b3          	xor	gp,t0,gp
    a108:	8a76c797          	auipc	a5,0x8a76c
    a10c:	691a21b7          	lui	gp,0x691a2
    a110:	c361f193          	andi	gp,gp,-970
    a114:	e04184e3          	beq	gp,tp,0x9f1c
    a118:	e05ff16f          	jal	sp,0x9f1c
    a11c:	53108113          	addi	sp,ra,1329 # 0xffffffff9366f531
    a120:	8958a217          	auipc	tp,0x8958a
    a124:	005170b3          	and	ra,sp,t0
    a128:	c291c093          	xori	ra,gp,-983
    a12c:	6541f293          	andi	t0,gp,1620
    a130:	51ac5117          	auipc	sp,0x51ac5
    a134:	ac5ea097          	auipc	ra,0xac5ea
    a138:	c6c0b0b7          	lui	ra,0xc6c0b
    a13c:	88a5d0b7          	lui	ra,0x88a5d
    a140:	0030e133          	or	sp,ra,gp
    a144:	ccace1b7          	lui	gp,0xccace
    a148:	00537233          	and	tp,t1,t0
    a14c:	1c288193          	addi	gp,a7,450 # 0xfffffffff6eb31c2
    a150:	41300193          	li	gp,1043
    a154:	b1e70117          	auipc	sp,0xb1e70
    a158:	46173117          	auipc	sp,0x46173
    a15c:	02428093          	addi	ra,t0,36 # 0xffffffffdc999fd8
    a160:	09f08197          	auipc	gp,0x9f08
    a164:	3290c593          	xori	a1,ra,809
    a168:	d2627313          	andi	t1,tp,-730
    a16c:	eabed1b7          	lui	gp,0xeabed
    a170:	c057a197          	auipc	gp,0xc057a
    a174:	15e1b097          	auipc	ra,0x15e1b
    a178:	0ae5c1b7          	lui	gp,0xae5c
    a17c:	590ec237          	lui	tp,0x590ec
    a180:	fd416093          	ori	ra,sp,-44
    a184:	8d6dc293          	xori	t0,s11,-1834
    a188:	9ecc4337          	lui	t1,0x9ecc4
    a18c:	80117493          	andi	s1,sp,-2047
    a190:	f742c117          	auipc	sp,0xf742c
    a194:	1febf097          	auipc	ra,0x1febf
    a198:	d557c137          	lui	sp,0xd557c
    a19c:	0022c133          	xor	sp,t0,sp
    a1a0:	00000097          	auipc	ra,0x0
    a1a4:	22808267          	jalr	tp,552(ra) # 0xa3c8
    a1a8:	c8717093          	andi	ra,sp,-889
    a1ac:	1a888337          	lui	t1,0x1a888
    a1b0:	00737133          	and	sp,t1,t2
    a1b4:	3c946237          	lui	tp,0x3c946
    a1b8:	8110f093          	andi	ra,ra,-2031
    a1bc:	df114097          	auipc	ra,0xdf114
    a1c0:	ae636093          	ori	ra,t1,-1306
    a1c4:	5601f193          	andi	gp,gp,1376
    a1c8:	832f2117          	auipc	sp,0x832f2
    a1cc:	0064c133          	xor	sp,s1,t1
    a1d0:	00336033          	or	zero,t1,gp
    a1d4:	53610093          	addi	ra,sp,1334 # 0xffffffff832fc6fe
    a1d8:	f8b17213          	andi	tp,sp,-117
    a1dc:	bb20c093          	xori	ra,ra,-1102
    a1e0:	f841c193          	xori	gp,gp,-124
    a1e4:	b870c093          	xori	ra,ra,-1145
    a1e8:	295ec097          	auipc	ra,0x295ec
    a1ec:	7d11c213          	xori	tp,gp,2001
    a1f0:	513ee197          	auipc	gp,0x513ee
    a1f4:	003082b3          	add	t0,ra,gp
    a1f8:	1c310113          	addi	sp,sp,451
    a1fc:	7d6f6197          	auipc	gp,0x7d6f6
    a200:	9f7a4817          	auipc	a6,0x9f7a4
    a204:	e036e193          	ori	gp,a3,-509
    a208:	331d4117          	auipc	sp,0x331d4
    a20c:	005170b3          	and	ra,sp,t0
    a210:	002180b3          	add	ra,gp,sp
    a214:	e70b1117          	auipc	sp,0xe70b1
    a218:	0031f233          	and	tp,gp,gp
    a21c:	20237193          	andi	gp,t1,514
    a220:	003100b3          	add	ra,sp,gp
    a224:	83dee037          	lui	zero,0x83dee
    a228:	eafb2097          	auipc	ra,0xeafb2
    a22c:	006100b3          	add	ra,sp,t1
    a230:	aa71c313          	xori	t1,gp,-1369
    a234:	00000197          	auipc	gp,0x0
    a238:	2b8181e7          	jalr	gp,696(gp) # 0xa4ec
    a23c:	650ea097          	auipc	ra,0x650ea
    a240:	004043b3          	xor	t2,zero,tp
    a244:	1aa16193          	ori	gp,sp,426
    a248:	eff34117          	auipc	sp,0xeff34
    a24c:	000081b3          	add	gp,ra,zero
    a250:	66514193          	xori	gp,sp,1637
    a254:	3874f697          	auipc	a3,0x3874f
    a258:	1661c393          	xori	t2,gp,358
    a25c:	7b93f2b7          	lui	t0,0x7b93f
    a260:	40700133          	neg	sp,t2
    a264:	bb3b72b7          	lui	t0,0xbb3b7
    a268:	13cfc0b7          	lui	ra,0x13cfc
    a26c:	0002c133          	xor	sp,t0,zero
    a270:	00e044b3          	xor	s1,zero,a4
    a274:	60c36137          	lui	sp,0x60c36
    a278:	44d17317          	auipc	t1,0x44d17
    a27c:	99f01817          	auipc	a6,0x99f01
    a280:	a5b761b7          	lui	gp,0xa5b76
    a284:	07889137          	lui	sp,0x7889
    a288:	42b566b7          	lui	a3,0x42b56
    a28c:	2ec7f337          	lui	t1,0x2ec7f
    a290:	2a11e197          	auipc	gp,0x2a11e
    a294:	85411237          	lui	tp,0x85411
    a298:	003160b3          	or	ra,sp,gp
    a29c:	88f1c117          	auipc	sp,0x88f1c
    a2a0:	caf0f393          	andi	t2,ra,-849
    a2a4:	ced8a137          	lui	sp,0xced8a
    a2a8:	663e5137          	lui	sp,0x663e5
    a2ac:	600c3117          	auipc	sp,0x600c3
    a2b0:	00114133          	xor	sp,sp,ra
    a2b4:	ad684137          	lui	sp,0xad684
    a2b8:	ee2208e3          	beq	tp,sp,0xa1a8
    a2bc:	eedff0ef          	jal	ra,0xa1a8
    a2c0:	40518c33          	sub	s8,gp,t0
    a2c4:	18918197          	auipc	gp,0x18918
    a2c8:	0013e3b3          	or	t2,t2,ra
    a2cc:	4ba18793          	addi	a5,gp,1210 # 0x1892277e
    a2d0:	3d216093          	ori	ra,sp,978
    a2d4:	03973317          	auipc	t1,0x3973
    a2d8:	53b18313          	addi	t1,gp,1339
    a2dc:	85d9e497          	auipc	s1,0x85d9e
    a2e0:	003081b3          	add	gp,ra,gp
    a2e4:	e06dc0b7          	lui	ra,0xe06dc
    a2e8:	0ed30113          	addi	sp,t1,237 # 0x397d3c1
    a2ec:	a6510193          	addi	gp,sp,-1435 # 0xffffffffad683a65
    a2f0:	1145f0b7          	lui	ra,0x1145f
    a2f4:	05b10193          	addi	gp,sp,91
    a2f8:	9b28b217          	auipc	tp,0x9b28b
    a2fc:	3e7cc597          	auipc	a1,0x3e7cc
    a300:	89816193          	ori	gp,sp,-1896
    a304:	403080b3          	sub	ra,ra,gp
    a308:	6441f113          	andi	sp,gp,1604
    a30c:	de088197          	auipc	gp,0xde088
    a310:	0043c333          	xor	t1,t2,tp
    a314:	2ee34113          	xori	sp,t1,750
    a318:	58130313          	addi	t1,t1,1409
    a31c:	9db660b7          	lui	ra,0x9db66
    a320:	e330c093          	xori	ra,ra,-461
    a324:	000040b3          	xor	ra,zero,zero
    a328:	26610093          	addi	ra,sp,614
    a32c:	bd954117          	auipc	sp,0xbd954
    a330:	51410113          	addi	sp,sp,1300 # 0xffffffffbd95e840
    a334:	00334233          	xor	tp,t1,gp
    a338:	00608463          	beq	ra,t1,0xa340
    a33c:	004002ef          	jal	t0,0xa340
    a340:	44518093          	addi	ra,gp,1093 # 0xffffffffde092751
    a344:	003100b3          	add	ra,sp,gp
    a348:	0031f233          	and	tp,gp,gp
    a34c:	a999b0b7          	lui	ra,0xa999b
    a350:	0011e3b3          	or	t2,gp,ra
    a354:	e9e55297          	auipc	t0,0xe9e55
    a358:	01c0c0b3          	xor	ra,ra,t3
    a35c:	01b330b7          	lui	ra,0x1b33
    a360:	005ec133          	xor	sp,t4,t0
    a364:	e24dd317          	auipc	t1,0xe24dd
    a368:	c96cc097          	auipc	ra,0xc96cc
    a36c:	b1866097          	auipc	ra,0xb1866
    a370:	0358c0b7          	lui	ra,0x358c
    a374:	a43d81b7          	lui	gp,0xa43d8
    a378:	fad7c197          	auipc	gp,0xfad7c
    a37c:	01806133          	or	sp,zero,s8
    a380:	0013f133          	and	sp,t2,ra
    a384:	b6d1d197          	auipc	gp,0xb6d1d
    a388:	f9055237          	lui	tp,0xf9055
    a38c:	0677c117          	auipc	sp,0x677c
    a390:	f6a00a13          	li	s4,-150
    a394:	0021f1b3          	and	gp,gp,sp
    a398:	db56f317          	auipc	t1,0xdb56f
    a39c:	0021e0b3          	or	ra,gp,sp
    a3a0:	001161b3          	or	gp,sp,ra
    a3a4:	613870b7          	lui	ra,0x61387
    a3a8:	f7234313          	xori	t1,t1,-142
    a3ac:	dd8b3197          	auipc	gp,0xdd8b3
    a3b0:	74314113          	xori	sp,sp,1859
    a3b4:	00317133          	and	sp,sp,gp
    a3b8:	0443e113          	ori	sp,t2,68
    a3bc:	40248233          	sub	tp,s1,sp
    a3c0:	00008313          	mv	t1,ra
    a3c4:	ac1300e3          	beq	t1,ra,0x9e84
    a3c8:	bdd00213          	li	tp,-1059
    a3cc:	90c79117          	auipc	sp,0x90c79
    a3d0:	40608333          	sub	t1,ra,t1
    a3d4:	53eff097          	auipc	ra,0x53eff
    a3d8:	048dd037          	lui	zero,0x48dd
    a3dc:	7f437113          	andi	sp,t1,2036
    a3e0:	8c757097          	auipc	ra,0x8c757
    a3e4:	239eb237          	lui	tp,0x239eb
    a3e8:	1eb87117          	auipc	sp,0x1eb87
    a3ec:	0611c137          	lui	sp,0x611c
    a3f0:	0013e0b3          	or	ra,t2,ra
    a3f4:	e3e1f113          	andi	sp,gp,-450
    a3f8:	0010f0b3          	and	ra,ra,ra
    a3fc:	78d121b7          	lui	gp,0x78d12
    a400:	e667a0b7          	lui	ra,0xe667a
    a404:	808c6397          	auipc	t2,0x808c6
    a408:	403581b3          	sub	gp,a1,gp
    a40c:	18b21097          	auipc	ra,0x18b21
    a410:	61132317          	auipc	t1,0x61132
    a414:	385f6117          	auipc	sp,0x385f6
    a418:	003180b3          	add	ra,gp,gp
    a41c:	40118333          	sub	t1,gp,ra
    a420:	c8596097          	auipc	ra,0xc8596
    a424:	63467197          	auipc	gp,0x63467
    a428:	72f54097          	auipc	ra,0x72f54
    a42c:	d8df6137          	lui	sp,0xd8df6
    a430:	001101b3          	add	gp,sp,ra
    a434:	9180e013          	ori	zero,ra,-1768
    a438:	3b514093          	xori	ra,sp,949
    a43c:	a7eec137          	lui	sp,0xa7eec
    a440:	51f10093          	addi	ra,sp,1311 # 0xffffffffa7eec51f
    a444:	004370b3          	and	ra,t1,tp
    a448:	2a6e5137          	lui	sp,0x2a6e5
    a44c:	01d640b7          	lui	ra,0x1d64
    a450:	b4610ae3          	beq	sp,t1,0x9fa4
    a454:	b51ff3ef          	jal	t2,0x9fa4
    a458:	ac6b0117          	auipc	sp,0xac6b0
    a45c:	80e8d0b7          	lui	ra,0x80e8d
    a460:	686c90b7          	lui	ra,0x686c9
    a464:	00208133          	add	sp,ra,sp
    a468:	6e521097          	auipc	ra,0x6e521
    a46c:	0035f133          	and	sp,a1,gp
    a470:	aa9f2117          	auipc	sp,0xaa9f2
    a474:	7810f193          	andi	gp,ra,1921
    a478:	ff33b0b7          	lui	ra,0xff33b
    a47c:	b8200093          	li	ra,-1150
    a480:	002160b3          	or	ra,sp,sp
    a484:	0063c137          	lui	sp,0x63c
    a488:	cf628337          	lui	t1,0xcf628
    a48c:	934890b7          	lui	ra,0x93489
    a490:	002082b3          	add	t0,ra,sp
    a494:	d9f91c17          	auipc	s8,0xd9f91
    a498:	0022f133          	and	sp,t0,sp
    a49c:	a5c10097          	auipc	ra,0xa5c10
    a4a0:	71c30193          	addi	gp,t1,1820 # 0xffffffffcf62871c
    a4a4:	0060e133          	or	sp,ra,t1
    a4a8:	e178c197          	auipc	gp,0xe178c
    a4ac:	25014313          	xori	t1,sp,592
    a4b0:	403300b3          	sub	ra,t1,gp
    a4b4:	acc18213          	addi	tp,gp,-1332 # 0xffffffffe1795f74
    a4b8:	002a71b3          	and	gp,s4,sp
    a4bc:	cd4f6397          	auipc	t2,0xcd4f6
    a4c0:	402082b3          	sub	t0,ra,sp
    a4c4:	007180b3          	add	ra,gp,t2
    a4c8:	8510e1b7          	lui	gp,0x8510e
    a4cc:	e219b097          	auipc	ra,0xe219b
    a4d0:	001061b3          	or	gp,zero,ra
    a4d4:	001140b3          	xor	ra,sp,ra
    a4d8:	94f84013          	xori	zero,a6,-1713
    a4dc:	0011f133          	and	sp,gp,ra
    a4e0:	40f38033          	sub	zero,t2,a5
    a4e4:	00010193          	mv	gp,sp
    a4e8:	b2218ae3          	beq	gp,sp,0xa01c
    a4ec:	40408133          	sub	sp,ra,tp
    a4f0:	0021f3b3          	and	t2,gp,sp
    a4f4:	aab7c197          	auipc	gp,0xaab7c
    a4f8:	002170b3          	and	ra,sp,sp
    a4fc:	ed20e093          	ori	ra,ra,-302
    a500:	c1bc1117          	auipc	sp,0xc1bc1
    a504:	95992397          	auipc	t2,0x95992
    a508:	80e0e113          	ori	sp,ra,-2034
    a50c:	00108133          	add	sp,ra,ra
    a510:	529960b7          	lui	ra,0x52996
    a514:	f7172317          	auipc	t1,0xf7172
    a518:	401181b3          	sub	gp,gp,ra
    a51c:	7c880017          	auipc	zero,0x7c880
    a520:	0010e1b3          	or	gp,ra,ra
    a524:	a71a0213          	addi	tp,s4,-1423 # 0xffffffffaca22a71
    a528:	44e204b7          	lui	s1,0x44e20
    a52c:	55016093          	ori	ra,sp,1360
    a530:	0017e033          	or	zero,a5,ra
    a534:	a1308113          	addi	sp,ra,-1517 # 0x52995a13
    a538:	2dbc91b7          	lui	gp,0x2dbc9
    a53c:	6883f0b7          	lui	ra,0x6883f
    a540:	ac4201b7          	lui	gp,0xac420
    a544:	59d68213          	addi	tp,a3,1437 # 0x42b5659d
    a548:	563bf1b7          	lui	gp,0x563bf
    a54c:	004161b3          	or	gp,sp,tp
    a550:	2fe0f613          	andi	a2,ra,766
    a554:	403081b3          	sub	gp,ra,gp
    a558:	2c12d197          	auipc	gp,0x2c12d
    a55c:	51e14193          	xori	gp,sp,1310
    a560:	46100063          	beq	zero,ra,0xa9c0
    a564:	45c0016f          	jal	sp,0xa9c0
    a568:	0e5db117          	auipc	sp,0xe5db
    a56c:	44106237          	lui	tp,0x44106
    a570:	5ecaf137          	lui	sp,0x5ecaf
    a574:	0011f2b3          	and	t0,gp,ra
    a578:	52895097          	auipc	ra,0x52895
    a57c:	00310333          	add	t1,sp,gp
    a580:	0022f1b3          	and	gp,t0,sp
    a584:	08280217          	auipc	tp,0x8280
    a588:	cbbec137          	lui	sp,0xcbbec
    a58c:	054882b7          	lui	t0,0x5488
    a590:	6751f237          	lui	tp,0x6751f
    a594:	627e6317          	auipc	t1,0x627e6
    a598:	002141b3          	xor	gp,sp,sp
    a59c:	007000b3          	add	ra,zero,t2
    a5a0:	eaa151b7          	lui	gp,0xeaa15
    a5a4:	b1e61097          	auipc	ra,0xb1e61
    a5a8:	8b1ad117          	auipc	sp,0x8b1ad
    a5ac:	158ca117          	auipc	sp,0x158ca
    a5b0:	d263e017          	auipc	zero,0xd263e
    a5b4:	96332117          	auipc	sp,0x96332
    a5b8:	0020f333          	and	t1,ra,sp
    a5bc:	95b62097          	auipc	ra,0x95b62
    a5c0:	0010f133          	and	sp,ra,ra
    a5c4:	2821c313          	xori	t1,gp,642
    a5c8:	003061b3          	or	gp,zero,gp
    a5cc:	85b9b1b7          	lui	gp,0x85b9b
    a5d0:	f324c1b7          	lui	gp,0xf324c
    a5d4:	affc3117          	auipc	sp,0xaffc3
    a5d8:	9f223117          	auipc	sp,0x9f223
    a5dc:	17184317          	auipc	t1,0x17184
    a5e0:	57d6d097          	auipc	ra,0x57d6d
    a5e4:	bef33137          	lui	sp,0xbef33
    a5e8:	2db18193          	addi	gp,gp,731 # 0xfffffffff324c2db
    a5ec:	def4c093          	xori	ra,s1,-529
    a5f0:	003f0463          	beq	t5,gp,0xa5f8
    a5f4:	0040046f          	jal	s0,0xa5f8
    a5f8:	01110333          	add	t1,sp,a7
    a5fc:	eab4b137          	lui	sp,0xeab4b
    a600:	2e4fc1b7          	lui	gp,0x2e4fc
    a604:	000172b3          	and	t0,sp,zero
    a608:	3437f113          	andi	sp,a5,835
    a60c:	004171b3          	and	gp,sp,tp
    a610:	6d4e9117          	auipc	sp,0x6d4e9
    a614:	5497c193          	xori	gp,a5,1353
    a618:	50216113          	ori	sp,sp,1282
    a61c:	4a808213          	addi	tp,ra,1192 # 0x57d77a88
    a620:	794010b7          	lui	ra,0x79401
    a624:	0030e133          	or	sp,ra,gp
    a628:	4fb7f097          	auipc	ra,0x4fb7f
    a62c:	321bc197          	auipc	gp,0x321bc
    a630:	6d200093          	li	ra,1746
    a634:	95310193          	addi	gp,sp,-1709 # 0x6d4f2f63
    a638:	fb0dd137          	lui	sp,0xfb0dd
    a63c:	25806093          	ori	ra,zero,600
    a640:	40220133          	sub	sp,tp,sp
    a644:	04c841b7          	lui	gp,0x4c84
    a648:	13416393          	ori	t2,sp,308
    a64c:	25c32337          	lui	t1,0x25c32
    a650:	002486b3          	add	a3,s1,sp
    a654:	0fc1f317          	auipc	t1,0xfc1f
    a658:	d4a9a117          	auipc	sp,0xd4a9a
    a65c:	5e618113          	addi	sp,gp,1510 # 0x4c845e6
    a660:	001bc0b3          	xor	ra,s7,ra
    a664:	3a808137          	lui	sp,0x3a808
    a668:	0034c133          	xor	sp,s1,gp
    a66c:	3e9e0097          	auipc	ra,0x3e9e0
    a670:	8b818113          	addi	sp,gp,-1864
    a674:	3b517113          	andi	sp,sp,949
    a678:	ce5090b7          	lui	ra,0xce509
    a67c:	1a90f193          	andi	gp,ra,425
    a680:	69518113          	addi	sp,gp,1685
    a684:	00627193          	andi	gp,tp,6
    a688:	00000013          	nop
    a68c:	dc0006e3          	beqz	zero,0xa458
    a690:	1d97b117          	auipc	sp,0x1d97b
    a694:	e0583297          	auipc	t0,0xe0583
    a698:	0062f333          	and	t1,t0,t1
    a69c:	0031c2b3          	xor	t0,gp,gp
    a6a0:	ba908113          	addi	sp,ra,-1111 # 0xffffffffce508ba9
    a6a4:	73c14013          	xori	zero,sp,1852
    a6a8:	78cb7097          	auipc	ra,0x78cb7
    a6ac:	0e341137          	lui	sp,0xe341
    a6b0:	00308033          	add	zero,ra,gp
    a6b4:	5c7371b7          	lui	gp,0x5c737
    a6b8:	033fe137          	lui	sp,0x33fe
    a6bc:	8ef47f97          	auipc	t6,0x8ef47
    a6c0:	d3614113          	xori	sp,sp,-714
    a6c4:	37c0f293          	andi	t0,ra,892
    a6c8:	a495d0b7          	lui	ra,0xa495d
    a6cc:	7b516093          	ori	ra,sp,1973
    a6d0:	f541f117          	auipc	sp,0xf541f
    a6d4:	4fa36213          	ori	tp,t1,1274
    a6d8:	402081b3          	sub	gp,ra,sp
    a6dc:	1f6e8217          	auipc	tp,0x1f6e8
    a6e0:	2c557137          	lui	sp,0x2c557
    a6e4:	28aef1b7          	lui	gp,0x28aef
    a6e8:	0031c3b3          	xor	t2,gp,gp
    a6ec:	2523b117          	auipc	sp,0x2523b
    a6f0:	8933c013          	xori	zero,t2,-1901
    a6f4:	9150f193          	andi	gp,ra,-1771
    a6f8:	3481e093          	ori	ra,gp,840
    a6fc:	bc518193          	addi	gp,gp,-1083 # 0x28aeebc5
    a700:	1ccb30b7          	lui	ra,0x1ccb3
    a704:	6094e117          	auipc	sp,0x6094e
    a708:	5280c113          	xori	sp,ra,1320
    a70c:	6edbc017          	auipc	zero,0x6edbc
    a710:	440fd137          	lui	sp,0x440fd
    a714:	00018093          	mv	ra,gp
    a718:	ba3084e3          	beq	ra,gp,0xa2c0
    a71c:	02743197          	auipc	gp,0x2743
    a720:	0000f1b3          	and	gp,ra,zero
    a724:	0ff18513          	addi	a0,gp,255 # 0x274d81b
    a728:	7ed2c093          	xori	ra,t0,2029
    a72c:	a8cfd337          	lui	t1,0xa8cfd
    a730:	b3e14137          	lui	sp,0xb3e14
    a734:	40318133          	sub	sp,gp,gp
    a738:	00216033          	or	zero,sp,sp
    a73c:	88f16113          	ori	sp,sp,-1905
    a740:	0031e1b3          	or	gp,gp,gp
    a744:	0020e0b3          	or	ra,ra,sp
    a748:	92c8a237          	lui	tp,0x92c8a
    a74c:	8650d3b7          	lui	t2,0x8650d
    a750:	ff7f6097          	auipc	ra,0xff7f6
    a754:	8d61f193          	andi	gp,gp,-1834
    a758:	0081e833          	or	a6,gp,s0
    a75c:	0171e193          	ori	gp,gp,23
    a760:	99dd3097          	auipc	ra,0x99dd3
    a764:	975b5117          	auipc	sp,0x975b5
    a768:	00b170b3          	and	ra,sp,a1
    a76c:	40378133          	sub	sp,a5,gp
    a770:	4a2a00b7          	lui	ra,0x4a2a0
    a774:	ab237093          	andi	ra,t1,-1358
    a778:	5511c113          	xori	sp,gp,1361
    a77c:	0030c1b3          	xor	gp,ra,gp
    a780:	3d816013          	ori	zero,sp,984
    a784:	0022e133          	or	sp,t0,sp
    a788:	60be51b7          	lui	gp,0x60be5
    a78c:	fadb4117          	auipc	sp,0xfadb4
    a790:	19a72097          	auipc	ra,0x19a72
    a794:	36ef5197          	auipc	gp,0x36ef5
    a798:	3e6c60b7          	lui	ra,0x3e6c6
    a79c:	672d9117          	auipc	sp,0x672d9
    a7a0:	ac5cb137          	lui	sp,0xac5cb
    a7a4:	00008113          	mv	sp,ra
    a7a8:	00110263          	beq	sp,ra,0xa7ac
    a7ac:	27808113          	addi	sp,ra,632 # 0x3e6c6278
    a7b0:	85ede017          	auipc	zero,0x85ede
    a7b4:	976b1137          	lui	sp,0x976b1
    a7b8:	eaca0217          	auipc	tp,0xeaca0
    a7bc:	000141b3          	xor	gp,sp,zero
    a7c0:	0023e733          	or	a4,t2,sp
    a7c4:	923a5097          	auipc	ra,0x923a5
    a7c8:	e3d00393          	li	t2,-451
    a7cc:	001241b3          	xor	gp,tp,ra
    a7d0:	3c00f793          	andi	a5,ra,960
    a7d4:	e40c6197          	auipc	gp,0xe40c6
    a7d8:	401481b3          	sub	gp,s1,ra
    a7dc:	0000e133          	or	sp,ra,zero
    a7e0:	2c293097          	auipc	ra,0x2c293
    a7e4:	831390b7          	lui	ra,0x83139
    a7e8:	876f2137          	lui	sp,0x876f2
    a7ec:	f3b61137          	lui	sp,0xf3b61
    a7f0:	09fc0137          	lui	sp,0x9fc0
    a7f4:	0020c0b3          	xor	ra,ra,sp
    a7f8:	0010c333          	xor	t1,ra,ra
    a7fc:	8e145117          	auipc	sp,0x8e145
    a800:	a0c10213          	addi	tp,sp,-1524 # 0xffffffff8e14f208
    a804:	aa9da497          	auipc	s1,0xaa9da
    a808:	005080b3          	add	ra,ra,t0
    a80c:	0042c133          	xor	sp,t0,tp
    a810:	e7281217          	auipc	tp,0xe7281
    a814:	00216ab3          	or	s5,sp,sp
    a818:	47ade0b7          	lui	ra,0x47ade
    a81c:	039550b7          	lui	ra,0x3955
    a820:	9263c137          	lui	sp,0x9263c
    a824:	00010213          	mv	tp,sp
    a828:	7c220463          	beq	tp,sp,0xaff0
    a82c:	003141b3          	xor	gp,sp,gp
    a830:	001101b3          	add	gp,sp,ra
    a834:	30f39117          	auipc	sp,0x30f39
    a838:	6261f093          	andi	ra,gp,1574
    a83c:	81a07093          	andi	ra,zero,-2022
    a840:	91661097          	auipc	ra,0x91661
    a844:	2e86e097          	auipc	ra,0x2e86e
    a848:	34de2117          	auipc	sp,0x34de2
    a84c:	ce1754b7          	lui	s1,0xce175
    a850:	8e201117          	auipc	sp,0x8e201
    a854:	f3306093          	ori	ra,zero,-205
    a858:	0061f133          	and	sp,gp,t1
    a85c:	1752b097          	auipc	ra,0x1752b
    a860:	0040c233          	xor	tp,ra,tp
    a864:	be946137          	lui	sp,0xbe946
    a868:	d1f5f197          	auipc	gp,0xd1f5f
    a86c:	ddeb8193          	addi	gp,s7,-546 # 0xffffffff8fa64d02
    a870:	00118133          	add	sp,gp,ra
    a874:	8111f113          	andi	sp,gp,-2031
    a878:	0010c1b3          	xor	gp,ra,ra
    a87c:	2dcf0097          	auipc	ra,0x2dcf0
    a880:	4720e013          	ori	zero,ra,1138
    a884:	27f16193          	ori	gp,sp,639
    a888:	0010f1b3          	and	gp,ra,ra
    a88c:	97250097          	auipc	ra,0x97250
    a890:	987a6097          	auipc	ra,0x987a6
    a894:	b61a8337          	lui	t1,0xb61a8
    a898:	3e617a13          	andi	s4,sp,998
    a89c:	72c16113          	ori	sp,sp,1836
    a8a0:	be1ac397          	auipc	t2,0xbe1ac
    a8a4:	b40ae2b7          	lui	t0,0xb40ae
    a8a8:	00000f17          	auipc	t5,0x0
    a8ac:	3f8f0167          	jalr	sp,1016(t5) # 0xaca0
    a8b0:	28e5c137          	lui	sp,0x28e5c
    a8b4:	0031e0b3          	or	ra,gp,gp
    a8b8:	6d12b137          	lui	sp,0x6d12b
    a8bc:	613a90b7          	lui	ra,0x613a9
    a8c0:	a84da097          	auipc	ra,0xa84da
    a8c4:	eaa6a117          	auipc	sp,0xeaa6a
    a8c8:	00317133          	and	sp,sp,gp
    a8cc:	0010e133          	or	sp,ra,ra
    a8d0:	c52b61b7          	lui	gp,0xc52b6
    a8d4:	1ac16137          	lui	sp,0x1ac16
    a8d8:	4fb9b137          	lui	sp,0x4fb9b
    a8dc:	1db15097          	auipc	ra,0x1db15
    a8e0:	40610133          	sub	sp,sp,t1
    a8e4:	002002b3          	add	t0,zero,sp
    a8e8:	cb17a497          	auipc	s1,0xcb17a
    a8ec:	1960a117          	auipc	sp,0x1960a
    a8f0:	e82bb217          	auipc	tp,0xe82bb
    a8f4:	dbcbe1b7          	lui	gp,0xdbcbe
    a8f8:	0061f1b3          	and	gp,gp,t1
    a8fc:	225331b7          	lui	gp,0x22533
    a900:	0070e1b3          	or	gp,ra,t2
    a904:	9df3b097          	auipc	ra,0x9df3b
    a908:	00b0f1b3          	and	gp,ra,a1
    a90c:	5b5c4017          	auipc	zero,0x5b5c4
    a910:	58b601b7          	lui	gp,0x58b60
    a914:	d8fc2097          	auipc	ra,0xd8fc2
    a918:	133f10b7          	lui	ra,0x133f1
    a91c:	003140b3          	xor	ra,sp,gp
    a920:	64110463          	beq	sp,ra,0xaf68
    a924:	644006ef          	jal	a3,0xaf68
    a928:	0063e233          	or	tp,t2,t1
    a92c:	cc71fe93          	andi	t4,gp,-825
    a930:	f8c2a117          	auipc	sp,0xf8c2a
    a934:	002260b3          	or	ra,tp,sp
    a938:	30d68197          	auipc	gp,0x30d68
    a93c:	31f6f197          	auipc	gp,0x31f6f
    a940:	b288c197          	auipc	gp,0xb288c
    a944:	02a37013          	andi	zero,t1,42
    a948:	3880d197          	auipc	gp,0x3880d
    a94c:	0021f133          	and	sp,gp,sp
    a950:	3ed0e013          	ori	zero,ra,1005
    a954:	00228133          	add	sp,t0,sp
    a958:	43515137          	lui	sp,0x43515
    a95c:	d6562017          	auipc	zero,0xd6562
    a960:	00217133          	and	sp,sp,sp
    a964:	50c14017          	auipc	zero,0x50c14
    a968:	0001c0b3          	xor	ra,gp,zero
    a96c:	0010f6b3          	and	a3,ra,ra
    a970:	afbe6197          	auipc	gp,0xafbe6
    a974:	2ab08e93          	addi	t4,ra,683 # 0x133f12ab
    a978:	0031e2b3          	or	t0,gp,gp
    a97c:	4c60e793          	ori	a5,ra,1222
    a980:	002282b3          	add	t0,t0,sp
    a984:	40058133          	sub	sp,a1,zero
    a988:	51c37097          	auipc	ra,0x51c37
    a98c:	401101b3          	sub	gp,sp,ra
    a990:	002b0133          	add	sp,s6,sp
    a994:	6910f193          	andi	gp,ra,1681
    a998:	8dcdf137          	lui	sp,0x8dcdf
    a99c:	0040ca33          	xor	s4,ra,tp
    a9a0:	b2488237          	lui	tp,0xb2488
    a9a4:	0022c0b3          	xor	ra,t0,sp
    a9a8:	d9bc7117          	auipc	sp,0xd9bc7
    a9ac:	6857c717          	auipc	a4,0x6857c
    a9b0:	91617193          	andi	gp,sp,-1770
    a9b4:	003240b3          	xor	ra,tp,gp
    a9b8:	00018193          	mv	gp,gp
    a9bc:	6c318263          	beq	gp,gp,0xb080
    a9c0:	007041b3          	xor	gp,zero,t2
    a9c4:	9ed51217          	auipc	tp,0x9ed51
    a9c8:	40b103b3          	sub	t2,sp,a1
    a9cc:	71a10193          	addi	gp,sp,1818 # 0xffffffffd9bd20c2
    a9d0:	40338133          	sub	sp,t2,gp
    a9d4:	c53320b7          	lui	ra,0xc5332
    a9d8:	00108333          	add	t1,ra,ra
    a9dc:	a4980117          	auipc	sp,0xa4980
    a9e0:	415100b3          	sub	ra,sp,s5
    a9e4:	f2430113          	addi	sp,t1,-220 # 0xffffffffb61a7f24
    a9e8:	db09d117          	auipc	sp,0xdb09d
    a9ec:	52218113          	addi	sp,gp,1314 # 0xffffffffafbf0e92
    a9f0:	79624113          	xori	sp,tp,1942
    a9f4:	10f2c313          	xori	t1,t0,271
    a9f8:	1905f297          	auipc	t0,0x1905f
    a9fc:	7ad1e093          	ori	ra,gp,1965
    aa00:	94b1a797          	auipc	a5,0x94b1a
    aa04:	f5ce7197          	auipc	gp,0xf5ce7
    aa08:	82766117          	auipc	sp,0x82766
    aa0c:	004180b3          	add	ra,gp,tp
    aa10:	401481b3          	sub	gp,s1,ra
    aa14:	cad00013          	li	zero,-851
    aa18:	04eff1b7          	lui	gp,0x4eff
    aa1c:	0030e1b3          	or	gp,ra,gp
    aa20:	5f762097          	auipc	ra,0x5f762
    aa24:	0d800193          	li	gp,216
    aa28:	37420097          	auipc	ra,0x37420
    aa2c:	f34c61b7          	lui	gp,0xf34c6
    aa30:	0000c0b3          	xor	ra,ra,zero
    aa34:	000160b3          	or	ra,sp,zero
    aa38:	95db22b7          	lui	t0,0x95db2
    aa3c:	40118333          	sub	t1,gp,ra
    aa40:	0013e133          	or	sp,t2,ra
    aa44:	e28a30b7          	lui	ra,0xe28a3
    aa48:	00018193          	mv	gp,gp
    aa4c:	48318663          	beq	gp,gp,0xaed8
    aa50:	c021f093          	andi	ra,gp,-1022
    aa54:	e05141b7          	lui	gp,0xe0514
    aa58:	62109117          	auipc	sp,0x62109
    aa5c:	f3a65237          	lui	tp,0xf3a65
    aa60:	b8b27097          	auipc	ra,0xb8b27
    aa64:	005101b3          	add	gp,sp,t0
    aa68:	4673e113          	ori	sp,t2,1127
    aa6c:	17d17993          	andi	s3,sp,381
    aa70:	70c0c313          	xori	t1,ra,1804
    aa74:	af31e313          	ori	t1,gp,-1293
    aa78:	16c1c117          	auipc	sp,0x16c1c
    aa7c:	dd555137          	lui	sp,0xdd555
    aa80:	b47b6137          	lui	sp,0xb47b6
    aa84:	af84e113          	ori	sp,s1,-1288
    aa88:	4819d2b7          	lui	t0,0x4819d
    aa8c:	c8d1c113          	xori	sp,gp,-883
    aa90:	ec403097          	auipc	ra,0xec403
    aa94:	002164b3          	or	s1,sp,sp
    aa98:	460ea2b7          	lui	t0,0x460ea
    aa9c:	90de1217          	auipc	tp,0x90de1
    aaa0:	63cfc097          	auipc	ra,0x63cfc
    aaa4:	003100b3          	add	ra,sp,gp
    aaa8:	509bc0b7          	lui	ra,0x509bc
    aaac:	6ff74097          	auipc	ra,0x6ff74
    aab0:	71934137          	lui	sp,0x71934
    aab4:	42d771b7          	lui	gp,0x42d77
    aab8:	91abc297          	auipc	t0,0x91abc
    aabc:	1bb17013          	andi	zero,sp,443
    aac0:	d176e093          	ori	ra,a3,-745
    aac4:	d52d33b7          	lui	t2,0xd52d3
    aac8:	003980b3          	add	ra,s3,gp
    aacc:	0c310337          	lui	t1,0xc310
    aad0:	3f8ee117          	auipc	sp,0x3f8ee
    aad4:	a0bab137          	lui	sp,0xa0bab
    aad8:	40128133          	sub	sp,t0,ra
    aadc:	00218033          	add	zero,gp,sp
    aae0:	57cd3117          	auipc	sp,0x57cd3
    aae4:	e1239017          	auipc	zero,0xe1239
    aae8:	00000117          	auipc	sp,0x0
    aaec:	124103e7          	jalr	t2,292(sp) # 0xac0c
    aaf0:	0011c033          	xor	zero,gp,ra
    aaf4:	eb779097          	auipc	ra,0xeb779
    aaf8:	f3dfc0b7          	lui	ra,0xf3dfc
    aafc:	0070c1b3          	xor	gp,ra,t2
    ab00:	0030c2b3          	xor	t0,ra,gp
    ab04:	1f869097          	auipc	ra,0x1f869
    ab08:	40f101b3          	sub	gp,sp,a5
    ab0c:	cfe0c093          	xori	ra,ra,-770
    ab10:	96f220b7          	lui	ra,0x96f22
    ab14:	47b321b7          	lui	gp,0x47b32
    ab18:	5ace25b7          	lui	a1,0x5ace2
    ab1c:	ccb82197          	auipc	gp,0xccb82
    ab20:	59575b97          	auipc	s7,0x59575
    ab24:	ee8f50b7          	lui	ra,0xee8f5
    ab28:	992391b7          	lui	gp,0x99239
    ab2c:	00416333          	or	t1,sp,tp
    ab30:	402104b3          	sub	s1,sp,sp
    ab34:	00010133          	add	sp,sp,zero
    ab38:	94638337          	lui	t1,0x94638
    ab3c:	21ebc0b7          	lui	ra,0x21ebc
    ab40:	3d585117          	auipc	sp,0x3d585
    ab44:	0021c233          	xor	tp,gp,sp
    ab48:	abe1e193          	ori	gp,gp,-1346
    ab4c:	f4cc0013          	addi	zero,s8,-180 # 0xffffffffd9f9b3e0
    ab50:	af5840b7          	lui	ra,0xaf584
    ab54:	a1a1c193          	xori	gp,gp,-1510
    ab58:	b1ba00b7          	lui	ra,0xb1ba0
    ab5c:	41117117          	auipc	sp,0x41117
    ab60:	ec1841b7          	lui	gp,0xec184
    ab64:	6c0050b7          	lui	ra,0x6c005
    ab68:	00000217          	auipc	tp,0x0
    ab6c:	008201e7          	jalr	gp,8(tp) # 0x0
    ab70:	11eb00b7          	lui	ra,0x11eb0
    ab74:	71534217          	auipc	tp,0x71534
    ab78:	bb25c1b7          	lui	gp,0xbb25c
    ab7c:	ccff30b7          	lui	ra,0xccff3
    ab80:	b4c14113          	xori	sp,sp,-1204
    ab84:	40310333          	sub	t1,sp,gp
    ab88:	e02ca017          	auipc	zero,0xe02ca
    ab8c:	53cf30b7          	lui	ra,0x53cf3
    ab90:	e2ad5117          	auipc	sp,0xe2ad5
    ab94:	4c4c01b7          	lui	gp,0x4c4c0
    ab98:	e100e093          	ori	ra,ra,-496
    ab9c:	0073eeb3          	or	t4,t2,t2
    aba0:	24f30013          	addi	zero,t1,591 # 0xffffffff9463824f
    aba4:	e9708113          	addi	sp,ra,-361 # 0x53cf2e97
    aba8:	0020f033          	and	zero,ra,sp
    abac:	b46a41b7          	lui	gp,0xb46a4
    abb0:	005181b3          	add	gp,gp,t0
    abb4:	00016533          	or	a0,sp,zero
    abb8:	7d47c1b7          	lui	gp,0x7d47c
    abbc:	8813a037          	lui	zero,0x8813a
    abc0:	17ad9337          	lui	t1,0x17ad9
    abc4:	0a10ea13          	ori	s4,ra,161
    abc8:	003041b3          	xor	gp,zero,gp
    abcc:	40308133          	sub	sp,ra,gp
    abd0:	0031f1b3          	and	gp,gp,gp
    abd4:	ad10d0b7          	lui	ra,0xad10d
    abd8:	5ad93317          	auipc	t1,0x5ad93
    abdc:	de00e313          	ori	t1,ra,-544
    abe0:	3c438197          	auipc	gp,0x3c438
    abe4:	0017f1b3          	and	gp,a5,ra
    abe8:	66a6f317          	auipc	t1,0x66a6f
    abec:	f150e193          	ori	gp,ra,-235
    abf0:	65481117          	auipc	sp,0x65481
    abf4:	170d0797          	auipc	a5,0x170d0
    abf8:	fafd6117          	auipc	sp,0xfafd6
    abfc:	31f901b7          	lui	gp,0x31f90
    ac00:	446ed197          	auipc	gp,0x446ed
    ac04:	00418263          	beq	gp,tp,0xac08
    ac08:	069003ef          	jal	t2,0xb470
    ac0c:	53734193          	xori	gp,t1,1335
    ac10:	00434133          	xor	sp,t1,tp
    ac14:	23c1f193          	andi	gp,gp,572
    ac18:	01a1e293          	ori	t0,gp,26
    ac1c:	003300b3          	add	ra,t1,gp
    ac20:	5a108113          	addi	sp,ra,1441 # 0xffffffffad10d5a1
    ac24:	a7fa53b7          	lui	t2,0xa7fa5
    ac28:	1f417113          	andi	sp,sp,500
    ac2c:	cc36a297          	auipc	t0,0xcc36a
    ac30:	0050c333          	xor	t1,ra,t0
    ac34:	bed21137          	lui	sp,0xbed21
    ac38:	20e72137          	lui	sp,0x20e72
    ac3c:	3c10f093          	andi	ra,ra,961
    ac40:	bf079297          	auipc	t0,0xbf079
    ac44:	d1716693          	ori	a3,sp,-745
    ac48:	004101b3          	add	gp,sp,tp
    ac4c:	b6c1f193          	andi	gp,gp,-1172
    ac50:	e214e0b7          	lui	ra,0xe214e
    ac54:	66672097          	auipc	ra,0x66672
    ac58:	0043f1b3          	and	gp,t2,tp
    ac5c:	00708133          	add	sp,ra,t2
    ac60:	000341b3          	xor	gp,t1,zero
    ac64:	354a51b7          	lui	gp,0x354a5
    ac68:	99c17193          	andi	gp,sp,-1636
    ac6c:	5d828313          	addi	t1,t0,1496 # 0xffffffffbf084218
    ac70:	8529e017          	auipc	zero,0x8529e
    ac74:	42617093          	andi	ra,sp,1062
    ac78:	002140b3          	xor	ra,sp,sp
    ac7c:	fdf591b7          	lui	gp,0xfdf59
    ac80:	aee24113          	xori	sp,tp,-1298
    ac84:	40338133          	sub	sp,t2,gp
    ac88:	403103b3          	sub	t2,sp,gp
    ac8c:	8a1120b7          	lui	ra,0x8a112
    ac90:	4e15e117          	auipc	sp,0x4e15e
    ac94:	b231f713          	andi	a4,gp,-1245
    ac98:	c83288e3          	beq	t0,gp,0xa928
    ac9c:	c8dff0ef          	jal	ra,0xa928
    aca0:	bf7fa097          	auipc	ra,0xbf7fa
    aca4:	bdda7317          	auipc	t1,0xbdda7
    aca8:	bbf3e137          	lui	sp,0xbbf3e
    acac:	252970b7          	lui	ra,0x25297
    acb0:	0023e0b3          	or	ra,t2,sp
    acb4:	00617133          	and	sp,sp,t1
    acb8:	551b11b7          	lui	gp,0x551b1
    acbc:	78136137          	lui	sp,0x78136
    acc0:	d2c11117          	auipc	sp,0xd2c11
    acc4:	d3d4f0b7          	lui	ra,0xd3d4f
    acc8:	7af1e113          	ori	sp,gp,1967
    accc:	0021e0b3          	or	ra,gp,sp
    acd0:	e7845137          	lui	sp,0xe7845
    acd4:	400101b3          	sub	gp,sp,zero
    acd8:	1520e013          	ori	zero,ra,338
    acdc:	046a2197          	auipc	gp,0x46a2
    ace0:	215c13b7          	lui	t2,0x215c1
    ace4:	5521e193          	ori	gp,gp,1362
    ace8:	ab0f11b7          	lui	gp,0xab0f1
    acec:	d2816313          	ori	t1,sp,-728
    acf0:	ddf75597          	auipc	a1,0xddf75
    acf4:	0021e1b3          	or	gp,gp,sp
    acf8:	002161b3          	or	gp,sp,sp
    acfc:	40408133          	sub	sp,ra,tp
    ad00:	002161b3          	or	gp,sp,sp
    ad04:	9a78a2b7          	lui	t0,0x9a78a
    ad08:	e24ab137          	lui	sp,0xe24ab
    ad0c:	0031f1b3          	and	gp,gp,gp
    ad10:	25e68113          	addi	sp,a3,606
    ad14:	38e0acb7          	lui	s9,0x38e0a
    ad18:	b7cfc0b7          	lui	ra,0xb7cfc
    ad1c:	7ef17013          	andi	zero,sp,2031
    ad20:	11f811b7          	lui	gp,0x11f81
    ad24:	a25a4237          	lui	tp,0xa25a4
    ad28:	00018113          	mv	sp,gp
    ad2c:	00310263          	beq	sp,gp,0xad30
    ad30:	760611b7          	lui	gp,0x76061
    ad34:	7c69b137          	lui	sp,0x7c69b
    ad38:	75016093          	ori	ra,sp,1872
    ad3c:	d673f3b7          	lui	t2,0xd673f
    ad40:	004171b3          	and	gp,sp,tp
    ad44:	f7d6f093          	andi	ra,a3,-131
    ad48:	4e068097          	auipc	ra,0x4e068
    ad4c:	001200b3          	add	ra,tp,ra
    ad50:	402081b3          	sub	gp,ra,sp
    ad54:	002171b3          	and	gp,sp,sp
    ad58:	0023f0b3          	and	ra,t2,sp
    ad5c:	a7869097          	auipc	ra,0xa7869
    ad60:	cb20e193          	ori	gp,ra,-846
    ad64:	8e3a4197          	auipc	gp,0x8e3a4
    ad68:	5631b1b7          	lui	gp,0x5631b
    ad6c:	42e4a417          	auipc	s0,0x42e4a
    ad70:	0010c0b3          	xor	ra,ra,ra
    ad74:	2eb51037          	lui	zero,0x2eb51
    ad78:	007101b3          	add	gp,sp,t2
    ad7c:	32618137          	lui	sp,0x32618
    ad80:	00316133          	or	sp,sp,gp
    ad84:	20424193          	xori	gp,tp,516
    ad88:	0031e0b3          	or	ra,gp,gp
    ad8c:	4203e193          	ori	gp,t2,1056
    ad90:	71a0e113          	ori	sp,ra,1818
    ad94:	00b0f0b3          	and	ra,ra,a1
    ad98:	402181b3          	sub	gp,gp,sp
    ad9c:	19ba7297          	auipc	t0,0x19ba7
    ada0:	6ac20197          	auipc	gp,0x6ac20
    ada4:	06b980b7          	lui	ra,0x6b98
    ada8:	bf689117          	auipc	sp,0xbf689
    adac:	b1f183b7          	lui	t2,0xb1f18
    adb0:	3b15c313          	xori	t1,a1,945
    adb4:	d810f113          	andi	sp,ra,-639
    adb8:	00000197          	auipc	gp,0x0
    adbc:	c98181e7          	jalr	gp,-872(gp) # 0xaa50
    adc0:	d9c9a197          	auipc	gp,0xd9c9a
    adc4:	402000b3          	neg	ra,sp
    adc8:	59b2f293          	andi	t0,t0,1435
    adcc:	0063e133          	or	sp,t2,t1
    add0:	fc66c0b7          	lui	ra,0xfc66c
    add4:	40258133          	sub	sp,a1,sp
    add8:	e893c737          	lui	a4,0xe893c
    addc:	643882b7          	lui	t0,0x64388
    ade0:	403100b3          	sub	ra,sp,gp
    ade4:	21f2c113          	xori	sp,t0,543
    ade8:	e5b8a017          	auipc	zero,0xe5b8a
    adec:	db45d397          	auipc	t2,0xdb45d
    adf0:	ed5b30b7          	lui	ra,0xed5b3
    adf4:	55a6b397          	auipc	t2,0x55a6b
    adf8:	40f081b3          	sub	gp,ra,a5
    adfc:	0023e0b3          	or	ra,t2,sp
    ae00:	00208133          	add	sp,ra,sp
    ae04:	f8922337          	lui	t1,0xf8922
    ae08:	7c6a9297          	auipc	t0,0x7c6a9
    ae0c:	a4417993          	andi	s3,sp,-1468
    ae10:	00720133          	add	sp,tp,t2
    ae14:	2a320297          	auipc	t0,0x2a320
    ae18:	0010e033          	or	zero,ra,ra
    ae1c:	f8e2e197          	auipc	gp,0xf8e2e
    ae20:	90cbc137          	lui	sp,0x90cbc
    ae24:	6ea0e113          	ori	sp,ra,1770
    ae28:	b6627293          	andi	t0,tp,-1178
    ae2c:	de80f097          	auipc	ra,0xde80f
    ae30:	e5df9137          	lui	sp,0xe5df9
    ae34:	c9fcc1b7          	lui	gp,0xc9fcc
    ae38:	1f508f93          	addi	t6,ra,501 # 0xffffffffde81a021
    ae3c:	fa717113          	andi	sp,sp,-89
    ae40:	b3007393          	andi	t2,zero,-1232
    ae44:	5d83b117          	auipc	sp,0x5d83b
    ae48:	00238463          	beq	t2,sp,0xae50
    ae4c:	004001ef          	jal	gp,0xae50
    ae50:	d7766097          	auipc	ra,0xd7766
    ae54:	a402e193          	ori	gp,t0,-1472
    ae58:	95eb5117          	auipc	sp,0x95eb5
    ae5c:	1fe1e093          	ori	ra,gp,510
    ae60:	1841c113          	xori	sp,gp,388
    ae64:	c2517113          	andi	sp,sp,-987
    ae68:	00b82017          	auipc	zero,0xb82
    ae6c:	7a79b117          	auipc	sp,0x7a79b
    ae70:	592de137          	lui	sp,0x592de
    ae74:	c3160117          	auipc	sp,0xc3160
    ae78:	c0c16e93          	ori	t4,sp,-1012
    ae7c:	0020c1b3          	xor	gp,ra,sp
    ae80:	20bb22b7          	lui	t0,0x20bb2
    ae84:	401582b3          	sub	t0,a1,ra
    ae88:	6f35d017          	auipc	zero,0x6f35d
    ae8c:	e9435197          	auipc	gp,0xe9435
    ae90:	f9110093          	addi	ra,sp,-111 # 0xffffffffc316ae05
    ae94:	00518233          	add	tp,gp,t0
    ae98:	315c4117          	auipc	sp,0x315c4
    ae9c:	4774c093          	xori	ra,s1,1143
    aea0:	0010c1b3          	xor	gp,ra,ra
    aea4:	3c386097          	auipc	ra,0x3c386
    aea8:	8df1e597          	auipc	a1,0x8df1e
    aeac:	9e21e113          	ori	sp,gp,-1566
    aeb0:	668f56b7          	lui	a3,0x668f5
    aeb4:	0330e193          	ori	gp,ra,51
    aeb8:	0030f033          	and	zero,ra,gp
    aebc:	72f291b7          	lui	gp,0x72f29
    aec0:	ac37a097          	auipc	ra,0xac37a
    aec4:	a605b117          	auipc	sp,0xa605b
    aec8:	274cf2b7          	lui	t0,0x274cf
    aecc:	9a5e9197          	auipc	gp,0x9a5e9
    aed0:	94208ee3          	beq	ra,sp,0xa82c
    aed4:	959ff0ef          	jal	ra,0xa82c
    aed8:	ea220393          	addi	t2,tp,-350 # 0xffffffffa25a3ea2
    aedc:	d8dcb497          	auipc	s1,0xd8dcb
    aee0:	1eec2137          	lui	sp,0x1eec2
    aee4:	56a25217          	auipc	tp,0x56a25
    aee8:	00000133          	add	sp,zero,zero
    aeec:	b660e193          	ori	gp,ra,-1178
    aef0:	d5de83b7          	lui	t2,0xd5de8
    aef4:	e00be197          	auipc	gp,0xe00be
    aef8:	a28af117          	auipc	sp,0xa28af
    aefc:	4f010693          	addi	a3,sp,1264 # 0xffffffffa28ba3e8
    af00:	0010e333          	or	t1,ra,ra
    af04:	788e9117          	auipc	sp,0x788e9
    af08:	7cf37217          	auipc	tp,0x7cf37
    af0c:	6b959017          	auipc	zero,0x6b959
    af10:	003180b3          	add	ra,gp,gp
    af14:	001141b3          	xor	gp,sp,ra
    af18:	c34e5197          	auipc	gp,0xc34e5
    af1c:	00528b33          	add	s6,t0,t0
    af20:	6fd10093          	addi	ra,sp,1789 # 0x788f4601
    af24:	9a817393          	andi	t2,sp,-1624
    af28:	0016c133          	xor	sp,a3,ra
    af2c:	30ace097          	auipc	ra,0x30ace
    af30:	23f08093          	addi	ra,ra,575 # 0x30ad916b
    af34:	c6a17093          	andi	ra,sp,-918
    af38:	0011e133          	or	sp,gp,ra
    af3c:	40218133          	sub	sp,gp,sp
    af40:	9da93197          	auipc	gp,0x9da93
    af44:	b44340b7          	lui	ra,0xb4434
    af48:	0011f0b3          	and	ra,gp,ra
    af4c:	c371e293          	ori	t0,gp,-969
    af50:	407080b3          	sub	ra,ra,t2
    af54:	2e80c113          	xori	sp,ra,744
    af58:	dacbf197          	auipc	gp,0xdacbf
    af5c:	d4961637          	lui	a2,0xd4961
    af60:	00218263          	beq	gp,sp,0xaf64
    af64:	fb8ff26f          	jal	tp,0xa71c
    af68:	3ce2c113          	xori	sp,t0,974
    af6c:	ae9af197          	auipc	gp,0xae9af
    af70:	edc495b7          	lui	a1,0xedc49
    af74:	b9941217          	auipc	tp,0xb9941
    af78:	402281b3          	sub	gp,t0,sp
    af7c:	40120133          	sub	sp,tp,ra
    af80:	00107133          	and	sp,zero,ra
    af84:	3937e217          	auipc	tp,0x3937e
    af88:	f8467137          	lui	sp,0xf8467
    af8c:	6a3db017          	auipc	zero,0x6a3db
    af90:	40218133          	sub	sp,gp,sp
    af94:	76aac0b7          	lui	ra,0x76aac
    af98:	9fb1e093          	ori	ra,gp,-1541
    af9c:	c23cb1b7          	lui	gp,0xc23cb
    afa0:	003881b3          	add	gp,a7,gp
    afa4:	4091c193          	xori	gp,gp,1033
    afa8:	0010c133          	xor	sp,ra,ra
    afac:	64118193          	addi	gp,gp,1601 # 0xffffffffc23cb641
    afb0:	b04360b7          	lui	ra,0xb0436
    afb4:	45104197          	auipc	gp,0x45104
    afb8:	001181b3          	add	gp,gp,ra
    afbc:	80e98797          	auipc	a5,0x80e98
    afc0:	0030f1b3          	and	gp,ra,gp
    afc4:	002040b3          	xor	ra,zero,sp
    afc8:	7b6c52b7          	lui	t0,0x7b6c5
    afcc:	bef9d017          	auipc	zero,0xbef9d
    afd0:	31238193          	addi	gp,t2,786 # 0xffffffffd5de8312
    afd4:	71208013          	addi	zero,ra,1810 # 0xffffffffb0436712
    afd8:	00214133          	xor	sp,sp,sp
    afdc:	ab96b7b7          	lui	a5,0xab96b
    afe0:	bc5e51b7          	lui	gp,0xbc5e5
    afe4:	a50f30b7          	lui	ra,0xa50f3
    afe8:	b05084e3          	beq	ra,t0,0xaaf0
    afec:	b05ff06f          	j	0xaaf0
    aff0:	f9c0f393          	andi	t2,ra,-100
    aff4:	14310193          	addi	gp,sp,323 # 0xfffffffff8467143
    aff8:	4606e097          	auipc	ra,0x4606e
    affc:	19bd4197          	auipc	gp,0x19bd4
    b000:	730fb717          	auipc	a4,0x730fb
    b004:	07b13117          	auipc	sp,0x7b13
    b008:	f88f1337          	lui	t1,0xf88f1
    b00c:	f483e1b7          	lui	gp,0xf483e
    b010:	f2c2b017          	auipc	zero,0xf2c2b
    b014:	015b4117          	auipc	sp,0x15b4
    b018:	0de43197          	auipc	gp,0xde43
    b01c:	401101b3          	sub	gp,sp,ra
    b020:	b14814b7          	lui	s1,0xb1481
    b024:	18dba097          	auipc	ra,0x18dba
    b028:	04390197          	auipc	gp,0x4390
    b02c:	8fc310b7          	lui	ra,0x8fc31
    b030:	97a14213          	xori	tp,sp,-1670
    b034:	86538093          	addi	ra,t2,-1947
    b038:	f030c097          	auipc	ra,0xf030c
    b03c:	74a3b137          	lui	sp,0x74a3b
    b040:	d2437117          	auipc	sp,0xd2437
    b044:	20617093          	andi	ra,sp,518
    b048:	001170b3          	and	ra,sp,ra
    b04c:	5630e513          	ori	a0,ra,1379
    b050:	4e30c493          	xori	s1,ra,1251
    b054:	0010c033          	xor	zero,ra,ra
    b058:	00436333          	or	t1,t1,tp
    b05c:	4908b0b7          	lui	ra,0x4908b
    b060:	0011f133          	and	sp,gp,ra
    b064:	750c20b7          	lui	ra,0x750c2
    b068:	a2b8d117          	auipc	sp,0xa2b8d
    b06c:	7c183217          	auipc	tp,0x7c183
    b070:	401183b3          	sub	t2,gp,ra
    b074:	4639a197          	auipc	gp,0x4639a
    b078:	00000097          	auipc	ra,0x0
    b07c:	094080e7          	jalr	148(ra) # 0xb10c
    b080:	3ce64217          	auipc	tp,0x3ce64
    b084:	001161b3          	or	gp,sp,ra
    b088:	c244a117          	auipc	sp,0xc244a
    b08c:	3752c193          	xori	gp,t0,885
    b090:	d0320213          	addi	tp,tp,-765 # 0x3ce6ed83
    b094:	000241b3          	xor	gp,tp,zero
    b098:	9ad67097          	auipc	ra,0x9ad67
    b09c:	00114db3          	xor	s11,sp,ra
    b0a0:	002101b3          	add	gp,sp,sp
    b0a4:	f1c2a0b7          	lui	ra,0xf1c2a
    b0a8:	d330e113          	ori	sp,ra,-717
    b0ac:	001e41b3          	xor	gp,t3,ra
    b0b0:	6260f013          	andi	zero,ra,1574
    b0b4:	0031f233          	and	tp,gp,gp
    b0b8:	a892f093          	andi	ra,t0,-1399
    b0bc:	e5eb40b7          	lui	ra,0xe5eb4
    b0c0:	004262b3          	or	t0,tp,tp
    b0c4:	e1240097          	auipc	ra,0xe1240
    b0c8:	002381b3          	add	gp,t2,sp
    b0cc:	0001e0b3          	or	ra,gp,zero
    b0d0:	2c208793          	addi	a5,ra,706 # 0xffffffffe124b386
    b0d4:	dfd76037          	lui	zero,0xdfd76
    b0d8:	c61663b7          	lui	t2,0xc6166
    b0dc:	e38471b7          	lui	gp,0xe3847
    b0e0:	2af93337          	lui	t1,0x2af93
    b0e4:	9ef271b7          	lui	gp,0x9ef27
    b0e8:	f0f16037          	lui	zero,0xf0f16
    b0ec:	63fc4217          	auipc	tp,0x63fc4
    b0f0:	003040b3          	xor	ra,zero,gp
    b0f4:	14a86237          	lui	tp,0x14a86
    b0f8:	7e910113          	addi	sp,sp,2025 # 0xffffffffc2455871
    b0fc:	e4310093          	addi	ra,sp,-445
    b100:	0dd59137          	lui	sp,0xdd59
    b104:	00158263          	beq	a1,ra,0xb108
    b108:	fa8ff2ef          	jal	t0,0xa8b0
    b10c:	c72421b7          	lui	gp,0xc7242
    b110:	40320333          	sub	t1,tp,gp
    b114:	401202b3          	sub	t0,tp,ra
    b118:	55ad8217          	auipc	tp,0x55ad8
    b11c:	93cf31b7          	lui	gp,0x93cf3
    b120:	672db0b7          	lui	ra,0x672db
    b124:	cf9561b7          	lui	gp,0xcf956
    b128:	002380b3          	add	ra,t2,sp
    b12c:	9a6e4137          	lui	sp,0x9a6e4
    b130:	83c1f213          	andi	tp,gp,-1988
    b134:	00316133          	or	sp,sp,gp
    b138:	56ac8237          	lui	tp,0x56ac8
    b13c:	0031c033          	xor	zero,gp,gp
    b140:	472a0137          	lui	sp,0x472a0
    b144:	01516093          	ori	ra,sp,21
    b148:	a86ae1b7          	lui	gp,0xa86ae
    b14c:	13e18793          	addi	a5,gp,318 # 0xffffffffa86ae13e
    b150:	e59e0097          	auipc	ra,0xe59e0
    b154:	3962f137          	lui	sp,0x3962f
    b158:	390bb117          	auipc	sp,0x390bb
    b15c:	75dff137          	lui	sp,0x75dff
    b160:	1cc17313          	andi	t1,sp,460
    b164:	0037cc33          	xor	s8,a5,gp
    b168:	35408093          	addi	ra,ra,852 # 0xffffffffe59eb4a4
    b16c:	425b20b7          	lui	ra,0x425b2
    b170:	0010f033          	and	zero,ra,ra
    b174:	4423b237          	lui	tp,0x4423b
    b178:	0017f133          	and	sp,a5,ra
    b17c:	82ddc113          	xori	sp,s11,-2003
    b180:	0bbeb217          	auipc	tp,0xbbeb
    b184:	4ef07197          	auipc	gp,0x4ef07
    b188:	8fea7697          	auipc	a3,0x8fea7
    b18c:	00508463          	beq	ra,t0,0xb194
    b190:	00400a6f          	jal	s4,0xb194
    b194:	00d0c7b3          	xor	a5,ra,a3
    b198:	c80c1b97          	auipc	s7,0xc80c1
    b19c:	003081b3          	add	gp,ra,gp
    b1a0:	402382b3          	sub	t0,t2,sp
    b1a4:	00136133          	or	sp,t1,ra
    b1a8:	40300133          	neg	sp,gp
    b1ac:	001105b3          	add	a1,sp,ra
    b1b0:	7081c113          	xori	sp,gp,1800
    b1b4:	9a40f113          	andi	sp,ra,-1628
    b1b8:	0033e133          	or	sp,t2,gp
    b1bc:	e1e18317          	auipc	t1,0xe1e18
    b1c0:	382b41b7          	lui	gp,0x382b4
    b1c4:	003180b3          	add	ra,gp,gp
    b1c8:	77b14193          	xori	gp,sp,1915
    b1cc:	83fa6197          	auipc	gp,0x83fa6
    b1d0:	007081b3          	add	gp,ra,t2
    b1d4:	e884c097          	auipc	ra,0xe884c
    b1d8:	99346137          	lui	sp,0x99346
    b1dc:	09b791b7          	lui	gp,0x9b79
    b1e0:	16f5c1b7          	lui	gp,0x16f5c
    b1e4:	5f51a117          	auipc	sp,0x5f51a
    b1e8:	2594a117          	auipc	sp,0x2594a
    b1ec:	00316133          	or	sp,sp,gp
    b1f0:	82e65097          	auipc	ra,0x82e65
    b1f4:	63d9b0b7          	lui	ra,0x63d9b
    b1f8:	b8427113          	andi	sp,tp,-1148
    b1fc:	97c50137          	lui	sp,0x97c50
    b200:	b819c317          	auipc	t1,0xb819c
    b204:	8f6747b7          	lui	a5,0x8f674
    b208:	d87b3037          	lui	zero,0xd87b3
    b20c:	eef28093          	addi	ra,t0,-273 # 0x7b6c4eef
    b210:	7f6085b7          	lui	a1,0x7f608
    b214:	003141b3          	xor	gp,sp,gp
    b218:	0e400193          	li	gp,228
    b21c:	b3f27113          	andi	sp,tp,-1217
    b220:	0d10e193          	ori	gp,ra,209
    b224:	00018293          	mv	t0,gp
    b228:	b8328ce3          	beq	t0,gp,0xadc0
    b22c:	ac4f3137          	lui	sp,0xac4f3
    b230:	77c73197          	auipc	gp,0x77c73
    b234:	05b1c093          	xori	ra,gp,91
    b238:	6fdea197          	auipc	gp,0x6fdea
    b23c:	1521e093          	ori	ra,gp,338
    b240:	91623097          	auipc	ra,0x91623
    b244:	001104b3          	add	s1,sp,ra
    b248:	000170b3          	and	ra,sp,zero
    b24c:	cdd36393          	ori	t2,t1,-803
    b250:	f469c097          	auipc	ra,0xf469c
    b254:	6c4a3397          	auipc	t2,0x6c4a3
    b258:	40028133          	sub	sp,t0,zero
    b25c:	fbaff1b7          	lui	gp,0xfbaff
    b260:	474ca3b7          	lui	t2,0x474ca
    b264:	bac28193          	addi	gp,t0,-1108
    b268:	3e8890b7          	lui	ra,0x3e889
    b26c:	00418033          	add	zero,gp,tp
    b270:	dfc540b7          	lui	ra,0xdfc54
    b274:	1af90117          	auipc	sp,0x1af90
    b278:	3ad4f113          	andi	sp,s1,941
    b27c:	930e6217          	auipc	tp,0x930e6
    b280:	4dca8097          	auipc	ra,0x4dca8
    b284:	40318133          	sub	sp,gp,gp
    b288:	be23c193          	xori	gp,t2,-1054
    b28c:	001360b3          	or	ra,t1,ra
    b290:	5381e093          	ori	ra,gp,1336
    b294:	45784117          	auipc	sp,0x45784
    b298:	36f10193          	addi	gp,sp,879 # 0x4578f603
    b29c:	666490b7          	lui	ra,0x66649
    b2a0:	82ff90b7          	lui	ra,0x82ff9
    b2a4:	003070b3          	and	ra,zero,gp
    b2a8:	3fee9097          	auipc	ra,0x3fee9
    b2ac:	00a08133          	add	sp,ra,a0
    b2b0:	25e1f193          	andi	gp,gp,606
    b2b4:	96af9137          	lui	sp,0x96af9
    b2b8:	7e018063          	beqz	gp,0xba98
    b2bc:	7dc0026f          	jal	tp,0xba98
    b2c0:	eb308093          	addi	ra,ra,-333 # 0x3fef415b
    b2c4:	f68ec237          	lui	tp,0xf68ec
    b2c8:	8e895397          	auipc	t2,0x8e895
    b2cc:	bef5e117          	auipc	sp,0xbef5e
    b2d0:	2840e093          	ori	ra,ra,644
    b2d4:	24d14193          	xori	gp,sp,589
    b2d8:	40091d97          	auipc	s11,0x40091
    b2dc:	0020e1b3          	or	gp,ra,sp
    b2e0:	b2d90197          	auipc	gp,0xb2d90
    b2e4:	f2f92137          	lui	sp,0xf2f92
    b2e8:	a36bd1b7          	lui	gp,0xa36bd
    b2ec:	38b1b097          	auipc	ra,0x38b1b
    b2f0:	d918d117          	auipc	sp,0xd918d
    b2f4:	86c16093          	ori	ra,sp,-1940
    b2f8:	e1107113          	andi	sp,zero,-495
    b2fc:	00027133          	and	sp,tp,zero
    b300:	0fd22137          	lui	sp,0xfd22
    b304:	8db16093          	ori	ra,sp,-1829
    b308:	7fcb6137          	lui	sp,0x7fcb6
    b30c:	e2fe7137          	lui	sp,0xe2fe7
    b310:	7842e193          	ori	gp,t0,1924
    b314:	8e127093          	andi	ra,tp,-1823
    b318:	40030033          	sub	zero,t1,zero
    b31c:	44762137          	lui	sp,0x44762
    b320:	58804197          	auipc	gp,0x58804
    b324:	49885097          	auipc	ra,0x49885
    b328:	0031c133          	xor	sp,gp,gp
    b32c:	002371b3          	and	gp,t1,sp
    b330:	8de0a097          	auipc	ra,0x8de0a
    b334:	4bb3c1b7          	lui	gp,0x4bb3c
    b338:	003170b3          	and	ra,sp,gp
    b33c:	bcbab197          	auipc	gp,0xbcbab
    b340:	0060e333          	or	t1,ra,t1
    b344:	57c20113          	addi	sp,tp,1404 # 0xfffffffff68ec57c
    b348:	21fb3eb7          	lui	t4,0x21fb3
    b34c:	00068193          	mv	gp,a3
    b350:	46d18e63          	beq	gp,a3,0xb7cc
    b354:	b13c5137          	lui	sp,0xb13c5
    b358:	00096ab3          	or	s5,s2,zero
    b35c:	0022f1b3          	and	gp,t0,sp
    b360:	b9a10113          	addi	sp,sp,-1126 # 0xffffffffb13c4b9a
    b364:	da821237          	lui	tp,0xda821
    b368:	0023c133          	xor	sp,t2,sp
    b36c:	2589c1b7          	lui	gp,0x2589c
    b370:	a82e3097          	auipc	ra,0xa82e3
    b374:	5ec7c117          	auipc	sp,0x5ec7c
    b378:	405c81b3          	sub	gp,s9,t0
    b37c:	68b210b7          	lui	ra,0x68b21
    b380:	00308133          	add	sp,ra,gp
    b384:	9b918193          	addi	gp,gp,-1607 # 0x2589b9b9
    b388:	5ba56097          	auipc	ra,0x5ba56
    b38c:	3da1a0b7          	lui	ra,0x3da1a
    b390:	ac514093          	xori	ra,sp,-1339
    b394:	003160b3          	or	ra,sp,gp
    b398:	faa9b197          	auipc	gp,0xfaa9b
    b39c:	40008db3          	sub	s11,ra,zero
    b3a0:	27f08093          	addi	ra,ra,639 # 0x3da1a27f
    b3a4:	16b76117          	auipc	sp,0x16b76
    b3a8:	83d6a097          	auipc	ra,0x83d6a
    b3ac:	00d181b3          	add	gp,gp,a3
    b3b0:	9b510113          	addi	sp,sp,-1611 # 0x16b80d59
    b3b4:	9ed49437          	lui	s0,0x9ed49
    b3b8:	f8ef0137          	lui	sp,0xf8ef0
    b3bc:	0051c233          	xor	tp,gp,t0
    b3c0:	43df3337          	lui	t1,0x43df3
    b3c4:	97b0c013          	xori	zero,ra,-1669
    b3c8:	406103b3          	sub	t2,sp,t1
    b3cc:	cf416113          	ori	sp,sp,-780
    b3d0:	00317833          	and	a6,sp,gp
    b3d4:	6c49a2b7          	lui	t0,0x6c49a
    b3d8:	74910463          	beq	sp,s1,0xbb20
    b3dc:	744000ef          	jal	ra,0xbb20
    b3e0:	00110333          	add	t1,sp,ra
    b3e4:	40730133          	sub	sp,t1,t2
    b3e8:	37fbf137          	lui	sp,0x37fbf
    b3ec:	e96aa097          	auipc	ra,0xe96aa
    b3f0:	f8236a37          	lui	s4,0xf8236
    b3f4:	24418193          	addi	gp,gp,580 # 0xfffffffffaaa65dc
    b3f8:	c85c1137          	lui	sp,0xc85c1
    b3fc:	39396097          	auipc	ra,0x39396
    b400:	7a7c0237          	lui	tp,0x7a7c0
    b404:	7e8711b7          	lui	gp,0x7e871
    b408:	05d23137          	lui	sp,0x5d23
    b40c:	ef1fd397          	auipc	t2,0xef1fd
    b410:	b9ab51b7          	lui	gp,0xb9ab5
    b414:	00108333          	add	t1,ra,ra
    b418:	0c5af1b7          	lui	gp,0xc5af
    b41c:	5c3a8117          	auipc	sp,0x5c3a8
    b420:	68b3f037          	lui	zero,0x68b3f
    b424:	6b82b237          	lui	tp,0x6b82b
    b428:	040ea217          	auipc	tp,0x40ea
    b42c:	a438f197          	auipc	gp,0xa438f
    b430:	00136133          	or	sp,t1,ra
    b434:	5305d1b7          	lui	gp,0x5305d
    b438:	003244b3          	xor	s1,tp,gp
    b43c:	7023f197          	auipc	gp,0x7023f
    b440:	3c54d197          	auipc	gp,0x3c54d
    b444:	59ed9197          	auipc	gp,0x59ed9
    b448:	00c7c133          	xor	sp,a5,a2
    b44c:	f7744117          	auipc	sp,0xf7744
    b450:	4b30c013          	xori	zero,ra,1203
    b454:	275ee1b7          	lui	gp,0x275ee
    b458:	002160b3          	or	ra,sp,sp
    b45c:	00127233          	and	tp,tp,ra
    b460:	0001f1b3          	and	gp,gp,zero
    b464:	1aa121b7          	lui	gp,0x1aa12
    b468:	00018193          	mv	gp,gp
    b46c:	22318463          	beq	gp,gp,0xb694
    b470:	472d11b7          	lui	gp,0x472d1
    b474:	ac70e093          	ori	ra,ra,-1337
    b478:	5bcd1197          	auipc	gp,0x5bcd1
    b47c:	b4bdf297          	auipc	t0,0xb4bdf
    b480:	40d082b3          	sub	t0,ra,a3
    b484:	0001f333          	and	t1,gp,zero
    b488:	3e0da317          	auipc	t1,0x3e0da
    b48c:	98d16113          	ori	sp,sp,-1651
    b490:	2dbf8317          	auipc	t1,0x2dbf8
    b494:	cca0c113          	xori	sp,ra,-822
    b498:	e892e093          	ori	ra,t0,-375
    b49c:	0051c1b3          	xor	gp,gp,t0
    b4a0:	29004193          	xori	gp,zero,656
    b4a4:	8e2e92b7          	lui	t0,0x8e2e9
    b4a8:	c25ea0b7          	lui	ra,0xc25ea
    b4ac:	0012f133          	and	sp,t0,ra
    b4b0:	98e04093          	xori	ra,zero,-1650
    b4b4:	2b9b7237          	lui	tp,0x2b9b7
    b4b8:	0051f933          	and	s2,gp,t0
    b4bc:	59666217          	auipc	tp,0x59666
    b4c0:	d6757037          	lui	zero,0xd6757
    b4c4:	3dac0097          	auipc	ra,0x3dac0
    b4c8:	a560e093          	ori	ra,ra,-1450
    b4cc:	001260b3          	or	ra,tp,ra
    b4d0:	001143b3          	xor	t2,sp,ra
    b4d4:	2649d1b7          	lui	gp,0x2649d
    b4d8:	0061f1b3          	and	gp,gp,t1
    b4dc:	0c962137          	lui	sp,0xc962
    b4e0:	002364b3          	or	s1,t1,sp
    b4e4:	baa321b7          	lui	gp,0xbaa32
    b4e8:	fbd1f113          	andi	sp,gp,-67
    b4ec:	3050e113          	ori	sp,ra,773
    b4f0:	00000097          	auipc	ra,0x0
    b4f4:	36808167          	jalr	sp,872(ra) # 0xb858
    b4f8:	7ffb90b7          	lui	ra,0x7ffb9
    b4fc:	77793197          	auipc	gp,0x77793
    b500:	5e72f937          	lui	s2,0x5e72f
    b504:	58586197          	auipc	gp,0x58586
    b508:	400081b3          	sub	gp,ra,zero
    b50c:	bbb03197          	auipc	gp,0xbbb03
    b510:	3be7e097          	auipc	ra,0x3be7e
    b514:	49443817          	auipc	a6,0x49443
    b518:	55814093          	xori	ra,sp,1368
    b51c:	8d278237          	lui	tp,0x8d278
    b520:	02976137          	lui	sp,0x2976
    b524:	c509d117          	auipc	sp,0xc509d
    b528:	e2f50197          	auipc	gp,0xe2f50
    b52c:	101fc117          	auipc	sp,0x101fc
    b530:	c868a217          	auipc	tp,0xc868a
    b534:	001240b3          	xor	ra,tp,ra
    b538:	cd5d77b7          	lui	a5,0xcd5d7
    b53c:	0001f333          	and	t1,gp,zero
    b540:	5ad20113          	addi	sp,tp,1453 # 0xffffffffc8695add
    b544:	e13f4137          	lui	sp,0xe13f4
    b548:	072ef0b7          	lui	ra,0x72ef
    b54c:	f341e113          	ori	sp,gp,-204
    b550:	dd10b197          	auipc	gp,0xdd10b
    b554:	004174b3          	and	s1,sp,tp
    b558:	cb3f3197          	auipc	gp,0xcb3f3
    b55c:	0071f033          	and	zero,gp,t2
    b560:	0aa06113          	ori	sp,zero,170
    b564:	00f6e133          	or	sp,a3,a5
    b568:	401181b3          	sub	gp,gp,ra
    b56c:	cba0e3b7          	lui	t2,0xcba0e
    b570:	00218263          	beq	gp,sp,0xb574
    b574:	181000ef          	jal	ra,0xbef4
    b578:	a2451137          	lui	sp,0xa2451
    b57c:	2c8be397          	auipc	t2,0x2c8be
    b580:	65068613          	addi	a2,a3,1616 # 0xffffffff8feb27d8
    b584:	007080b3          	add	ra,ra,t2
    b588:	cbc0f693          	andi	a3,ra,-836
    b58c:	003180b3          	add	ra,gp,gp
    b590:	406106b3          	sub	a3,sp,t1
    b594:	0181b117          	auipc	sp,0x181b
    b598:	c21bd137          	lui	sp,0xc21bd
    b59c:	0091c0b3          	xor	ra,gp,s1
    b5a0:	6086c197          	auipc	gp,0x6086c
    b5a4:	52ca1117          	auipc	sp,0x52ca1
    b5a8:	84e06193          	ori	gp,zero,-1970
    b5ac:	20126337          	lui	t1,0x20126
    b5b0:	0011f0b3          	and	ra,gp,ra
    b5b4:	96c1e093          	ori	ra,gp,-1684
    b5b8:	3c6a4137          	lui	sp,0x3c6a4
    b5bc:	8b35e293          	ori	t0,a1,-1869
    b5c0:	8c07c0b7          	lui	ra,0x8c07c
    b5c4:	32bd5097          	auipc	ra,0x32bd5
    b5c8:	004100b3          	add	ra,sp,tp
    b5cc:	00110133          	add	sp,sp,ra
    b5d0:	c2502137          	lui	sp,0xc2502
    b5d4:	97dd71b7          	lui	gp,0x97dd7
    b5d8:	00124133          	xor	sp,tp,ra
    b5dc:	002170b3          	and	ra,sp,sp
    b5e0:	bba1f113          	andi	sp,gp,-1094
    b5e4:	78af70b7          	lui	ra,0x78af7
    b5e8:	003081b3          	add	gp,ra,gp
    b5ec:	e5e17113          	andi	sp,sp,-418
    b5f0:	cf5b0197          	auipc	gp,0xcf5b0
    b5f4:	ab6d9297          	auipc	t0,0xab6d9
    b5f8:	fa485097          	auipc	ra,0xfa485
    b5fc:	bcf0c137          	lui	sp,0xbcf0c
    b600:	00010093          	mv	ra,sp
    b604:	12208463          	beq	ra,sp,0xb72c
    b608:	0021e0b3          	or	ra,gp,sp
    b60c:	ac33f113          	andi	sp,t2,-1341
    b610:	1dfbc197          	auipc	gp,0x1dfbc
    b614:	0010f1b3          	and	gp,ra,ra
    b618:	0040c033          	xor	zero,ra,tp
    b61c:	0031c4b3          	xor	s1,gp,gp
    b620:	b805b6b7          	lui	a3,0xb805b
    b624:	311e4197          	auipc	gp,0x311e4
    b628:	29d14017          	auipc	zero,0x29d14
    b62c:	c9afa097          	auipc	ra,0xc9afa
    b630:	5e74e2b7          	lui	t0,0x5e74e
    b634:	9a5920b7          	lui	ra,0x9a592
    b638:	f890e193          	ori	gp,ra,-119
    b63c:	14269037          	lui	zero,0x14269
    b640:	40338133          	sub	sp,t2,gp
    b644:	0053f333          	and	t1,t2,t0
    b648:	ef34d237          	lui	tp,0xef34d
    b64c:	40b17293          	andi	t0,sp,1035
    b650:	fb60f193          	andi	gp,ra,-74
    b654:	003240b3          	xor	ra,tp,gp
    b658:	0020e0b3          	or	ra,ra,sp
    b65c:	ebdd5117          	auipc	sp,0xebdd5
    b660:	3dd051b7          	lui	gp,0x3dd05
    b664:	03df41b7          	lui	gp,0x3df4
    b668:	3ee6f097          	auipc	ra,0x3ee6f
    b66c:	0021e833          	or	a6,gp,sp
    b670:	0020e0b3          	or	ra,ra,sp
    b674:	ada43197          	auipc	gp,0xada43
    b678:	bd924397          	auipc	t2,0xbd924
    b67c:	95b2f097          	auipc	ra,0x95b2f
    b680:	32414293          	xori	t0,sp,804
    b684:	71193017          	auipc	zero,0x71193
    b688:	005161b3          	or	gp,sp,t0
    b68c:	00010193          	mv	gp,sp
    b690:	c22188e3          	beq	gp,sp,0xb2c0
    b694:	0020c0b3          	xor	ra,ra,sp
    b698:	0011c0b3          	xor	ra,gp,ra
    b69c:	a227b197          	auipc	gp,0xa227b
    b6a0:	733d6113          	ori	sp,s10,1843
    b6a4:	00ba7617          	auipc	a2,0xba7
    b6a8:	fbb3c093          	xori	ra,t2,-69
    b6ac:	00b1e0b3          	or	ra,gp,a1
    b6b0:	001100b3          	add	ra,sp,ra
    b6b4:	0021f133          	and	sp,gp,sp
    b6b8:	32514393          	xori	t2,sp,805
    b6bc:	905780b7          	lui	ra,0x90578
    b6c0:	00304333          	xor	t1,zero,gp
    b6c4:	bf100093          	li	ra,-1039
    b6c8:	c3801337          	lui	t1,0xc3801
    b6cc:	003371b3          	and	gp,t1,gp
    b6d0:	40120333          	sub	t1,tp,ra
    b6d4:	001041b3          	xor	gp,zero,ra
    b6d8:	40a10233          	sub	tp,sp,a0
    b6dc:	9d01e313          	ori	t1,gp,-1584
    b6e0:	9bb66197          	auipc	gp,0x9bb66
    b6e4:	f3c13117          	auipc	sp,0xf3c13
    b6e8:	3a51c313          	xori	t1,gp,933
    b6ec:	3ad17113          	andi	sp,sp,941
    b6f0:	6264e137          	lui	sp,0x6264e
    b6f4:	37eb6397          	auipc	t2,0x37eb6
    b6f8:	8a36c137          	lui	sp,0x8a36c
    b6fc:	b4e311b7          	lui	gp,0xb4e31
    b700:	911bb137          	lui	sp,0x911bb
    b704:	40308133          	sub	sp,ra,gp
    b708:	12b1c3b7          	lui	t2,0x12b1c
    b70c:	0020f5b3          	and	a1,ra,sp
    b710:	9b917393          	andi	t2,sp,-1607
    b714:	f088c1b7          	lui	gp,0xf088c
    b718:	cbc3b197          	auipc	gp,0xcbc3b
    b71c:	3c2aa317          	auipc	t1,0x3c2aa
    b720:	65c80097          	auipc	ra,0x65c80
    b724:	2e218463          	beq	gp,sp,0xba0c
    b728:	2e4003ef          	jal	t2,0xba0c
    b72c:	002180b3          	add	ra,gp,sp
    b730:	5275d7b7          	lui	a5,0x5275d
    b734:	c7d84217          	auipc	tp,0xc7d84
    b738:	d0739197          	auipc	gp,0xd0739
    b73c:	78d75137          	lui	sp,0x78d75
    b740:	c31dd097          	auipc	ra,0xc31dd
    b744:	5e4cb137          	lui	sp,0x5e4cb
    b748:	63cfe0b7          	lui	ra,0x63cfe
    b74c:	0011c1b3          	xor	gp,gp,ra
    b750:	cd7ab1b7          	lui	gp,0xcd7ab
    b754:	001143b3          	xor	t2,sp,ra
    b758:	c5871197          	auipc	gp,0xc5871
    b75c:	c6c1e193          	ori	gp,gp,-916
    b760:	e163b3b7          	lui	t2,0xe163b
    b764:	0034f1b3          	and	gp,s1,gp
    b768:	05cf52b7          	lui	t0,0x5cf5
    b76c:	40118033          	sub	zero,gp,ra
    b770:	f38110b7          	lui	ra,0xf3811
    b774:	00310333          	add	t1,sp,gp
    b778:	005240b3          	xor	ra,tp,t0
    b77c:	785f20b7          	lui	ra,0x785f2
    b780:	a914aa37          	lui	s4,0xa914a
    b784:	0011f033          	and	zero,gp,ra
    b788:	4964a597          	auipc	a1,0x4964a
    b78c:	4bbdb017          	auipc	zero,0x4bbdb
    b790:	923c5497          	auipc	s1,0x923c5
    b794:	7cef0137          	lui	sp,0x7cef0
    b798:	51818193          	addi	gp,gp,1304 # 0xffffffffc587cc70
    b79c:	97350117          	auipc	sp,0x97350
    b7a0:	78f27093          	andi	ra,tp,1935
    b7a4:	08d6a097          	auipc	ra,0x8d6a
    b7a8:	c1d4e137          	lui	sp,0xc1d4e
    b7ac:	0010e233          	or	tp,ra,ra
    b7b0:	0efe3017          	auipc	zero,0xefe3
    b7b4:	ace58117          	auipc	sp,0xace58
    b7b8:	a8b98017          	auipc	zero,0xa8b98
    b7bc:	c7510393          	addi	t2,sp,-907 # 0xfffffffface63429
    b7c0:	e1874037          	lui	zero,0xe1874
    b7c4:	00008393          	mv	t2,ra
    b7c8:	e41380e3          	beq	t2,ra,0xb608
    b7cc:	9c704293          	xori	t0,zero,-1593
    b7d0:	bc01c193          	xori	gp,gp,-1088
    b7d4:	9d410113          	addi	sp,sp,-1580
    b7d8:	95a701b7          	lui	gp,0x95a70
    b7dc:	40100133          	neg	sp,ra
    b7e0:	f89401b7          	lui	gp,0xf8940
    b7e4:	8b780117          	auipc	sp,0x8b780
    b7e8:	f5416093          	ori	ra,sp,-172
    b7ec:	42dd1017          	auipc	zero,0x42dd1
    b7f0:	f8c0e1b7          	lui	gp,0xf8c0e
    b7f4:	c34f8117          	auipc	sp,0xc34f8
    b7f8:	0e04e1b7          	lui	gp,0xe04e
    b7fc:	0c22b0b7          	lui	ra,0xc22b
    b800:	16344097          	auipc	ra,0x16344
    b804:	8a9046b7          	lui	a3,0x8a904
    b808:	0031e0b3          	or	ra,gp,gp
    b80c:	38e00217          	auipc	tp,0x38e00
    b810:	0011c0b3          	xor	ra,gp,ra
    b814:	577741b7          	lui	gp,0x57774
    b818:	00d0c3b3          	xor	t2,ra,a3
    b81c:	e570f193          	andi	gp,ra,-425
    b820:	e01cb097          	auipc	ra,0xe01cb
    b824:	0011f0b3          	and	ra,gp,ra
    b828:	f2420237          	lui	tp,0xf2420
    b82c:	0011c133          	xor	sp,gp,ra
    b830:	10666597          	auipc	a1,0x10666
    b834:	6090e113          	ori	sp,ra,1545
    b838:	5790c193          	xori	gp,ra,1401
    b83c:	b600f093          	andi	ra,ra,-1184
    b840:	45729337          	lui	t1,0x45729
    b844:	ccf6f397          	auipc	t2,0xccf6f
    b848:	6cd18113          	addi	sp,gp,1741 # 0x577746cd
    b84c:	7b7f6197          	auipc	gp,0x7b7f6
    b850:	b83288e3          	beq	t0,gp,0xb3e0
    b854:	b8dff16f          	jal	sp,0xb3e0
    b858:	406180b3          	sub	ra,gp,t1
    b85c:	0020e133          	or	sp,ra,sp
    b860:	003b81b3          	add	gp,s7,gp
    b864:	39120193          	addi	gp,tp,913 # 0xfffffffff2420391
    b868:	51e76037          	lui	zero,0x51e76
    b86c:	60218113          	addi	sp,gp,1538 # 0x7b801e4e
    b870:	f0c390b7          	lui	ra,0xf0c39
    b874:	58c03097          	auipc	ra,0x58c03
    b878:	0111f333          	and	t1,gp,a7
    b87c:	f4a17113          	andi	sp,sp,-182
    b880:	d2606113          	ori	sp,zero,-730
    b884:	1c314193          	xori	gp,sp,451
    b888:	0f1fc037          	lui	zero,0xf1fc
    b88c:	009061b3          	or	gp,zero,s1
    b890:	c1f26193          	ori	gp,tp,-993
    b894:	2101f193          	andi	gp,gp,528
    b898:	85f0f113          	andi	sp,ra,-1953
    b89c:	0025c033          	xor	zero,a1,sp
    b8a0:	25670097          	auipc	ra,0x25670
    b8a4:	9ec1c093          	xori	ra,gp,-1556
    b8a8:	2570f113          	andi	sp,ra,599
    b8ac:	25c1e113          	ori	sp,gp,604
    b8b0:	c100a337          	lui	t1,0xc100a
    b8b4:	ba708113          	addi	sp,ra,-1113 # 0x2567b447
    b8b8:	3cf0e093          	ori	ra,ra,975
    b8bc:	8ddf3037          	lui	zero,0x8ddf3
    b8c0:	0021c2b3          	xor	t0,gp,sp
    b8c4:	40210133          	sub	sp,sp,sp
    b8c8:	40208333          	sub	t1,ra,sp
    b8cc:	8b3d4137          	lui	sp,0x8b3d4
    b8d0:	00f145b3          	xor	a1,sp,a5
    b8d4:	94218ce3          	beq	gp,sp,0xb22c
    b8d8:	955ff0ef          	jal	ra,0xb22c
    b8dc:	493c2117          	auipc	sp,0x493c2
    b8e0:	5ac08313          	addi	t1,ra,1452
    b8e4:	4cfd6097          	auipc	ra,0x4cfd6
    b8e8:	e781e113          	ori	sp,gp,-392
    b8ec:	e5a68213          	addi	tp,a3,-422 # 0xffffffff8a903e5a
    b8f0:	202250b7          	lui	ra,0x20225
    b8f4:	06752017          	auipc	zero,0x6752
    b8f8:	8df6b097          	auipc	ra,0x8df6b
    b8fc:	0021e1b3          	or	gp,gp,sp
    b900:	19d0f593          	andi	a1,ra,413
    b904:	69deb1b7          	lui	gp,0x69deb
    b908:	00610133          	add	sp,sp,t1
    b90c:	00208033          	add	zero,ra,sp
    b910:	10c00193          	li	gp,268
    b914:	0041e233          	or	tp,gp,tp
    b918:	28f08813          	addi	a6,ra,655 # 0xffffffff8df76b87
    b91c:	302d9117          	auipc	sp,0x302d9
    b920:	1a22e197          	auipc	gp,0x1a22e
    b924:	f0210193          	addi	gp,sp,-254 # 0x302e481e
    b928:	f8a14193          	xori	gp,sp,-118
    b92c:	9f537137          	lui	sp,0x9f537
    b930:	be660197          	auipc	gp,0xbe660
    b934:	c12fa037          	lui	zero,0xc12fa
    b938:	88610193          	addi	gp,sp,-1914 # 0xffffffff9f536886
    b93c:	a501f193          	andi	gp,gp,-1456
    b940:	57e0e113          	ori	sp,ra,1406
    b944:	0010e133          	or	sp,ra,ra
    b948:	0016f1b3          	and	gp,a3,ra
    b94c:	493f00b7          	lui	ra,0x493f0
    b950:	613bd1b7          	lui	gp,0x613bd
    b954:	fe034113          	xori	sp,t1,-32
    b958:	63014193          	xori	gp,sp,1584
    b95c:	5bdec097          	auipc	ra,0x5bdec
    b960:	47d6c097          	auipc	ra,0x47d6c
    b964:	8f1f1237          	lui	tp,0x8f1f1
    b968:	28826093          	ori	ra,tp,648
    b96c:	b231c013          	xori	zero,gp,-1245
    b970:	e3000193          	li	gp,-464
    b974:	b87202e3          	beq	tp,t2,0xb4f8
    b978:	b81ff1ef          	jal	gp,0xb4f8
    b97c:	57c27093          	andi	ra,tp,1404
    b980:	002201b3          	add	gp,tp,sp
    b984:	1e0073b7          	lui	t2,0x1e007
    b988:	54c16093          	ori	ra,sp,1356
    b98c:	407e0133          	sub	sp,t3,t2
    b990:	a3453197          	auipc	gp,0xa3453
    b994:	6120e013          	ori	zero,ra,1554
    b998:	0010f0b3          	and	ra,ra,ra
    b99c:	0ec2b1b7          	lui	gp,0xec2b
    b9a0:	51f03197          	auipc	gp,0x51f03
    b9a4:	61458117          	auipc	sp,0x61458
    b9a8:	060374b7          	lui	s1,0x6037
    b9ac:	b161c397          	auipc	t2,0xb161c
    b9b0:	982c80b7          	lui	ra,0x982c8
    b9b4:	3696b7b7          	lui	a5,0x3696b
    b9b8:	57910113          	addi	sp,sp,1401 # 0x61463f1d
    b9bc:	00118233          	add	tp,gp,ra
    b9c0:	40538133          	sub	sp,t2,t0
    b9c4:	769e1097          	auipc	ra,0x769e1
    b9c8:	401e82b3          	sub	t0,t4,ra
    b9cc:	44b8c0b7          	lui	ra,0x44b8c
    b9d0:	0020e1b3          	or	gp,ra,sp
    b9d4:	e07a90b7          	lui	ra,0xe07a9
    b9d8:	6ad3b197          	auipc	gp,0x6ad3b
    b9dc:	00017133          	and	sp,sp,zero
    b9e0:	3318f197          	auipc	gp,0x3318f
    b9e4:	a8fa1017          	auipc	zero,0xa8fa1
    b9e8:	cb30f113          	andi	sp,ra,-845
    b9ec:	8bf4d197          	auipc	gp,0x8bf4d
    b9f0:	0011f133          	and	sp,gp,ra
    b9f4:	00224133          	xor	sp,tp,sp
    b9f8:	97313197          	auipc	gp,0x97313
    b9fc:	e181a297          	auipc	t0,0xe181a
    ba00:	401100b3          	sub	ra,sp,ra
    ba04:	00008793          	mv	a5,ra
    ba08:	2c178063          	beq	a5,ra,0xbcc8
    ba0c:	d4449137          	lui	sp,0xd4449
    ba10:	1da01097          	auipc	ra,0x1da01
    ba14:	7b226113          	ori	sp,tp,1970
    ba18:	22739217          	auipc	tp,0x22739
    ba1c:	67f16113          	ori	sp,sp,1663
    ba20:	400182b3          	sub	t0,gp,zero
    ba24:	3e6c60b7          	lui	ra,0x3e6c6
    ba28:	9953e193          	ori	gp,t2,-1643
    ba2c:	02635137          	lui	sp,0x2635
    ba30:	79fbe117          	auipc	sp,0x79fbe
    ba34:	403100b3          	sub	ra,sp,gp
    ba38:	ba0aa337          	lui	t1,0xba0aa
    ba3c:	40300233          	neg	tp,gp
    ba40:	25820113          	addi	sp,tp,600 # 0x22744c70
    ba44:	b148d117          	auipc	sp,0xb148d
    ba48:	7952e293          	ori	t0,t0,1941
    ba4c:	00918233          	add	tp,gp,s1
    ba50:	0da3d137          	lui	sp,0xda3d
    ba54:	527120b7          	lui	ra,0x52712
    ba58:	260613b7          	lui	t2,0x26061
    ba5c:	0a998097          	auipc	ra,0xa998
    ba60:	46317213          	andi	tp,sp,1123
    ba64:	0020f0b3          	and	ra,ra,sp
    ba68:	d11981b7          	lui	gp,0xd1198
    ba6c:	34d9c0b7          	lui	ra,0x34d9c
    ba70:	7b318093          	addi	ra,gp,1971 # 0xffffffffd11987b3
    ba74:	34014117          	auipc	sp,0x34014
    ba78:	0fc6f117          	auipc	sp,0xfc6f
    ba7c:	01307133          	and	sp,zero,s3
    ba80:	405380b3          	sub	ra,t2,t0
    ba84:	01a370b3          	and	ra,t1,s10
    ba88:	b1617197          	auipc	gp,0xb1617
    ba8c:	06a17213          	andi	tp,sp,106
    ba90:	8c3302e3          	beq	t1,gp,0xb354
    ba94:	8c1ff16f          	jal	sp,0xb354
    ba98:	b5ec9137          	lui	sp,0xb5ec9
    ba9c:	c4618193          	addi	gp,gp,-954 # 0xffffffffb16226ce
    baa0:	00316033          	or	zero,sp,gp
    baa4:	4780f293          	andi	t0,ra,1144
    baa8:	1f657117          	auipc	sp,0x1f657
    baac:	1d527137          	lui	sp,0x1d527
    bab0:	001100b3          	add	ra,sp,ra
    bab4:	9d7de2b7          	lui	t0,0x9d7de
    bab8:	0040f1b3          	and	gp,ra,tp
    babc:	00210133          	add	sp,sp,sp
    bac0:	a0904193          	xori	gp,zero,-1527
    bac4:	76916413          	ori	s0,sp,1897
    bac8:	90a37137          	lui	sp,0x90a37
    bacc:	f160f193          	andi	gp,ra,-234
    bad0:	9e851337          	lui	t1,0x9e851
    bad4:	10a6a337          	lui	t1,0x10a6a
    bad8:	4b2ac097          	auipc	ra,0x4b2ac
    badc:	4bc0c013          	xori	zero,ra,1212
    bae0:	3170c193          	xori	gp,ra,791
    bae4:	b8939117          	auipc	sp,0xb8939
    bae8:	ca128093          	addi	ra,t0,-863 # 0xffffffff9d7ddca1
    baec:	1a90f193          	andi	gp,ra,425
    baf0:	e6f04137          	lui	sp,0xe6f04
    baf4:	f2364397          	auipc	t2,0xf2364
    baf8:	32032237          	lui	tp,0x32032
    bafc:	8209b137          	lui	sp,0x8209b
    bb00:	406101b3          	sub	gp,sp,t1
    bb04:	5e01e1b7          	lui	gp,0x5e01e
    bb08:	00127133          	and	sp,tp,ra
    bb0c:	00f0f0b3          	and	ra,ra,a5
    bb10:	ea83f4b7          	lui	s1,0xea83f
    bb14:	401080b3          	sub	ra,ra,ra
    bb18:	08310c63          	beq	sp,gp,0xbbb0
    bb1c:	094000ef          	jal	ra,0xbbb0
    bb20:	fd604c37          	lui	s8,0xfd604
    bb24:	de01a317          	auipc	t1,0xde01a
    bb28:	680d0117          	auipc	sp,0x680d0
    bb2c:	40a44397          	auipc	t2,0x40a44
    bb30:	dcf1c193          	xori	gp,gp,-561
    bb34:	ee4fd1b7          	lui	gp,0xee4fd
    bb38:	d3e08193          	addi	gp,ra,-706 # 0x4b2b7816
    bb3c:	ebb24113          	xori	sp,tp,-325
    bb40:	0020f0b3          	and	ra,ra,sp
    bb44:	a4e29337          	lui	t1,0xa4e29
    bb48:	89417f13          	andi	t5,sp,-1900
    bb4c:	b5191097          	auipc	ra,0xb5191
    bb50:	90f9c137          	lui	sp,0x90f9c
    bb54:	cd618293          	addi	t0,gp,-810 # 0xffffffffee4fccd6
    bb58:	43d18113          	addi	sp,gp,1085
    bb5c:	a6bcb0b7          	lui	ra,0xa6bcb
    bb60:	001c71b3          	and	gp,s8,ra
    bb64:	cda24113          	xori	sp,tp,-806
    bb68:	73a10097          	auipc	ra,0x73a10
    bb6c:	9ac301b7          	lui	gp,0x9ac30
    bb70:	bd1b9117          	auipc	sp,0xbd1b9
    bb74:	023cd597          	auipc	a1,0x23cd
    bb78:	99c7c137          	lui	sp,0x99c7c
    bb7c:	36047117          	auipc	sp,0x36047
    bb80:	2325f117          	auipc	sp,0x2325f
    bb84:	c32a3137          	lui	sp,0xc32a3
    bb88:	2d0810b7          	lui	ra,0x2d081
    bb8c:	2c727197          	auipc	gp,0x2c727
    bb90:	383d3037          	lui	zero,0x383d3
    bb94:	00204133          	xor	sp,zero,sp
    bb98:	87a14097          	auipc	ra,0x87a14
    bb9c:	c070e193          	ori	gp,ra,-1017
    bba0:	93bd9117          	auipc	sp,0x93bd9
    bba4:	169910b7          	lui	ra,0x16991
    bba8:	00000397          	auipc	t2,0x0
    bbac:	dd438367          	jalr	t1,-556(t2) # 0xb97c
    bbb0:	a0693017          	auipc	zero,0xa0693
    bbb4:	b6f55117          	auipc	sp,0xb6f55
    bbb8:	5aad7137          	lui	sp,0x5aad7
    bbbc:	8fe86217          	auipc	tp,0x8fe86
    bbc0:	00220333          	add	t1,tp,sp
    bbc4:	929160b7          	lui	ra,0x92916
    bbc8:	026d0097          	auipc	ra,0x26d0
    bbcc:	34118193          	addi	gp,gp,833 # 0x2c732ecd
    bbd0:	41c3b1b7          	lui	gp,0x41c3b
    bbd4:	c58b7017          	auipc	zero,0xc58b7
    bbd8:	ad06c393          	xori	t2,a3,-1328
    bbdc:	3f0620b7          	lui	ra,0x3f062
    bbe0:	ab154137          	lui	sp,0xab154
    bbe4:	57723197          	auipc	gp,0x57723
    bbe8:	e20e00b7          	lui	ra,0xe20e0
    bbec:	8ce08093          	addi	ra,ra,-1842 # 0xffffffffe20df8ce
    bbf0:	e4e17093          	andi	ra,sp,-434
    bbf4:	40b081b3          	sub	gp,ra,a1
    bbf8:	402181b3          	sub	gp,gp,sp
    bbfc:	0021e0b3          	or	ra,gp,sp
    bc00:	28b5c113          	xori	sp,a1,651
    bc04:	daec5137          	lui	sp,0xdaec5
    bc08:	4d9be117          	auipc	sp,0x4d9be
    bc0c:	003060b3          	or	ra,zero,gp
    bc10:	0021c1b3          	xor	gp,gp,sp
    bc14:	002141b3          	xor	gp,sp,sp
    bc18:	7aa30b93          	addi	s7,t1,1962 # 0xffffffffa4e297aa
    bc1c:	90fe3137          	lui	sp,0x90fe3
    bc20:	84a0e193          	ori	gp,ra,-1974
    bc24:	01016133          	or	sp,sp,a6
    bc28:	00100463          	beq	zero,ra,0xbc30
    bc2c:	004009ef          	jal	s3,0xbc30
    bc30:	0061e233          	or	tp,gp,t1
    bc34:	0037c1b3          	xor	gp,a5,gp
    bc38:	0031e0b3          	or	ra,gp,gp
    bc3c:	0ad04137          	lui	sp,0xad04
    bc40:	d15cf0b7          	lui	ra,0xd15cf
    bc44:	0021e333          	or	t1,gp,sp
    bc48:	26914113          	xori	sp,sp,617
    bc4c:	4af30193          	addi	gp,t1,1199
    bc50:	2b98b197          	auipc	gp,0x2b98b
    bc54:	62d10193          	addi	gp,sp,1581 # 0xad0462d
    bc58:	12b37093          	andi	ra,t1,299
    bc5c:	00d1e2b3          	or	t0,gp,a3
    bc60:	00114133          	xor	sp,sp,ra
    bc64:	7a1bd297          	auipc	t0,0x7a1bd
    bc68:	e72d6097          	auipc	ra,0xe72d6
    bc6c:	9bc2c297          	auipc	t0,0x9bc2c
    bc70:	18361337          	lui	t1,0x18361
    bc74:	003160b3          	or	ra,sp,gp
    bc78:	0351c193          	xori	gp,gp,53
    bc7c:	b1a66137          	lui	sp,0xb1a66
    bc80:	559d91b7          	lui	gp,0x559d9
    bc84:	2bf08197          	auipc	gp,0x2bf08
    bc88:	cd2327b7          	lui	a5,0xcd232
    bc8c:	62800293          	li	t0,1576
    bc90:	19d4c1b7          	lui	gp,0x19d4c
    bc94:	0046f0b3          	and	ra,a3,tp
    bc98:	4cfe0097          	auipc	ra,0x4cfe0
    bc9c:	6e6a31b7          	lui	gp,0x6e6a3
    bca0:	ce00f193          	andi	gp,ra,-800
    bca4:	98910213          	addi	tp,sp,-1655 # 0xffffffffb1a65989
    bca8:	0111f833          	and	a6,gp,a7
    bcac:	f9058117          	auipc	sp,0xf9058
    bcb0:	7cb0a137          	lui	sp,0x7cb0a
    bcb4:	2be1f313          	andi	t1,gp,702
    bcb8:	0011e2b3          	or	t0,gp,ra
    bcbc:	8952e293          	ori	t0,t0,-1899
    bcc0:	8a128ce3          	beq	t0,ra,0xb578
    bcc4:	8b5ff16f          	jal	sp,0xb578
    bcc8:	92c2e093          	ori	ra,t0,-1748
    bccc:	24394313          	xori	t1,s2,579
    bcd0:	e561c193          	xori	gp,gp,-426
    bcd4:	cb6c0117          	auipc	sp,0xcb6c0
    bcd8:	fb030113          	addi	sp,t1,-80 # 0x18360fb0
    bcdc:	53b26113          	ori	sp,tp,1339
    bce0:	6827c193          	xori	gp,a5,1666
    bce4:	e931f313          	andi	t1,gp,-365
    bce8:	67ab4197          	auipc	gp,0x67ab4
    bcec:	1a318093          	addi	ra,gp,419 # 0x67abfe8b
    bcf0:	283f8017          	auipc	zero,0x283f8
    bcf4:	66f3e0b7          	lui	ra,0x66f3e
    bcf8:	be71e113          	ori	sp,gp,-1049
    bcfc:	d8275137          	lui	sp,0xd8275
    bd00:	0010e133          	or	sp,ra,ra
    bd04:	00618133          	add	sp,gp,t1
    bd08:	ec739097          	auipc	ra,0xec739
    bd0c:	a5f08113          	addi	sp,ra,-1441 # 0xffffffffec744767
    bd10:	eea34117          	auipc	sp,0xeea34
    bd14:	796165b7          	lui	a1,0x79616
    bd18:	a5b091b7          	lui	gp,0xa5b09
    bd1c:	7611f137          	lui	sp,0x7611f
    bd20:	1fe0e093          	ori	ra,ra,510
    bd24:	89d38bb7          	lui	s7,0x89d38
    bd28:	00d0f0b3          	and	ra,ra,a3
    bd2c:	cc40e193          	ori	gp,ra,-828
    bd30:	39d14113          	xori	sp,sp,925
    bd34:	87f0f813          	andi	a6,ra,-1921
    bd38:	0020e0b3          	or	ra,ra,sp
    bd3c:	b73fb037          	lui	zero,0xb73fb
    bd40:	404180b3          	sub	ra,gp,tp
    bd44:	4d7a4117          	auipc	sp,0x4d7a4
    bd48:	b8110ae3          	beq	sp,ra,0xb8dc
    bd4c:	b91ff1ef          	jal	gp,0xb8dc
    bd50:	2d86f0b7          	lui	ra,0x2d86f
    bd54:	5c8120b7          	lui	ra,0x5c812
    bd58:	9b28f217          	auipc	tp,0x9b28f
    bd5c:	62d98117          	auipc	sp,0x62d98
    bd60:	725a0137          	lui	sp,0x725a0
    bd64:	e8d1f593          	andi	a1,gp,-371
    bd68:	01f171b3          	and	gp,sp,t6
    bd6c:	0020c133          	xor	sp,ra,sp
    bd70:	60bf5397          	auipc	t2,0x60bf5
    bd74:	39f2c093          	xori	ra,t0,927
    bd78:	131c86b7          	lui	a3,0x131c8
    bd7c:	5dd6e493          	ori	s1,a3,1501
    bd80:	0031e0b3          	or	ra,gp,gp
    bd84:	e1d0c113          	xori	sp,ra,-483
    bd88:	0f628193          	addi	gp,t0,246 # 0xffffffff9bc37d62
    bd8c:	001103b3          	add	t2,sp,ra
    bd90:	0030e133          	or	sp,ra,gp
    bd94:	b3517013          	andi	zero,sp,-1227
    bd98:	2bf26093          	ori	ra,tp,703
    bd9c:	0033e5b3          	or	a1,t2,gp
    bda0:	ae9ce097          	auipc	ra,0xae9ce
    bda4:	b56a81b7          	lui	gp,0xb56a8
    bda8:	10645237          	lui	tp,0x10645
    bdac:	2e26b0b7          	lui	ra,0x2e26b
    bdb0:	002140b3          	xor	ra,sp,sp
    bdb4:	20be2317          	auipc	t1,0x20be2
    bdb8:	3e9e8137          	lui	sp,0x3e9e8
    bdbc:	fb274137          	lui	sp,0xfb274
    bdc0:	475be2b7          	lui	t0,0x475be
    bdc4:	00fee837          	lui	a6,0xfee
    bdc8:	29b6b0b7          	lui	ra,0x29b6b
    bdcc:	9fb9aab7          	lui	s5,0x9fb9a
    bdd0:	3e5d20b7          	lui	ra,0x3e5d2
    bdd4:	927cb217          	auipc	tp,0x927cb
    bdd8:	00010113          	mv	sp,sp
    bddc:	56210863          	beq	sp,sp,0xc34c
    bde0:	dec1f693          	andi	a3,gp,-532
    bde4:	5cdda137          	lui	sp,0x5cdda
    bde8:	7af17113          	andi	sp,sp,1967
    bdec:	4a216113          	ori	sp,sp,1186
    bdf0:	1caeb0b7          	lui	ra,0x1caeb
    bdf4:	c768a117          	auipc	sp,0xc768a
    bdf8:	180a50b7          	lui	ra,0x180a5
    bdfc:	00200333          	add	t1,zero,sp
    be00:	4bf04113          	xori	sp,zero,1215
    be04:	cdb8f137          	lui	sp,0xcdb8f
    be08:	31c0f093          	andi	ra,ra,796
    be0c:	61a3a137          	lui	sp,0x61a3a
    be10:	006080b3          	add	ra,ra,t1
    be14:	b8a0a1b7          	lui	gp,0xb8a0a
    be18:	0031c133          	xor	sp,gp,gp
    be1c:	65817113          	andi	sp,sp,1624
    be20:	85289db7          	lui	s11,0x85289
    be24:	696f2317          	auipc	t1,0x696f2
    be28:	9fa0b197          	auipc	gp,0x9fa0b
    be2c:	00126033          	or	zero,tp,ra
    be30:	b9cfa037          	lui	zero,0xb9cfa
    be34:	fabb9217          	auipc	tp,0xfabb9
    be38:	24026113          	ori	sp,tp,576
    be3c:	4e21f197          	auipc	gp,0x4e21f
    be40:	0af640b7          	lui	ra,0xaf64
    be44:	5de51137          	lui	sp,0x5de51
    be48:	40318133          	sub	sp,gp,gp
    be4c:	5b10b197          	auipc	gp,0x5b10b
    be50:	b6236093          	ori	ra,t1,-1182
    be54:	6a31c393          	xori	t2,gp,1699
    be58:	407201b3          	sub	gp,tp,t2
    be5c:	b251e193          	ori	gp,gp,-1243
    be60:	09616113          	ori	sp,sp,150
    be64:	00018313          	mv	t1,gp
    be68:	56330c63          	beq	t1,gp,0xc3e0
    be6c:	eb917113          	andi	sp,sp,-327
    be70:	de1dc393          	xori	t2,s11,-543
    be74:	18e3d2b7          	lui	t0,0x18e3d
    be78:	40318133          	sub	sp,gp,gp
    be7c:	507d41b7          	lui	gp,0x507d4
    be80:	003681b3          	add	gp,a3,gp
    be84:	c2058197          	auipc	gp,0xc2058
    be88:	285eb237          	lui	tp,0x285eb
    be8c:	003141b3          	xor	gp,sp,gp
    be90:	eee55117          	auipc	sp,0xeee55
    be94:	4f8ca037          	lui	zero,0x4f8ca
    be98:	fcc28117          	auipc	sp,0xfcc28
    be9c:	c8f0f093          	andi	ra,ra,-881
    bea0:	0c90f393          	andi	t2,ra,201
    bea4:	e9baf197          	auipc	gp,0xe9baf
    bea8:	59c16193          	ori	gp,sp,1436
    beac:	e77f6317          	auipc	t1,0xe77f6
    beb0:	cda73237          	lui	tp,0xcda73
    beb4:	19d6e237          	lui	tp,0x19d6e
    beb8:	3145d137          	lui	sp,0x3145d
    bebc:	00408033          	add	zero,ra,tp
    bec0:	34e1e313          	ori	t1,gp,846
    bec4:	00728233          	add	tp,t0,t2
    bec8:	66368197          	auipc	gp,0x66368
    becc:	35afd097          	auipc	ra,0x35afd
    bed0:	00224ab3          	xor	s5,tp,sp
    bed4:	33b10093          	addi	ra,sp,827 # 0x3145d33b
    bed8:	07f0f093          	andi	ra,ra,127
    bedc:	56910093          	addi	ra,sp,1385
    bee0:	570d10b7          	lui	ra,0x570d1
    bee4:	6a2e1c97          	auipc	s9,0x6a2e1
    bee8:	00108133          	add	sp,ra,ra
    beec:	00000197          	auipc	gp,0x0
    bef0:	2c8181e7          	jalr	gp,712(gp) # 0xc1b4
    bef4:	00416033          	or	zero,sp,tp
    bef8:	2c110113          	addi	sp,sp,705
    befc:	8bc1d3b7          	lui	t2,0x8bc1d
    bf00:	de3a4297          	auipc	t0,0xde3a4
    bf04:	402305b3          	sub	a1,t1,sp
    bf08:	71b3b1b7          	lui	gp,0x71b3b
    bf0c:	f534f0b7          	lui	ra,0xf534f
    bf10:	167691b7          	lui	gp,0x16769
    bf14:	99fcd0b7          	lui	ra,0x99fcd
    bf18:	002141b3          	xor	gp,sp,sp
    bf1c:	002043b3          	xor	t2,zero,sp
    bf20:	bcb03197          	auipc	gp,0xbcb03
    bf24:	016163b3          	or	t2,sp,s6
    bf28:	af426313          	ori	t1,tp,-1292
    bf2c:	f7c9a1b7          	lui	gp,0xf7c9a
    bf30:	1c241117          	auipc	sp,0x1c241
    bf34:	00118133          	add	sp,gp,ra
    bf38:	ea3b8037          	lui	zero,0xea3b8
    bf3c:	0481e393          	ori	t2,gp,72
    bf40:	002171b3          	and	gp,sp,sp
    bf44:	7d018113          	addi	sp,gp,2000 # 0xfffffffff7c9a7d0
    bf48:	401080b3          	sub	ra,ra,ra
    bf4c:	4f1c32b7          	lui	t0,0x4f1c3
    bf50:	d0e27213          	andi	tp,tp,-754
    bf54:	3ce8a317          	auipc	t1,0x3ce8a
    bf58:	38785137          	lui	sp,0x38785
    bf5c:	cea32d17          	auipc	s10,0xcea32
    bf60:	80814137          	lui	sp,0x80814
    bf64:	be2093b7          	lui	t2,0xbe209
    bf68:	a5716f93          	ori	t6,sp,-1449
    bf6c:	300991b7          	lui	gp,0x30099
    bf70:	a36dc117          	auipc	sp,0xa36dc
    bf74:	05ebc397          	auipc	t2,0x5ebc
    bf78:	402100b3          	sub	ra,sp,sp
    bf7c:	00010793          	mv	a5,sp
    bf80:	58278663          	beq	a5,sp,0xc50c
    bf84:	bc6e8197          	auipc	gp,0xbc6e8
    bf88:	ad4e71b7          	lui	gp,0xad4e7
    bf8c:	001273b3          	and	t2,tp,ra
    bf90:	e2cb5117          	auipc	sp,0xe2cb5
    bf94:	dc44a097          	auipc	ra,0xdc44a
    bf98:	a3a16237          	lui	tp,0xa3a16
    bf9c:	0041f133          	and	sp,gp,tp
    bfa0:	e8881097          	auipc	ra,0xe8881
    bfa4:	0db17093          	andi	ra,sp,219
    bfa8:	ff937117          	auipc	sp,0xff937
    bfac:	402180b3          	sub	ra,gp,sp
    bfb0:	004080b3          	add	ra,ra,tp
    bfb4:	8e695137          	lui	sp,0x8e695
    bfb8:	fc439217          	auipc	tp,0xfc439
    bfbc:	c3ec0237          	lui	tp,0xc3ec0
    bfc0:	9fe5c117          	auipc	sp,0x9fe5c
    bfc4:	5121e093          	ori	ra,gp,1298
    bfc8:	00026193          	ori	gp,tp,0
    bfcc:	e0433197          	auipc	gp,0xe0433
    bfd0:	3d070137          	lui	sp,0x3d070
    bfd4:	9331e013          	ori	zero,gp,-1741
    bfd8:	35bb20b7          	lui	ra,0x35bb2
    bfdc:	0030e0b3          	or	ra,ra,gp
    bfe0:	213522b7          	lui	t0,0x21352
    bfe4:	aa134137          	lui	sp,0xaa134
    bfe8:	25c18113          	addi	sp,gp,604 # 0xffffffffe043f228
    bfec:	91f890b7          	lui	ra,0x91f89
    bff0:	51a00393          	li	t2,1306
    bff4:	00bd91b7          	lui	gp,0xbd9
    bff8:	e331f193          	andi	gp,gp,-461
    bffc:	137672b7          	lui	t0,0x13767
    c000:	26d96337          	lui	t1,0x26d96
    c004:	001100b3          	add	ra,sp,ra
    c008:	0026f0b3          	and	ra,a3,sp
    c00c:	5012f093          	andi	ra,t0,1281
    c010:	3f924013          	xori	zero,tp,1017
    c014:	3b31f113          	andi	sp,gp,947
    c018:	00908133          	add	sp,ra,s1
    c01c:	46118063          	beq	gp,ra,0xc47c
    c020:	45c001ef          	jal	gp,0xc47c
    c024:	40e4d137          	lui	sp,0x40e4d
    c028:	eb61e013          	ori	zero,gp,-330
    c02c:	da52c113          	xori	sp,t0,-603
    c030:	72cbd8b7          	lui	a7,0x72cbd
    c034:	1c2740b7          	lui	ra,0x1c274
    c038:	2f1fc397          	auipc	t2,0x2f1fc
    c03c:	bf63a1b7          	lui	gp,0xbf63a
    c040:	cf833097          	auipc	ra,0xcf833
    c044:	ea13b117          	auipc	sp,0xea13b
    c048:	fc595237          	lui	tp,0xfc595
    c04c:	ede7c137          	lui	sp,0xede7c
    c050:	40118133          	sub	sp,gp,ra
    c054:	af889497          	auipc	s1,0xaf889
    c058:	00324633          	xor	a2,tp,gp
    c05c:	55f0c113          	xori	sp,ra,1375
    c060:	10d50297          	auipc	t0,0x10d50
    c064:	df427193          	andi	gp,tp,-524
    c068:	003f4133          	xor	sp,t5,gp
    c06c:	007183b3          	add	t2,gp,t2
    c070:	cec021b7          	lui	gp,0xcec02
    c074:	20291117          	auipc	sp,0x20291
    c078:	941fc193          	xori	gp,t6,-1727
    c07c:	cfbcb2b7          	lui	t0,0xcfbcb
    c080:	34bc8117          	auipc	sp,0x34bc8
    c084:	ea3303b7          	lui	t2,0xea330
    c088:	6854f137          	lui	sp,0x6854f
    c08c:	e2e94317          	auipc	t1,0xe2e94
    c090:	403080b3          	sub	ra,ra,gp
    c094:	bfb16193          	ori	gp,sp,-1029
    c098:	00058093          	mv	ra,a1
    c09c:	1ab08263          	beq	ra,a1,0xc240
    c0a0:	0140e233          	or	tp,ra,s4
    c0a4:	0fd0a1b7          	lui	gp,0xfd0a
    c0a8:	00118233          	add	tp,gp,ra
    c0ac:	ed508193          	addi	gp,ra,-299 # 0xffffffffcf83ef15
    c0b0:	9d5ed097          	auipc	ra,0x9d5ed
    c0b4:	0010e1b3          	or	gp,ra,ra
    c0b8:	75f54097          	auipc	ra,0x75f54
    c0bc:	003780b3          	add	ra,a5,gp
    c0c0:	b49c9037          	lui	zero,0xb49c9
    c0c4:	8bca60b7          	lui	ra,0x8bca6
    c0c8:	001143b3          	xor	t2,sp,ra
    c0cc:	00200133          	add	sp,zero,sp
    c0d0:	00208133          	add	sp,ra,sp
    c0d4:	42179117          	auipc	sp,0x42179
    c0d8:	d8f1e293          	ori	t0,gp,-625
    c0dc:	00008033          	add	zero,ra,zero
    c0e0:	00910133          	add	sp,sp,s1
    c0e4:	807ae137          	lui	sp,0x807ae
    c0e8:	0024f9b3          	and	s3,s1,sp
    c0ec:	f0a06137          	lui	sp,0xf0a06
    c0f0:	6bbca137          	lui	sp,0x6bbca
    c0f4:	30f8b0b7          	lui	ra,0x30f8b
    c0f8:	87549197          	auipc	gp,0x87549
    c0fc:	02818393          	addi	t2,gp,40 # 0xffffffff87555120
    c100:	d4b16193          	ori	gp,sp,-693
    c104:	5ebd2397          	auipc	t2,0x5ebd2
    c108:	d827f5b7          	lui	a1,0xd827f
    c10c:	00310133          	add	sp,sp,gp
    c110:	2e426093          	ori	ra,tp,740
    c114:	003173b3          	and	t2,sp,gp
    c118:	814930b7          	lui	ra,0x81493
    c11c:	77c96097          	auipc	ra,0x77c96
    c120:	9d114393          	xori	t2,sp,-1583
    c124:	001341b3          	xor	gp,t1,ra
    c128:	00000f17          	auipc	t5,0x0
    c12c:	efcf01e7          	jalr	gp,-260(t5) # 0xc024
    c130:	decb4113          	xori	sp,s6,-532
    c134:	0010e1b3          	or	gp,ra,ra
    c138:	0060c133          	xor	sp,ra,t1
    c13c:	0020e1b3          	or	gp,ra,sp
    c140:	44c0e097          	auipc	ra,0x44c0e
    c144:	c9b06037          	lui	zero,0xc9b06
    c148:	0022c0b3          	xor	ra,t0,sp
    c14c:	0010c0b3          	xor	ra,ra,ra
    c150:	0012e333          	or	t1,t0,ra
    c154:	d6c7d097          	auipc	ra,0xd6c7d
    c158:	20b18193          	addi	gp,gp,523
    c15c:	21931117          	auipc	sp,0x21931
    c160:	f8610093          	addi	ra,sp,-122 # 0x2193d0e2
    c164:	72e46293          	ori	t0,s0,1838
    c168:	0030f0b3          	and	ra,ra,gp
    c16c:	384891b7          	lui	gp,0x38489
    c170:	6faec797          	auipc	a5,0x6faec
    c174:	3df87137          	lui	sp,0x3df87
    c178:	0010c3b3          	xor	t2,ra,ra
    c17c:	001100b3          	add	ra,sp,ra
    c180:	b505f197          	auipc	gp,0xb505f
    c184:	104a8197          	auipc	gp,0x104a8
    c188:	4c7d80b7          	lui	ra,0x4c7d8
    c18c:	0030c3b3          	xor	t2,ra,gp
    c190:	403180b3          	sub	ra,gp,gp
    c194:	0070c0b3          	xor	ra,ra,t2
    c198:	00210233          	add	tp,sp,sp
    c19c:	a5d95317          	auipc	t1,0xa5d95
    c1a0:	48870137          	lui	sp,0x48870
    c1a4:	d831b397          	auipc	t2,0xd831b
    c1a8:	b632c117          	auipc	sp,0xb632c
    c1ac:	00310263          	beq	sp,gp,0xc1b0
    c1b0:	3f5007ef          	jal	a5,0xcda4
    c1b4:	337191b7          	lui	gp,0x33719
    c1b8:	d8bd6297          	auipc	t0,0xd8bd6
    c1bc:	002081b3          	add	gp,ra,sp
    c1c0:	2dc6e197          	auipc	gp,0x2dc6e
    c1c4:	f3c05237          	lui	tp,0xf3c05
    c1c8:	4910e313          	ori	t1,ra,1169
    c1cc:	401100b3          	sub	ra,sp,ra
    c1d0:	f169b0b7          	lui	ra,0xf169b
    c1d4:	13138093          	addi	ra,t2,305 # 0xffffffffd83272d5
    c1d8:	400100b3          	sub	ra,sp,zero
    c1dc:	b9eb42b7          	lui	t0,0xb9eb4
    c1e0:	99f34113          	xori	sp,t1,-1633
    c1e4:	7bd26113          	ori	sp,tp,1981
    c1e8:	004162b3          	or	t0,sp,tp
    c1ec:	af80ff13          	andi	t5,ra,-1288
    c1f0:	0030e133          	or	sp,ra,gp
    c1f4:	0031f133          	and	sp,gp,gp
    c1f8:	c6cbf017          	auipc	zero,0xc6cbf
    c1fc:	0020fd33          	and	s10,ra,sp
    c200:	f380f093          	andi	ra,ra,-200
    c204:	8d918097          	auipc	ra,0x8d918
    c208:	ff227117          	auipc	sp,0xff227
    c20c:	40b321b7          	lui	gp,0x40b32
    c210:	48042197          	auipc	gp,0x48042
    c214:	40478397          	auipc	t2,0x40478
    c218:	606781b7          	lui	gp,0x60678
    c21c:	861ee1b7          	lui	gp,0x861ee
    c220:	bc722337          	lui	t1,0xbc722
    c224:	326560b7          	lui	ra,0x32656
    c228:	0030c133          	xor	sp,ra,gp
    c22c:	37980137          	lui	sp,0x37980
    c230:	401100b3          	sub	ra,sp,ra
    c234:	0000e3b3          	or	t2,ra,zero
    c238:	00000197          	auipc	gp,0x0
    c23c:	364183e7          	jalr	t2,868(gp) # 0xc59c
    c240:	00208133          	add	sp,ra,sp
    c244:	9fa490b7          	lui	ra,0x9fa49
    c248:	8f387097          	auipc	ra,0x8f387
    c24c:	41c1b137          	lui	sp,0x41c1b
    c250:	7e5131b7          	lui	gp,0x7e513
    c254:	73591137          	lui	sp,0x73591
    c258:	137d33b7          	lui	t2,0x137d3
    c25c:	40b101b3          	sub	gp,sp,a1
    c260:	40618133          	sub	sp,gp,t1
    c264:	a706b117          	auipc	sp,0xa706b
    c268:	21bac197          	auipc	gp,0x21bac
    c26c:	00128133          	add	sp,t0,ra
    c270:	b1310093          	addi	ra,sp,-1261 # 0xffffffffa7076d77
    c274:	e50d8117          	auipc	sp,0xe50d8
    c278:	39285197          	auipc	gp,0x39285
    c27c:	c048b3b7          	lui	t2,0xc048b
    c280:	00224233          	xor	tp,tp,sp
    c284:	16a16013          	ori	zero,sp,362
    c288:	01814213          	xori	tp,sp,24
    c28c:	7246c237          	lui	tp,0x7246c
    c290:	70a1e393          	ori	t2,gp,1802
    c294:	01c0e0b3          	or	ra,ra,t3
    c298:	0011e3b3          	or	t2,gp,ra
    c29c:	40328133          	sub	sp,t0,gp
    c2a0:	0010e133          	or	sp,ra,ra
    c2a4:	c291f093          	andi	ra,gp,-983
    c2a8:	00116a33          	or	s4,sp,ra
    c2ac:	f39710b7          	lui	ra,0xf3971
    c2b0:	9ba0c197          	auipc	gp,0x9ba0c
    c2b4:	da3ce117          	auipc	sp,0xda3ce
    c2b8:	401181b3          	sub	gp,gp,ra
    c2bc:	48478663          	beq	a5,tp,0xc748
    c2c0:	488001ef          	jal	gp,0xc748
    c2c4:	b24c7697          	auipc	a3,0xb24c7
    c2c8:	c368b097          	auipc	ra,0xc368b
    c2cc:	967b1117          	auipc	sp,0x967b1
    c2d0:	002170b3          	and	ra,sp,sp
    c2d4:	74a1c093          	xori	ra,gp,1866
    c2d8:	dcabc317          	auipc	t1,0xdcabc
    c2dc:	244ea197          	auipc	gp,0x244ea
    c2e0:	2b30c113          	xori	sp,ra,691
    c2e4:	6f0f2137          	lui	sp,0x6f0f2
    c2e8:	2c20c093          	xori	ra,ra,706
    c2ec:	0ed7d397          	auipc	t2,0xed7d
    c2f0:	e1471117          	auipc	sp,0xe1471
    c2f4:	001370b3          	and	ra,t1,ra
    c2f8:	c7c0c193          	xori	gp,ra,-900
    c2fc:	ffe1c113          	xori	sp,gp,-2
    c300:	00208133          	add	sp,ra,sp
    c304:	004141b3          	xor	gp,sp,tp
    c308:	007b41b3          	xor	gp,s6,t2
    c30c:	a611e137          	lui	sp,0xa611e
    c310:	2a227113          	andi	sp,tp,674
    c314:	002081b3          	add	gp,ra,sp
    c318:	c8047097          	auipc	ra,0xc8047
    c31c:	387891b7          	lui	gp,0x38789
    c320:	fc2ee117          	auipc	sp,0xfc2ee
    c324:	402201b3          	sub	gp,tp,sp
    c328:	95fa00b7          	lui	ra,0x95fa0
    c32c:	5d90c093          	xori	ra,ra,1497
    c330:	a591e193          	ori	gp,gp,-1447
    c334:	f8200093          	li	ra,-126
    c338:	a641c113          	xori	sp,gp,-1436
    c33c:	003081b3          	add	gp,ra,gp
    c340:	6fd14113          	xori	sp,sp,1789
    c344:	00000013          	nop
    c348:	b20002e3          	beqz	zero,0xbe6c
    c34c:	6e899197          	auipc	gp,0x6e899
    c350:	aad05397          	auipc	t2,0xaad05
    c354:	21dc9097          	auipc	ra,0x21dc9
    c358:	43408113          	addi	sp,ra,1076 # 0x21dd5788
    c35c:	510c53b7          	lui	t2,0x510c5
    c360:	3da3a097          	auipc	ra,0x3da3a
    c364:	9633e113          	ori	sp,t2,-1693
    c368:	401386b3          	sub	a3,t2,ra
    c36c:	cecac117          	auipc	sp,0xcecac
    c370:	9d474037          	lui	zero,0x9d474
    c374:	e130c193          	xori	gp,ra,-493
    c378:	a6818113          	addi	sp,gp,-1432 # 0x6e8a4db4
    c37c:	e301c113          	xori	sp,gp,-464
    c380:	401000b3          	neg	ra,ra
    c384:	00718033          	add	zero,gp,t2
    c388:	a4b4f137          	lui	sp,0xa4b4f
    c38c:	5c2bb097          	auipc	ra,0x5c2bb
    c390:	3c12b117          	auipc	sp,0x3c12b
    c394:	40738133          	sub	sp,t2,t2
    c398:	732be137          	lui	sp,0x732be
    c39c:	70718193          	addi	gp,gp,1799
    c3a0:	dd43f5b7          	lui	a1,0xdd43f
    c3a4:	9b81c193          	xori	gp,gp,-1608
    c3a8:	da4730b7          	lui	ra,0xda473
    c3ac:	29408113          	addi	sp,ra,660 # 0xffffffffda473294
    c3b0:	072304b7          	lui	s1,0x7230
    c3b4:	ff786237          	lui	tp,0xff786
    c3b8:	d3278113          	addi	sp,a5,-718 # 0x6faf7ea2
    c3bc:	401101b3          	sub	gp,sp,ra
    c3c0:	bb66bab7          	lui	s5,0xbb66b
    c3c4:	001081b3          	add	gp,ra,ra
    c3c8:	d8914193          	xori	gp,sp,-631
    c3cc:	00327133          	and	sp,tp,gp
    c3d0:	3651f097          	auipc	ra,0x3651f
    c3d4:	18e03117          	auipc	sp,0x18e03
    c3d8:	00018093          	mv	ra,gp
    c3dc:	ee3084e3          	beq	ra,gp,0xc2c4
    c3e0:	61692097          	auipc	ra,0x61692
    c3e4:	61dc10b7          	lui	ra,0x61dc1
    c3e8:	f6f2c337          	lui	t1,0xf6f2c
    c3ec:	b2794097          	auipc	ra,0xb2794
    c3f0:	007087b3          	add	a5,ra,t2
    c3f4:	4ee0f597          	auipc	a1,0x4ee0f
    c3f8:	86c0f197          	auipc	gp,0x86c0f
    c3fc:	65c1d0b7          	lui	ra,0x65c1d
    c400:	99cab217          	auipc	tp,0x99cab
    c404:	be3371b7          	lui	gp,0xbe337
    c408:	fab75097          	auipc	ra,0xfab75
    c40c:	7c8ac237          	lui	tp,0x7c8ac
    c410:	0011e3b3          	or	t2,gp,ra
    c414:	017401b3          	add	gp,s0,s7
    c418:	63705197          	auipc	gp,0x63705
    c41c:	7870f313          	andi	t1,ra,1927
    c420:	fcc32937          	lui	s2,0xfcc32
    c424:	6201c313          	xori	t1,gp,1568
    c428:	97516393          	ori	t2,sp,-1675
    c42c:	13214093          	xori	ra,sp,306
    c430:	532e6093          	ori	ra,t3,1330
    c434:	005140b3          	xor	ra,sp,t0
    c438:	dff1f013          	andi	zero,gp,-513
    c43c:	74d27113          	andi	sp,tp,1869
    c440:	b24c2337          	lui	t1,0xb24c2
    c444:	f13bd0b7          	lui	ra,0xf13bd
    c448:	001100b3          	add	ra,sp,ra
    c44c:	bc278193          	addi	gp,a5,-1086
    c450:	9a93e117          	auipc	sp,0x9a93e
    c454:	6360f293          	andi	t0,ra,1590
    c458:	e460f313          	andi	t1,ra,-442
    c45c:	bdbcc1b7          	lui	gp,0xbdbcc
    c460:	7e382097          	auipc	ra,0x7e382
    c464:	0e6601b7          	lui	gp,0xe660
    c468:	01517113          	andi	sp,sp,21
    c46c:	2dd0e193          	ori	gp,ra,733
    c470:	da513317          	auipc	t1,0xda513
    c474:	00018113          	mv	sp,gp
    c478:	24310663          	beq	sp,gp,0xc6c4
    c47c:	0021e1b3          	or	gp,gp,sp
    c480:	9bd25097          	auipc	ra,0x9bd25
    c484:	f58f5117          	auipc	sp,0xf58f5
    c488:	42b801b7          	lui	gp,0x42b80
    c48c:	6900c593          	xori	a1,ra,1680
    c490:	40430b33          	sub	s6,t1,tp
    c494:	4ab1e313          	ori	t1,gp,1195
    c498:	3b71a097          	auipc	ra,0x3b71a
    c49c:	400100b3          	sub	ra,sp,zero
    c4a0:	93320217          	auipc	tp,0x93320
    c4a4:	00604333          	xor	t1,zero,t1
    c4a8:	2c3c70b7          	lui	ra,0x2c3c7
    c4ac:	744fb1b7          	lui	gp,0x744fb
    c4b0:	0040f133          	and	sp,ra,tp
    c4b4:	0031e133          	or	sp,gp,gp
    c4b8:	4e0fd197          	auipc	gp,0x4e0fd
    c4bc:	3d48a0b7          	lui	ra,0x3d48a
    c4c0:	baa4b137          	lui	sp,0xbaa4b
    c4c4:	00100133          	add	sp,zero,ra
    c4c8:	fd956117          	auipc	sp,0xfd956
    c4cc:	bb123017          	auipc	zero,0xbb123
    c4d0:	001783b3          	add	t2,a5,ra
    c4d4:	002080b3          	add	ra,ra,sp
    c4d8:	220853b7          	lui	t2,0x22085
    c4dc:	71e64117          	auipc	sp,0x71e64
    c4e0:	00118233          	add	tp,gp,ra
    c4e4:	6a980113          	addi	sp,a6,1705 # 0xfee6a9
    c4e8:	3e485137          	lui	sp,0x3e485
    c4ec:	3fe222b7          	lui	t0,0x3fe22
    c4f0:	ff6a0117          	auipc	sp,0xff6a0
    c4f4:	d2606193          	ori	gp,zero,-730
    c4f8:	006261b3          	or	gp,tp,t1
    c4fc:	f4a2f113          	andi	sp,t0,-182
    c500:	00114133          	xor	sp,sp,ra
    c504:	b8438ee3          	beq	t2,tp,0xc0a0
    c508:	b99ff1ef          	jal	gp,0xc0a0
    c50c:	2a90cc93          	xori	s9,ra,681
    c510:	57e66137          	lui	sp,0x57e66
    c514:	43318693          	addi	a3,gp,1075 # 0x4e1098eb
    c518:	8c2860b7          	lui	ra,0x8c286
    c51c:	74a012b7          	lui	t0,0x74a01
    c520:	4122e197          	auipc	gp,0x4122e
    c524:	002170b3          	and	ra,sp,sp
    c528:	0031f0b3          	and	ra,gp,gp
    c52c:	981fc137          	lui	sp,0x981fc
    c530:	402101b3          	sub	gp,sp,sp
    c534:	397a0197          	auipc	gp,0x397a0
    c538:	6864a117          	auipc	sp,0x6864a
    c53c:	1e3360b7          	lui	ra,0x1e336
    c540:	00735c97          	auipc	s9,0x735
    c544:	218aa037          	lui	zero,0x218aa
    c548:	f9e16713          	ori	a4,sp,-98
    c54c:	40318033          	sub	zero,gp,gp
    c550:	e530c113          	xori	sp,ra,-429
    c554:	740f9217          	auipc	tp,0x740f9
    c558:	08907117          	auipc	sp,0x8907
    c55c:	ad857117          	auipc	sp,0xad857
    c560:	35daa097          	auipc	ra,0x35daa
    c564:	bd0c4117          	auipc	sp,0xbd0c4
    c568:	6b42f097          	auipc	ra,0x6b42f
    c56c:	3bb36193          	ori	gp,t1,955
    c570:	568b40b7          	lui	ra,0x568b4
    c574:	403180b3          	sub	ra,gp,gp
    c578:	87578397          	auipc	t2,0x87578
    c57c:	00627133          	and	sp,tp,t1
    c580:	e1030193          	addi	gp,t1,-496 # 0xffffffffda51f280
    c584:	6ed7b0b7          	lui	ra,0x6ed7b
    c588:	2245e0b7          	lui	ra,0x2245e
    c58c:	afb7b1b7          	lui	gp,0xafb7b
    c590:	a143f193          	andi	gp,t2,-1516
    c594:	00000097          	auipc	ra,0x0
    c598:	09808367          	jalr	t1,152(ra) # 0xc62c
    c59c:	9a45b1b7          	lui	gp,0x9a45b
    c5a0:	fe48c0b7          	lui	ra,0xfe48c
    c5a4:	c173c093          	xori	ra,t2,-1001
    c5a8:	daa1f513          	andi	a0,gp,-598
    c5ac:	71525117          	auipc	sp,0x71525
    c5b0:	7074f097          	auipc	ra,0x7074f
    c5b4:	30828113          	addi	sp,t0,776 # 0x74a01308
    c5b8:	a8763d17          	auipc	s10,0xa8763
    c5bc:	403180b3          	sub	ra,gp,gp
    c5c0:	00e0c133          	xor	sp,ra,a4
    c5c4:	e0156117          	auipc	sp,0xe0156
    c5c8:	c6c03097          	auipc	ra,0xc6c03
    c5cc:	712742b7          	lui	t0,0x71274
    c5d0:	4700e137          	lui	sp,0x4700e
    c5d4:	ec108293          	addi	t0,ra,-319 # 0xffffffffc6c0f489
    c5d8:	0021e4b3          	or	s1,gp,sp
    c5dc:	fb043337          	lui	t1,0xfb043
    c5e0:	05b912b7          	lui	t0,0x5b91
    c5e4:	ab057337          	lui	t1,0xab057
    c5e8:	60ce7097          	auipc	ra,0x60ce7
    c5ec:	3d588097          	auipc	ra,0x3d588
    c5f0:	7f24d597          	auipc	a1,0x7f24d
    c5f4:	004163b3          	or	t2,sp,tp
    c5f8:	007342b3          	xor	t0,t1,t2
    c5fc:	001060b3          	or	ra,zero,ra
    c600:	10ca4017          	auipc	zero,0x10ca4
    c604:	001c0033          	add	zero,s8,ra
    c608:	736b8e13          	addi	t3,s7,1846 # 0xffffffff89d38736
    c60c:	0010eab3          	or	s5,ra,ra
    c610:	403100b3          	sub	ra,sp,gp
    c614:	a201c093          	xori	ra,gp,-1504
    c618:	c22c5117          	auipc	sp,0xc22c5
    c61c:	002171b3          	and	gp,sp,sp
    c620:	9ef1e193          	ori	gp,gp,-1553
    c624:	00010113          	mv	sp,sp
    c628:	94210ee3          	beq	sp,sp,0xbf84
    c62c:	03845137          	lui	sp,0x3845
    c630:	003f41b7          	lui	gp,0x3f4
    c634:	ae41a197          	auipc	gp,0xae41a
    c638:	0e816293          	ori	t0,sp,232
    c63c:	50cf9097          	auipc	ra,0x50cf9
    c640:	00227033          	and	zero,tp,sp
    c644:	b731f113          	andi	sp,gp,-1165
    c648:	9aa6d217          	auipc	tp,0x9aa6d
    c64c:	31d18117          	auipc	sp,0x31d18
    c650:	fc5b0313          	addi	t1,s6,-59 # 0xffffffff833b61fd
    c654:	507e6237          	lui	tp,0x507e6
    c658:	47a16093          	ori	ra,sp,1146
    c65c:	9f738013          	addi	zero,t2,-1545 # 0xffffffff87583f6f
    c660:	cfa08113          	addi	sp,ra,-774 # 0x50d05336
    c664:	ec7bc137          	lui	sp,0xec7bc
    c668:	d1714193          	xori	gp,sp,-745
    c66c:	06614713          	xori	a4,sp,102
    c670:	4b9ea0b7          	lui	ra,0x4b9ea
    c674:	f2f16113          	ori	sp,sp,-209
    c678:	0037c0b3          	xor	ra,a5,gp
    c67c:	9221e193          	ori	gp,gp,-1758
    c680:	74518293          	addi	t0,gp,1861 # 0xffffffffae426d79
    c684:	77be0097          	auipc	ra,0x77be0
    c688:	c74ee3b7          	lui	t2,0xc74ee
    c68c:	003770b3          	and	ra,a4,gp
    c690:	2590c113          	xori	sp,ra,601
    c694:	695dd397          	auipc	t2,0x695dd
    c698:	00116233          	or	tp,sp,ra
    c69c:	49408097          	auipc	ra,0x49408
    c6a0:	fa2b7117          	auipc	sp,0xfa2b7
    c6a4:	e947e137          	lui	sp,0xe947e
    c6a8:	d7d470b7          	lui	ra,0xd7d47
    c6ac:	0000e133          	or	sp,ra,zero
    c6b0:	2a7d3117          	auipc	sp,0x2a7d3
    c6b4:	96c0e193          	ori	gp,ra,-1684
    c6b8:	0022f0b3          	and	ra,t0,sp
    c6bc:	00000117          	auipc	sp,0x0
    c6c0:	110100e7          	jalr	272(sp) # 0xc7cc
    c6c4:	ed025117          	auipc	sp,0xed025
    c6c8:	13faa197          	auipc	gp,0x13faa
    c6cc:	5103a097          	auipc	ra,0x5103a
    c6d0:	38cfd117          	auipc	sp,0x38cfd
    c6d4:	00210033          	add	zero,sp,sp
    c6d8:	219af0b7          	lui	ra,0x219af
    c6dc:	ec79e117          	auipc	sp,0xec79e
    c6e0:	003182b3          	add	t0,gp,gp
    c6e4:	32017193          	andi	gp,sp,800
    c6e8:	2744a137          	lui	sp,0x2744a
    c6ec:	45b14113          	xori	sp,sp,1115
    c6f0:	00208233          	add	tp,ra,sp
    c6f4:	1a41f317          	auipc	t1,0x1a41f
    c6f8:	668a9197          	auipc	gp,0x668a9
    c6fc:	e78c21b7          	lui	gp,0xe78c2
    c700:	f8aaf037          	lui	zero,0xf8aaf
    c704:	bfe10193          	addi	gp,sp,-1026 # 0x27449bfe
    c708:	1221c093          	xori	ra,gp,290
    c70c:	003ce133          	or	sp,s9,gp
    c710:	20000097          	auipc	ra,0x20000
    c714:	2a61c337          	lui	t1,0x2a61c
    c718:	5d849117          	auipc	sp,0x5d849
    c71c:	3091e193          	ori	gp,gp,777
    c720:	0c10e213          	ori	tp,ra,193
    c724:	2a4bd117          	auipc	sp,0x2a4bd
    c728:	403183b3          	sub	t2,gp,gp
    c72c:	005061b3          	or	gp,zero,t0
    c730:	71a96117          	auipc	sp,0x71a96
    c734:	dfdbb017          	auipc	zero,0xdfdbb
    c738:	002cc0b3          	xor	ra,s9,sp
    c73c:	a3b06113          	ori	sp,zero,-1477
    c740:	9e6108e3          	beq	sp,t1,0xc130
    c744:	9edff1ef          	jal	gp,0xc130
    c748:	2dfff337          	lui	t1,0x2dfff
    c74c:	b2c08c93          	addi	s9,ra,-1236 # 0x2000c23c
    c750:	2d9b4197          	auipc	gp,0x2d9b4
    c754:	d1246217          	auipc	tp,0xd1246
    c758:	3791e093          	ori	ra,gp,889
    c75c:	0092f333          	and	t1,t0,s1
    c760:	54037197          	auipc	gp,0x54037
    c764:	3ea3b297          	auipc	t0,0x3ea3b
    c768:	7b140137          	lui	sp,0x7b140
    c76c:	bd13c137          	lui	sp,0xbd13c
    c770:	847cf197          	auipc	gp,0x847cf
    c774:	0030f2b3          	and	t0,ra,gp
    c778:	1981d6b7          	lui	a3,0x1981d
    c77c:	253b8337          	lui	t1,0x253b8
    c780:	45f46097          	auipc	ra,0x45f46
    c784:	bd50e193          	ori	gp,ra,-1067
    c788:	2c957517          	auipc	a0,0x2c957
    c78c:	4606c193          	xori	gp,a3,1120
    c790:	890d2397          	auipc	t2,0x890d2
    c794:	4e6551b7          	lui	gp,0x4e655
    c798:	ba426397          	auipc	t2,0xba426
    c79c:	401107b3          	sub	a5,sp,ra
    c7a0:	0031f133          	and	sp,gp,gp
    c7a4:	07199197          	auipc	gp,0x7199
    c7a8:	40563137          	lui	sp,0x40563
    c7ac:	11a772b7          	lui	t0,0x11a77
    c7b0:	1fb6d137          	lui	sp,0x1fb6d
    c7b4:	0000c0b3          	xor	ra,ra,zero
    c7b8:	0021f233          	and	tp,gp,sp
    c7bc:	0043c0b3          	xor	ra,t2,tp
    c7c0:	fa237197          	auipc	gp,0xfa237
    c7c4:	00110263          	beq	sp,ra,0xc7c8
    c7c8:	e18ff06f          	j	0xbde0
    c7cc:	dc80c193          	xori	gp,ra,-568
    c7d0:	4c390197          	auipc	gp,0x4c390
    c7d4:	7bb1e113          	ori	sp,gp,1979
    c7d8:	05b35a97          	auipc	s5,0x5b35
    c7dc:	b2c860b7          	lui	ra,0xb2c86
    c7e0:	af58f197          	auipc	gp,0xaf58f
    c7e4:	0eda1097          	auipc	ra,0xeda1
    c7e8:	349601b7          	lui	gp,0x34960
    c7ec:	002940b3          	xor	ra,s2,sp
    c7f0:	1030f193          	andi	gp,ra,259
    c7f4:	00316a33          	or	s4,sp,gp
    c7f8:	0021e0b3          	or	ra,gp,sp
    c7fc:	003370b3          	and	ra,t1,gp
    c800:	0d90a1b7          	lui	gp,0xd90a
    c804:	0ce1f137          	lui	sp,0xce1f
    c808:	002f82b3          	add	t0,t6,sp
    c80c:	dc62e317          	auipc	t1,0xdc62e
    c810:	db614193          	xori	gp,sp,-586
    c814:	eddae197          	auipc	gp,0xeddae
    c818:	403703b3          	sub	t2,a4,gp
    c81c:	fc47b3b7          	lui	t2,0xfc47b
    c820:	002001b3          	add	gp,zero,sp
    c824:	50a16193          	ori	gp,sp,1290
    c828:	0020f033          	and	zero,ra,sp
    c82c:	401080b3          	sub	ra,ra,ra
    c830:	001305b3          	add	a1,t1,ra
    c834:	0071c333          	xor	t1,gp,t2
    c838:	0021c133          	xor	sp,gp,sp
    c83c:	31cbd197          	auipc	gp,0x31cbd
    c840:	9fafa237          	lui	tp,0x9fafa
    c844:	3eb1d1b7          	lui	gp,0x3eb1d
    c848:	89688097          	auipc	ra,0x89688
    c84c:	ce29a0b7          	lui	ra,0xce29a
    c850:	ce208113          	addi	sp,ra,-798 # 0xffffffffce299ce2
    c854:	4c01e193          	ori	gp,gp,1216
    c858:	aa57d137          	lui	sp,0xaa57d
    c85c:	00308263          	beq	ra,gp,0xc860
    c860:	cf0ff1ef          	jal	gp,0xbd50
    c864:	c910f197          	auipc	gp,0xc910f
    c868:	cd0ef197          	auipc	gp,0xcd0ef
    c86c:	09e7b0b7          	lui	ra,0x9e7b
    c870:	00316033          	or	zero,sp,gp
    c874:	003142b3          	xor	t0,sp,gp
    c878:	65498017          	auipc	zero,0x65498
    c87c:	09138113          	addi	sp,t2,145 # 0xfffffffffc47b091
    c880:	06fc6097          	auipc	ra,0x6fc6
    c884:	003161b3          	or	gp,sp,gp
    c888:	4a3f81b7          	lui	gp,0x4a3f8
    c88c:	ba153097          	auipc	ra,0xba153
    c890:	5ae8d097          	auipc	ra,0x5ae8d
    c894:	006101b3          	add	gp,sp,t1
    c898:	942d9097          	auipc	ra,0x942d9
    c89c:	bd06b097          	auipc	ra,0xbd06b
    c8a0:	003383b3          	add	t2,t2,gp
    c8a4:	a3f34237          	lui	tp,0xa3f34
    c8a8:	002362b3          	or	t0,t1,sp
    c8ac:	9473a137          	lui	sp,0x9473a
    c8b0:	8e5d01b7          	lui	gp,0x8e5d0
    c8b4:	0060c013          	xori	zero,ra,6
    c8b8:	a34150b7          	lui	ra,0xa3415
    c8bc:	002101b3          	add	gp,sp,sp
    c8c0:	67908493          	addi	s1,ra,1657 # 0xffffffffa3415679
    c8c4:	bda6e313          	ori	t1,a3,-1062
    c8c8:	d6417093          	andi	ra,sp,-668
    c8cc:	379f5f97          	auipc	t6,0x379f5
    c8d0:	0031f1b3          	and	gp,gp,gp
    c8d4:	6d110093          	addi	ra,sp,1745 # 0xffffffff9473a6d1
    c8d8:	307731b7          	lui	gp,0x30773
    c8dc:	1741e093          	ori	ra,gp,372
    c8e0:	8814e397          	auipc	t2,0x8814e
    c8e4:	006841b3          	xor	gp,a6,t1
    c8e8:	9573d137          	lui	sp,0x9573d
    c8ec:	52118e63          	beq	gp,ra,0xce28
    c8f0:	538000ef          	jal	ra,0xce28
    c8f4:	c80d95b7          	lui	a1,0xc80d9
    c8f8:	132c21b7          	lui	gp,0x132c2
    c8fc:	63514193          	xori	gp,sp,1589
    c900:	3eff2037          	lui	zero,0x3eff2
    c904:	3c9416b7          	lui	a3,0x3c941
    c908:	00710ab3          	add	s5,sp,t2
    c90c:	00317233          	and	tp,sp,gp
    c910:	d9c7f1b7          	lui	gp,0xd9c7f
    c914:	ae05f2b7          	lui	t0,0xae05f
    c918:	e8628193          	addi	gp,t0,-378 # 0xffffffffae05ee86
    c91c:	40378133          	sub	sp,a5,gp
    c920:	453dc037          	lui	zero,0x453dc
    c924:	b4d16093          	ori	ra,sp,-1203
    c928:	2e223337          	lui	t1,0x2e223
    c92c:	0061c2b3          	xor	t0,gp,t1
    c930:	ce5b5097          	auipc	ra,0xce5b5
    c934:	ef720093          	addi	ra,tp,-265 # 0xffffffffa3f33ef7
    c938:	ad2d41b7          	lui	gp,0xad2d4
    c93c:	0010c333          	xor	t1,ra,ra
    c940:	4fd22097          	auipc	ra,0x4fd22
    c944:	37b80197          	auipc	gp,0x37b80
    c948:	d8914093          	xori	ra,sp,-631
    c94c:	00308233          	add	tp,ra,gp
    c950:	a173d137          	lui	sp,0xa173d
    c954:	98020113          	addi	sp,tp,-1664 # 0xfffffffffffff980
    c958:	27210193          	addi	gp,sp,626 # 0xffffffffa173d272
    c95c:	003a81b3          	add	gp,s5,gp
    c960:	6ecb91b7          	lui	gp,0x6ecb9
    c964:	00610133          	add	sp,sp,t1
    c968:	f8b0e093          	ori	ra,ra,-117
    c96c:	91217113          	andi	sp,sp,-1774
    c970:	a997c193          	xori	gp,a5,-1383
    c974:	4b430097          	auipc	ra,0x4b430
    c978:	8e708193          	addi	gp,ra,-1817 # 0x4b43c25b
    c97c:	2b300093          	li	ra,691
    c980:	e06701b7          	lui	gp,0xe0670
    c984:	0032f133          	and	sp,t0,gp
    c988:	00108133          	add	sp,ra,ra
    c98c:	00000393          	li	t2,0
    c990:	38038c63          	beqz	t2,0xcd28
    c994:	1a43e093          	ori	ra,t2,420
    c998:	48db4117          	auipc	sp,0x48db4
    c99c:	1a265a17          	auipc	s4,0x1a265
    c9a0:	0050ecb3          	or	s9,ra,t0
    c9a4:	8a5dc137          	lui	sp,0x8a5dc
    c9a8:	e869a117          	auipc	sp,0xe869a
    c9ac:	51c631b7          	lui	gp,0x51c63
    c9b0:	66549117          	auipc	sp,0x66549
    c9b4:	bb6f5117          	auipc	sp,0xbb6f5
    c9b8:	5454c113          	xori	sp,s1,1349
    c9bc:	4242a0b7          	lui	ra,0x4242a
    c9c0:	a352e113          	ori	sp,t0,-1483
    c9c4:	85cd01b7          	lui	gp,0x85cd0
    c9c8:	4fa16093          	ori	ra,sp,1274
    c9cc:	6121d597          	auipc	a1,0x6121d
    c9d0:	18f79137          	lui	sp,0x18f79
    c9d4:	401181b3          	sub	gp,gp,ra
    c9d8:	002101b3          	add	gp,sp,sp
    c9dc:	e0730117          	auipc	sp,0xe0730
    c9e0:	ad268237          	lui	tp,0xad268
    c9e4:	a2541237          	lui	tp,0xa2541
    c9e8:	41514313          	xori	t1,sp,1045
    c9ec:	c787a0b7          	lui	ra,0xc787a
    c9f0:	654cf137          	lui	sp,0x654cf
    c9f4:	d5fc2617          	auipc	a2,0xd5fc2
    c9f8:	c7d27093          	andi	ra,tp,-899
    c9fc:	c4b06a17          	auipc	s4,0xc4b06
    ca00:	cb51e113          	ori	sp,gp,-843
    ca04:	0060e0b3          	or	ra,ra,t1
    ca08:	0000c3b3          	xor	t2,ra,zero
    ca0c:	8b914093          	xori	ra,sp,-1863
    ca10:	13f62137          	lui	sp,0x13f62
    ca14:	002170b3          	and	ra,sp,sp
    ca18:	002380b3          	add	ra,t2,sp
    ca1c:	00314133          	xor	sp,sp,gp
    ca20:	c7718193          	addi	gp,gp,-905 # 0xffffffff85ccfc77
    ca24:	0041f1b3          	and	gp,gp,tp
    ca28:	00008093          	mv	ra,ra
    ca2c:	24108e63          	beq	ra,ra,0xcc88
    ca30:	00124033          	xor	zero,tp,ra
    ca34:	db317017          	auipc	zero,0xdb317
    ca38:	003161b3          	or	gp,sp,gp
    ca3c:	9f514113          	xori	sp,sp,-1547
    ca40:	cb01e193          	ori	gp,gp,-848
    ca44:	97662137          	lui	sp,0x97662
    ca48:	fd2300b7          	lui	ra,0xfd230
    ca4c:	452511b7          	lui	gp,0x45251
    ca50:	5a0d2117          	auipc	sp,0x5a0d2
    ca54:	38e0f693          	andi	a3,ra,910
    ca58:	d9a0f493          	andi	s1,ra,-614
    ca5c:	0014c4b3          	xor	s1,s1,ra
    ca60:	4430f313          	andi	t1,ra,1091
    ca64:	82b0e113          	ori	sp,ra,-2005
    ca68:	7b8fe017          	auipc	zero,0x7b8fe
    ca6c:	f1f28117          	auipc	sp,0xf1f28
    ca70:	3550f037          	lui	zero,0x3550f
    ca74:	bd20e213          	ori	tp,ra,-1070
    ca78:	675e4097          	auipc	ra,0x675e4
    ca7c:	003741b3          	xor	gp,a4,gp
    ca80:	e45022b7          	lui	t0,0xe4502
    ca84:	883ac197          	auipc	gp,0x883ac
    ca88:	001a80b3          	add	ra,s5,ra
    ca8c:	57022097          	auipc	ra,0x57022
    ca90:	2b17a0b7          	lui	ra,0x2b17a
    ca94:	849a21b7          	lui	gp,0x849a2
    ca98:	40910113          	addi	sp,sp,1033 # 0xfffffffff1f34e75
    ca9c:	7450b117          	auipc	sp,0x7450b
    caa0:	002082b3          	add	t0,ra,sp
    caa4:	002140b3          	xor	ra,sp,sp
    caa8:	dc000113          	li	sp,-576
    caac:	0011f133          	and	sp,gp,ra
    cab0:	cc70c793          	xori	a5,ra,-825
    cab4:	939d2117          	auipc	sp,0x939d2
    cab8:	3f8d60b7          	lui	ra,0x3f8d6
    cabc:	6bfb20b7          	lui	ra,0x6bfb2
    cac0:	9ce08213          	addi	tp,ra,-1586 # 0x6bfb19ce
    cac4:	5a378463          	beq	a5,gp,0xd06c
    cac8:	5a4005ef          	jal	a1,0xd06c
    cacc:	ae80e113          	ori	sp,ra,-1304
    cad0:	bf908093          	addi	ra,ra,-1031
    cad4:	a5ca7437          	lui	s0,0xa5ca7
    cad8:	8f70c013          	xori	zero,ra,-1801
    cadc:	8710a0b7          	lui	ra,0x8710a
    cae0:	2675c193          	xori	gp,a1,615
    cae4:	00316333          	or	t1,sp,gp
    cae8:	406081b3          	sub	gp,ra,t1
    caec:	19c0e293          	ori	t0,ra,412
    caf0:	676b8197          	auipc	gp,0x676b8
    caf4:	001261b3          	or	gp,tp,ra
    caf8:	9ddac117          	auipc	sp,0x9ddac
    cafc:	001081b3          	add	gp,ra,ra
    cb00:	a0ec0197          	auipc	gp,0xa0ec0
    cb04:	9611e297          	auipc	t0,0x9611e
    cb08:	7cb1e0b7          	lui	ra,0x7cb1e
    cb0c:	2ecdb137          	lui	sp,0x2ecdb
    cb10:	0033f1b3          	and	gp,t2,gp
    cb14:	59584197          	auipc	gp,0x59584
    cb18:	403101b3          	sub	gp,sp,gp
    cb1c:	000181b3          	add	gp,gp,zero
    cb20:	4ad14313          	xori	t1,sp,1197
    cb24:	0cd681b7          	lui	gp,0xcd68
    cb28:	2e0421b7          	lui	gp,0x2e042
    cb2c:	d3cb2197          	auipc	gp,0xd3cb2
    cb30:	09750017          	auipc	zero,0x9750
    cb34:	00267133          	and	sp,a2,sp
    cb38:	79c22197          	auipc	gp,0x79c22
    cb3c:	a1bbb0b7          	lui	ra,0xa1bbb
    cb40:	003160b3          	or	ra,sp,gp
    cb44:	ba1eb197          	auipc	gp,0xba1eb
    cb48:	bdcd10b7          	lui	ra,0xbdcd1
    cb4c:	405081b3          	sub	gp,ra,t0
    cb50:	0026f133          	and	sp,a3,sp
    cb54:	401101b3          	sub	gp,sp,ra
    cb58:	14476197          	auipc	gp,0x14476
    cb5c:	0a010063          	beqz	sp,0xcbfc
    cb60:	09c001ef          	jal	gp,0xcbfc
    cb64:	646f6217          	auipc	tp,0x646f6
    cb68:	d2c471b7          	lui	gp,0xd2c47
    cb6c:	2a8ed197          	auipc	gp,0x2a8ed
    cb70:	ebec70b7          	lui	ra,0xebec7
    cb74:	e4860197          	auipc	gp,0xe4860
    cb78:	28e0f193          	andi	gp,ra,654
    cb7c:	40eae6b7          	lui	a3,0x40eae
    cb80:	2e879117          	auipc	sp,0x2e879
    cb84:	27d3f013          	andi	zero,t2,637
    cb88:	f376a717          	auipc	a4,0xf376a
    cb8c:	c65a7197          	auipc	gp,0xc65a7
    cb90:	00117133          	and	sp,sp,ra
    cb94:	0041c1b3          	xor	gp,gp,tp
    cb98:	00014333          	xor	t1,sp,zero
    cb9c:	002140b3          	xor	ra,sp,sp
    cba0:	2828d037          	lui	zero,0x2828d
    cba4:	0db62117          	auipc	sp,0xdb62
    cba8:	0011f4b3          	and	s1,gp,ra
    cbac:	78d08193          	addi	gp,ra,1933 # 0xffffffffebec778d
    cbb0:	39ed2097          	auipc	ra,0x39ed2
    cbb4:	5b36d197          	auipc	gp,0x5b36d
    cbb8:	2d23f0b7          	lui	ra,0x2d23f
    cbbc:	b83c3197          	auipc	gp,0xb83c3
    cbc0:	001280b3          	add	ra,t0,ra
    cbc4:	12f1c093          	xori	ra,gp,303
    cbc8:	00000133          	add	sp,zero,zero
    cbcc:	fa802117          	auipc	sp,0xfa802
    cbd0:	5b9e2217          	auipc	tp,0x5b9e2
    cbd4:	1ba8e117          	auipc	sp,0x1ba8e
    cbd8:	0000e233          	or	tp,ra,zero
    cbdc:	af27f037          	lui	zero,0xaf27f
    cbe0:	89ef0297          	auipc	t0,0x89ef0
    cbe4:	cdc77117          	auipc	sp,0xcdc77
    cbe8:	11a242b7          	lui	t0,0x11a24
    cbec:	01414033          	xor	zero,sp,s4
    cbf0:	7fc3a137          	lui	sp,0x7fc3a
    cbf4:	00008093          	mv	ra,ra
    cbf8:	34108263          	beq	ra,ra,0xcf3c
    cbfc:	8ac0e093          	ori	ra,ra,-1876
    cc00:	73706113          	ori	sp,zero,1847
    cc04:	4437d0b7          	lui	ra,0x4437d
    cc08:	00418333          	add	t1,gp,tp
    cc0c:	002080b3          	add	ra,ra,sp
    cc10:	0040f133          	and	sp,ra,tp
    cc14:	00117133          	and	sp,sp,ra
    cc18:	4007e1b7          	lui	gp,0x4007e
    cc1c:	002160b3          	or	ra,sp,sp
    cc20:	76088097          	auipc	ra,0x76088
    cc24:	e2005197          	auipc	gp,0xe2005
    cc28:	40518e33          	sub	t3,gp,t0
    cc2c:	2199b097          	auipc	ra,0x2199b
    cc30:	08fc90b7          	lui	ra,0x8fc9
    cc34:	29d3d1b7          	lui	gp,0x29d3d
    cc38:	0051e333          	or	t1,gp,t0
    cc3c:	3bc0f397          	auipc	t2,0x3bc0f
    cc40:	e5fc12b7          	lui	t0,0xe5fc1
    cc44:	f3896297          	auipc	t0,0xf3896
    cc48:	c06ae0b7          	lui	ra,0xc06ae
    cc4c:	bfe16113          	ori	sp,sp,-1026
    cc50:	8753b517          	auipc	a0,0x8753b
    cc54:	226851b7          	lui	gp,0x22685
    cc58:	00436133          	or	sp,t1,tp
    cc5c:	46ffe097          	auipc	ra,0x46ffe
    cc60:	f9528113          	addi	sp,t0,-107 # 0xfffffffff38a2bd9
    cc64:	2ef0e113          	ori	sp,ra,751
    cc68:	40208333          	sub	t1,ra,sp
    cc6c:	0031f0b3          	and	ra,gp,gp
    cc70:	c6618093          	addi	ra,gp,-922 # 0x22684c66
    cc74:	a9d81217          	auipc	tp,0xa9d81
    cc78:	e6534197          	auipc	gp,0xe6534
    cc7c:	8f4851b7          	lui	gp,0x8f485
    cc80:	be6102e3          	beq	sp,t1,0xc864
    cc84:	be1ff2ef          	jal	t0,0xc864
    cc88:	d8707317          	auipc	t1,0xd8707
    cc8c:	1da8d237          	lui	tp,0x1da8d
    cc90:	fefe9137          	lui	sp,0xfefe9
    cc94:	5ab56197          	auipc	gp,0x5ab56
    cc98:	e1e18093          	addi	ra,gp,-482 # 0x5ab62ab2
    cc9c:	cf68f197          	auipc	gp,0xcf68f
    cca0:	db838113          	addi	sp,t2,-584 # 0x3bc1b9f4
    cca4:	35b0c093          	xori	ra,ra,859
    cca8:	e5e24393          	xori	t2,tp,-418
    ccac:	e7e0c313          	xori	t1,ra,-386
    ccb0:	6866c093          	xori	ra,a3,1670
    ccb4:	f5d15037          	lui	zero,0xf5d15
    ccb8:	76e54037          	lui	zero,0x76e54
    ccbc:	5156d137          	lui	sp,0x5156d
    ccc0:	7cf40097          	auipc	ra,0x7cf40
    ccc4:	0032e333          	or	t1,t0,gp
    ccc8:	009e41b3          	xor	gp,t3,s1
    cccc:	93c6b0b7          	lui	ra,0x93c6b
    ccd0:	40108133          	sub	sp,ra,ra
    ccd4:	ae3cf4b7          	lui	s1,0xae3cf
    ccd8:	4f36d1b7          	lui	gp,0x4f36d
    ccdc:	ab5ac297          	auipc	t0,0xab5ac
    cce0:	600db197          	auipc	gp,0x600db
    cce4:	0ec07917          	auipc	s2,0xec07
    cce8:	9537a117          	auipc	sp,0x9537a
    ccec:	eadb7097          	auipc	ra,0xeadb7
    ccf0:	001271b3          	and	gp,tp,ra
    ccf4:	a82a5bb7          	lui	s7,0xa82a5
    ccf8:	c6928113          	addi	sp,t0,-919 # 0xffffffffab5b8945
    ccfc:	5de08113          	addi	sp,ra,1502 # 0xffffffffeadc42ca
    cd00:	b11e2097          	auipc	ra,0xb11e2
    cd04:	0d06e1b7          	lui	gp,0xd06e
    cd08:	6b44e117          	auipc	sp,0x6b44e
    cd0c:	f0077597          	auipc	a1,0xf0077
    cd10:	c5f55097          	auipc	ra,0xc5f55
    cd14:	003af1b3          	and	gp,s5,gp
    cd18:	d740e113          	ori	sp,ra,-652
    cd1c:	00210133          	add	sp,sp,sp
    cd20:	bc330ae3          	beq	t1,gp,0xc8f4
    cd24:	bd1ff1ef          	jal	gp,0xc8f4
    cd28:	2d910093          	addi	ra,sp,729 # 0x6b45afe1
    cd2c:	b3f090b7          	lui	ra,0xb3f09
    cd30:	407100b3          	sub	ra,sp,t2
    cd34:	059a3137          	lui	sp,0x59a3
    cd38:	4831f193          	andi	gp,gp,1155
    cd3c:	d99f93b7          	lui	t2,0xd99f9
    cd40:	51395597          	auipc	a1,0x51395
    cd44:	6faf5137          	lui	sp,0x6faf5
    cd48:	0016e0b3          	or	ra,a3,ra
    cd4c:	9f5be037          	lui	zero,0x9f5be
    cd50:	003141b3          	xor	gp,sp,gp
    cd54:	002041b3          	xor	gp,zero,sp
    cd58:	2f516193          	ori	gp,sp,757
    cd5c:	840b3397          	auipc	t2,0x840b3
    cd60:	00b462b3          	or	t0,s0,a1
    cd64:	fdd0f113          	andi	sp,ra,-35
    cd68:	b1e12137          	lui	sp,0xb1e12
    cd6c:	80496237          	lui	tp,0x80496
    cd70:	d587a0b7          	lui	ra,0xd587a
    cd74:	0af6e093          	ori	ra,a3,175
    cd78:	9796b0b7          	lui	ra,0x9796b
    cd7c:	fb00a0b7          	lui	ra,0xfb00a
    cd80:	da710193          	addi	gp,sp,-601 # 0xffffffffb1e11da7
    cd84:	df60f093          	andi	ra,ra,-522
    cd88:	d5409137          	lui	sp,0xd5409
    cd8c:	d7dbf117          	auipc	sp,0xd7dbf
    cd90:	40188133          	sub	sp,a7,ra
    cd94:	876c20b7          	lui	ra,0x876c2
    cd98:	abb8e317          	auipc	t1,0xabb8e
    cd9c:	36118263          	beq	gp,ra,0xd100
    cda0:	3600086f          	jal	a6,0xd100
    cda4:	40308233          	sub	tp,ra,gp
    cda8:	00237333          	and	t1,t1,sp
    cdac:	003183b3          	add	t2,gp,gp
    cdb0:	ef568193          	addi	gp,a3,-267 # 0x40eadef5
    cdb4:	fa3f6137          	lui	sp,0xfa3f6
    cdb8:	1a008117          	auipc	sp,0x1a008
    cdbc:	65c36113          	ori	sp,t1,1628
    cdc0:	0001e0b3          	or	ra,gp,zero
    cdc4:	355206b7          	lui	a3,0x35520
    cdc8:	ab208e93          	addi	t4,ra,-1358 # 0xffffffff876c1ab2
    cdcc:	f6a9a3b7          	lui	t2,0xf6a9a
    cdd0:	60724397          	auipc	t2,0x60724
    cdd4:	0011f3b3          	and	t2,gp,ra
    cdd8:	43f1c393          	xori	t2,gp,1087
    cddc:	8df9f117          	auipc	sp,0x8df9f
    cde0:	1d073237          	lui	tp,0x1d073
    cde4:	da017193          	andi	gp,sp,-608
    cde8:	0043ec33          	or	s8,t2,tp
    cdec:	a0a3d097          	auipc	ra,0xa0a3d
    cdf0:	79b24093          	xori	ra,tp,1947
    cdf4:	005d3337          	lui	t1,0x5d3
    cdf8:	85b27193          	andi	gp,tp,-1957
    cdfc:	54d1e093          	ori	ra,gp,1357
    ce00:	d59d1197          	auipc	gp,0xd59d1
    ce04:	64368297          	auipc	t0,0x64368
    ce08:	27f20093          	addi	ra,tp,639 # 0x1d07327f
    ce0c:	30a80317          	auipc	t1,0x30a80
    ce10:	00410733          	add	a4,sp,tp
    ce14:	38cde1b7          	lui	gp,0x38cde
    ce18:	7fc08393          	addi	t2,ra,2044 # 0xffffffffa0a4a5e8
    ce1c:	0c617193          	andi	gp,sp,198
    ce20:	00010113          	mv	sp,sp
    ce24:	c02106e3          	beq	sp,sp,0xca30
    ce28:	62114113          	xori	sp,sp,1569
    ce2c:	b1bbc3b7          	lui	t2,0xb1bbc
    ce30:	6cbbf217          	auipc	tp,0x6cbbf
    ce34:	6ad5c193          	xori	gp,a1,1709
    ce38:	0020f1b3          	and	gp,ra,sp
    ce3c:	003175b3          	and	a1,sp,gp
    ce40:	a7dca1b7          	lui	gp,0xa7dca
    ce44:	8df853b7          	lui	t2,0x8df85
    ce48:	d07140b7          	lui	ra,0xd0714
    ce4c:	b512a097          	auipc	ra,0xb512a
    ce50:	28716093          	ori	ra,sp,647
    ce54:	00217233          	and	tp,sp,sp
    ce58:	589b01b7          	lui	gp,0x589b0
    ce5c:	007df0b3          	and	ra,s11,t2
    ce60:	d856f197          	auipc	gp,0xd856f
    ce64:	20f8a337          	lui	t1,0x20f8a
    ce68:	0044c233          	xor	tp,s1,tp
    ce6c:	4a1d8337          	lui	t1,0x4a1d8
    ce70:	669960b7          	lui	ra,0x66996
    ce74:	df31d037          	lui	zero,0xdf31d
    ce78:	ff910213          	addi	tp,sp,-7 # 0xffffffff8dfabdd5
    ce7c:	000101b3          	add	gp,sp,zero
    ce80:	31eda197          	auipc	gp,0x31eda
    ce84:	35838113          	addi	sp,t2,856 # 0xffffffff8df85358
    ce88:	94bfd217          	auipc	tp,0x94bfd
    ce8c:	8d0fa137          	lui	sp,0x8d0fa
    ce90:	1b545137          	lui	sp,0x1b545
    ce94:	65d26093          	ori	ra,tp,1629
    ce98:	a2537197          	auipc	gp,0xa2537
    ce9c:	e510c397          	auipc	t2,0xe510c
    cea0:	401181b3          	sub	gp,gp,ra
    cea4:	1c77b0b7          	lui	ra,0x1c77b
    cea8:	403a01b3          	sub	gp,s4,gp
    ceac:	00010313          	mv	t1,sp
    ceb0:	36230e63          	beq	t1,sp,0xd22c
    ceb4:	33bbc0b7          	lui	ra,0x33bbc
    ceb8:	3cdaf097          	auipc	ra,0x3cdaf
    cebc:	aeddb597          	auipc	a1,0xaeddb
    cec0:	402181b3          	sub	gp,gp,sp
    cec4:	68706313          	ori	t1,zero,1671
    cec8:	15f17193          	andi	gp,sp,351
    cecc:	a3a2d037          	lui	zero,0xa3a2d
    ced0:	00218333          	add	t1,gp,sp
    ced4:	566d31b7          	lui	gp,0x566d3
    ced8:	00c0c133          	xor	sp,ra,a2
    cedc:	b4e10313          	addi	t1,sp,-1202 # 0x1b544b4e
    cee0:	93f29117          	auipc	sp,0x93f29
    cee4:	32c9f197          	auipc	gp,0x32c9f
    cee8:	265f7217          	auipc	tp,0x265f7
    ceec:	ac2731b7          	lui	gp,0xac273
    cef0:	40717113          	andi	sp,sp,1031
    cef4:	00620217          	auipc	tp,0x620
    cef8:	002ac0b3          	xor	ra,s5,sp
    cefc:	9b41c113          	xori	sp,gp,-1612
    cf00:	00117333          	and	t1,sp,ra
    cf04:	a5910213          	addi	tp,sp,-1447 # 0xffffffff93f35939
    cf08:	0021c0b3          	xor	ra,gp,sp
    cf0c:	4a714093          	xori	ra,sp,1191
    cf10:	f615afb7          	lui	t6,0xf615a
    cf14:	e940c093          	xori	ra,ra,-364
    cf18:	eb91f113          	andi	sp,gp,-327
    cf1c:	155cb137          	lui	sp,0x155cb
    cf20:	cfc0e113          	ori	sp,ra,-772
    cf24:	be634113          	xori	sp,t1,-1050
    cf28:	1b540337          	lui	t1,0x1b540
    cf2c:	007081b3          	add	gp,ra,t2
    cf30:	abc26193          	ori	gp,tp,-1348
    cf34:	26008a63          	beqz	ra,0xd1a8
    cf38:	2700016f          	jal	sp,0xd1a8
    cf3c:	22224193          	xori	gp,tp,546
    cf40:	d700f393          	andi	t2,ra,-656
    cf44:	7fa58197          	auipc	gp,0x7fa58
    cf48:	751dfe37          	lui	t3,0x751df
    cf4c:	80e10193          	addi	gp,sp,-2034 # 0x155ca80e
    cf50:	74b630b7          	lui	ra,0x74b63
    cf54:	c7c1e093          	ori	ra,gp,-900
    cf58:	402100b3          	sub	ra,sp,sp
    cf5c:	fd136193          	ori	gp,t1,-47
    cf60:	28c1c193          	xori	gp,gp,652
    cf64:	7efdd917          	auipc	s2,0x7efdd
    cf68:	faf8e317          	auipc	t1,0xfaf8e
    cf6c:	402101b3          	sub	gp,sp,sp
    cf70:	4f926213          	ori	tp,tp,1273
    cf74:	bb61f113          	andi	sp,gp,-1098
    cf78:	0010f133          	and	sp,ra,ra
    cf7c:	e5b2c093          	xori	ra,t0,-421
    cf80:	403f03b3          	sub	t2,t5,gp
    cf84:	ed0171b7          	lui	gp,0xed017
    cf88:	67ef11b7          	lui	gp,0x67ef1
    cf8c:	f4d24113          	xori	sp,tp,-179
    cf90:	e1614093          	xori	ra,sp,-490
    cf94:	0020e0b3          	or	ra,ra,sp
    cf98:	7f6b01b7          	lui	gp,0x7f6b0
    cf9c:	4041c193          	xori	gp,gp,1028
    cfa0:	0020e033          	or	zero,ra,sp
    cfa4:	401184b3          	sub	s1,gp,ra
    cfa8:	f4731097          	auipc	ra,0xf4731
    cfac:	52144137          	lui	sp,0x52144
    cfb0:	67766097          	auipc	ra,0x67766
    cfb4:	8581c337          	lui	t1,0x8581c
    cfb8:	4c6081b7          	lui	gp,0x4c608
    cfbc:	0020e0b3          	or	ra,ra,sp
    cfc0:	f45ae097          	auipc	ra,0xf45ae
    cfc4:	b0c26113          	ori	sp,tp,-1268
    cfc8:	b05302e3          	beq	t1,t0,0xcacc
    cfcc:	b01ff1ef          	jal	gp,0xcacc
    cfd0:	2b64a597          	auipc	a1,0x2b64a
    cfd4:	e5616193          	ori	gp,sp,-426
    cfd8:	00134133          	xor	sp,t1,ra
    cfdc:	964f41b7          	lui	gp,0x964f4
    cfe0:	20a710b7          	lui	ra,0x20a71
    cfe4:	0016e1b3          	or	gp,a3,ra
    cfe8:	cf6800b7          	lui	ra,0xcf680
    cfec:	32b7e0b7          	lui	ra,0x32b7e
    cff0:	00320633          	add	a2,tp,gp
    cff4:	001481b3          	add	gp,s1,ra
    cff8:	a2b0f193          	andi	gp,ra,-1493
    cffc:	944df6b7          	lui	a3,0x944df
    d000:	83406193          	ori	gp,zero,-1996
    d004:	8c4ffdb7          	lui	s11,0x8c4ff
    d008:	0032f033          	and	zero,t0,gp
    d00c:	bd85b1b7          	lui	gp,0xbd85b
    d010:	b508b117          	auipc	sp,0xb508b
    d014:	86007393          	andi	t2,zero,-1952
    d018:	00218033          	add	zero,gp,sp
    d01c:	b7f10193          	addi	gp,sp,-1153 # 0xffffffffb5097b8f
    d020:	7d356313          	ori	t1,a0,2003
    d024:	8c73f093          	andi	ra,t2,-1849
    d028:	cba1cab7          	lui	s5,0xcba1c
    d02c:	d2804393          	xori	t2,zero,-728
    d030:	b161e193          	ori	gp,gp,-1258
    d034:	ae6f7017          	auipc	zero,0xae6f7
    d038:	95508113          	addi	sp,ra,-1707 # 0x32b7d955
    d03c:	ffa711b7          	lui	gp,0xffa71
    d040:	55508113          	addi	sp,ra,1365
    d044:	c76f2097          	auipc	ra,0xc76f2
    d048:	e561f113          	andi	sp,gp,-426
    d04c:	c6407293          	andi	t0,zero,-924
    d050:	00c91317          	auipc	t1,0xc91
    d054:	fda6f193          	andi	gp,a3,-38
    d058:	5d713137          	lui	sp,0x5d713
    d05c:	00218133          	add	sp,gp,sp
    d060:	1299e197          	auipc	gp,0x1299e
    d064:	b01300e3          	beq	t1,ra,0xcb64
    d068:	afdff1ef          	jal	gp,0xcb64
    d06c:	b360e113          	ori	sp,ra,-1226
    d070:	87817313          	andi	t1,sp,-1928
    d074:	3f414213          	xori	tp,sp,1012
    d078:	71f4f0b7          	lui	ra,0x71f4f
    d07c:	e67571b7          	lui	gp,0xe6757
    d080:	d0ed9137          	lui	sp,0xd0ed9
    d084:	462b80b7          	lui	ra,0x462b8
    d088:	eebdb1b7          	lui	gp,0xeebdb
    d08c:	0f218193          	addi	gp,gp,242 # 0xffffffffeebdb0f2
    d090:	0031e133          	or	sp,gp,gp
    d094:	94388137          	lui	sp,0x94388
    d098:	19420b13          	addi	s6,tp,404 # 0x62d088
    d09c:	727db097          	auipc	ra,0x727db
    d0a0:	8a734093          	xori	ra,t1,-1881
    d0a4:	77d21317          	auipc	t1,0x77d21
    d0a8:	4da78017          	auipc	zero,0x4da78
    d0ac:	1f500113          	li	sp,501
    d0b0:	7f927093          	andi	ra,tp,2041
    d0b4:	e3c1f1b7          	lui	gp,0xe3c1f
    d0b8:	3ae223b7          	lui	t2,0x3ae22
    d0bc:	b2a4f0b7          	lui	ra,0xb2a4f
    d0c0:	004175b3          	and	a1,sp,tp
    d0c4:	4725b397          	auipc	t2,0x4725b
    d0c8:	483110b7          	lui	ra,0x48311
    d0cc:	19c68197          	auipc	gp,0x19c68
    d0d0:	0a41c013          	xori	zero,gp,164
    d0d4:	ddd14197          	auipc	gp,0xddd14
    d0d8:	9cd1ed93          	ori	s11,gp,-1587
    d0dc:	0c6b0117          	auipc	sp,0xc6b0
    d0e0:	0070f0b3          	and	ra,ra,t2
    d0e4:	e39d5137          	lui	sp,0xe39d5
    d0e8:	dfd3f113          	andi	sp,t2,-515
    d0ec:	402a1117          	auipc	sp,0x402a1
    d0f0:	ed540097          	auipc	ra,0xed540
    d0f4:	003101b3          	add	gp,sp,gp
    d0f8:	00000217          	auipc	tp,0x0
    d0fc:	240201e7          	jalr	gp,576(tp) # 0x0
    d100:	6f31f193          	andi	gp,gp,1779
    d104:	0b10e693          	ori	a3,ra,177
    d108:	f26ae117          	auipc	sp,0xf26ae
    d10c:	000a41b3          	xor	gp,s4,zero
    d110:	a27500b7          	lui	ra,0xa2750
    d114:	402303b3          	sub	t2,t1,sp
    d118:	00108133          	add	sp,ra,ra
    d11c:	00417eb3          	and	t4,sp,tp
    d120:	00107133          	and	sp,zero,ra
    d124:	ed017113          	andi	sp,sp,-304
    d128:	cfec1397          	auipc	t2,0xcfec1
    d12c:	c706c093          	xori	ra,a3,-912
    d130:	f77a3397          	auipc	t2,0xf77a3
    d134:	033fd137          	lui	sp,0x33fd
    d138:	83608113          	addi	sp,ra,-1994 # 0xffffffffa274f836
    d13c:	58b17093          	andi	ra,sp,1419
    d140:	9785b217          	auipc	tp,0x9785b
    d144:	0011c0b3          	xor	ra,gp,ra
    d148:	1182e093          	ori	ra,t0,280
    d14c:	bc5243b7          	lui	t2,0xbc524
    d150:	924da3b7          	lui	t2,0x924da
    d154:	5b892397          	auipc	t2,0x5b892
    d158:	2895f0b7          	lui	ra,0x2895f
    d15c:	95c08193          	addi	gp,ra,-1700 # 0x2895e95c
    d160:	42036093          	ori	ra,t1,1056
    d164:	bc14b137          	lui	sp,0xbc14b
    d168:	0f06a097          	auipc	ra,0xf06a
    d16c:	acd05137          	lui	sp,0xacd05
    d170:	9cfe90b7          	lui	ra,0x9cfe9
    d174:	04424193          	xori	gp,tp,68
    d178:	275a0d97          	auipc	s11,0x275a0
    d17c:	1d269197          	auipc	gp,0x1d269
    d180:	0021e133          	or	sp,gp,sp
    d184:	efb36093          	ori	ra,t1,-261
    d188:	85518193          	addi	gp,gp,-1963 # 0x1d2759d1
    d18c:	0001f1b3          	and	gp,gp,zero
    d190:	c7e8f797          	auipc	a5,0xc7e8f
    d194:	eeaec097          	auipc	ra,0xeeaec
    d198:	000e80b3          	add	ra,t4,zero
    d19c:	deff5097          	auipc	ra,0xdeff5
    d1a0:	00000797          	auipc	a5,0x0
    d1a4:	10c781e7          	jalr	gp,268(a5) # 0xd2ac
    d1a8:	201531b7          	lui	gp,0x20153
    d1ac:	8d0751b7          	lui	gp,0x8d075
    d1b0:	534860b7          	lui	ra,0x53486
    d1b4:	c8f14393          	xori	t2,sp,-881
    d1b8:	40210133          	sub	sp,sp,sp
    d1bc:	ef336293          	ori	t0,t1,-269
    d1c0:	00f17fb3          	and	t6,sp,a5
    d1c4:	001080b3          	add	ra,ra,ra
    d1c8:	1b928817          	auipc	a6,0x1b928
    d1cc:	9f970097          	auipc	ra,0x9f970
    d1d0:	4a72e113          	ori	sp,t0,1191
    d1d4:	4bfb41b7          	lui	gp,0x4bfb4
    d1d8:	d4e71097          	auipc	ra,0xd4e71
    d1dc:	4eb34117          	auipc	sp,0x4eb34
    d1e0:	9be040b7          	lui	ra,0x9be04
    d1e4:	14f14193          	xori	gp,sp,335
    d1e8:	ae2c0137          	lui	sp,0xae2c0
    d1ec:	0010e1b3          	or	gp,ra,ra
    d1f0:	b5316213          	ori	tp,sp,-1197
    d1f4:	96743117          	auipc	sp,0x96743
    d1f8:	32608393          	addi	t2,ra,806 # 0xffffffff9be04326
    d1fc:	0011e133          	or	sp,gp,ra
    d200:	c731c193          	xori	gp,gp,-909
    d204:	0031e0b3          	or	ra,gp,gp
    d208:	00117133          	and	sp,sp,ra
    d20c:	efb3e193          	ori	gp,t2,-261
    d210:	01e060b3          	or	ra,zero,t5
    d214:	23518093          	addi	ra,gp,565 # 0x4bfb4235
    d218:	b8434037          	lui	zero,0xb8434
    d21c:	0031c1b3          	xor	gp,gp,gp
    d220:	001601b3          	add	gp,a2,ra
    d224:	00d28263          	beq	t0,a3,0xd228
    d228:	025001ef          	jal	gp,0xda4c
    d22c:	00b04133          	xor	sp,zero,a1
    d230:	a8117113          	andi	sp,sp,-1407
    d234:	8bf851b7          	lui	gp,0x8bf85
    d238:	0061c3b3          	xor	t2,gp,t1
    d23c:	a126d117          	auipc	sp,0xa126d
    d240:	b6655137          	lui	sp,0xb6655
    d244:	82614113          	xori	sp,sp,-2010
    d248:	57c08193          	addi	gp,ra,1404
    d24c:	0040c333          	xor	t1,ra,tp
    d250:	404100b3          	sub	ra,sp,tp
    d254:	3132a137          	lui	sp,0x3132a
    d258:	00214133          	xor	sp,sp,sp
    d25c:	0020e133          	or	sp,ra,sp
    d260:	cceee097          	auipc	ra,0xcceee
    d264:	0030e0b3          	or	ra,ra,gp
    d268:	57eb4137          	lui	sp,0x57eb4
    d26c:	dc853197          	auipc	gp,0xdc853
    d270:	40118133          	sub	sp,gp,ra
    d274:	00304133          	xor	sp,zero,gp
    d278:	e5343197          	auipc	gp,0xe5343
    d27c:	8c799097          	auipc	ra,0x8c799
    d280:	54cf31b7          	lui	gp,0x54cf3
    d284:	1f216093          	ori	ra,sp,498
    d288:	bc655297          	auipc	t0,0xbc655
    d28c:	2fb55217          	auipc	tp,0x2fb55
    d290:	40118233          	sub	tp,gp,ra
    d294:	f2620237          	lui	tp,0xf2620
    d298:	6ad04193          	xori	gp,zero,1709
    d29c:	f8fd27b7          	lui	a5,0xf8fd2
    d2a0:	79e1f193          	andi	gp,gp,1950
    d2a4:	00310263          	beq	sp,gp,0xd2a8
    d2a8:	eecff1ef          	jal	gp,0xc994
    d2ac:	a3e5b197          	auipc	gp,0xa3e5b
    d2b0:	fb604113          	xori	sp,zero,-74
    d2b4:	0052e1b3          	or	gp,t0,t0
    d2b8:	f9410093          	addi	ra,sp,-108 # 0x57eb3f94
    d2bc:	79c24093          	xori	ra,tp,1948
    d2c0:	00430133          	add	sp,t1,tp
    d2c4:	24896093          	ori	ra,s2,584
    d2c8:	a8dfe117          	auipc	sp,0xa8dfe
    d2cc:	cc26c0b7          	lui	ra,0xcc26c
    d2d0:	8ed1c193          	xori	gp,gp,-1811
    d2d4:	c7907193          	andi	gp,zero,-903
    d2d8:	c6d0f393          	andi	t2,ra,-915
    d2dc:	ac58d197          	auipc	gp,0xac58d
    d2e0:	f542f117          	auipc	sp,0xf542f
    d2e4:	92854097          	auipc	ra,0x92854
    d2e8:	b005c1b7          	lui	gp,0xb005c
    d2ec:	bf916193          	ori	gp,sp,-1031
    d2f0:	bec18113          	addi	sp,gp,-1044 # 0xffffffffb005bbec
    d2f4:	00b0e5b3          	or	a1,ra,a1
    d2f8:	003080b3          	add	ra,ra,gp
    d2fc:	31d631b7          	lui	gp,0x31d63
    d300:	c6638013          	addi	zero,t2,-922 # 0x5b89edba
    d304:	003174b3          	and	s1,sp,gp
    d308:	57abb337          	lui	t1,0x57abb
    d30c:	e4936117          	auipc	sp,0xe4936
    d310:	799770b7          	lui	ra,0x79977
    d314:	83db4097          	auipc	ra,0x83db4
    d318:	c5e1a6b7          	lui	a3,0xc5e1a
    d31c:	89274497          	auipc	s1,0x89274
    d320:	db0b1137          	lui	sp,0xdb0b1
    d324:	42018013          	addi	zero,gp,1056 # 0x31d63420
    d328:	56fb2117          	auipc	sp,0x56fb2
    d32c:	7d4c3017          	auipc	zero,0x7d4c3
    d330:	b81002e3          	beq	zero,ra,0xceb4
    d334:	b81ff0ef          	jal	ra,0xceb4
    d338:	3e01c093          	xori	ra,gp,992
    d33c:	78f4c097          	auipc	ra,0x78f4c
    d340:	a89262b7          	lui	t0,0xa8926
    d344:	f6f541b7          	lui	gp,0xf6f54
    d348:	c1fda137          	lui	sp,0xc1fda
    d34c:	00538233          	add	tp,t2,t0
    d350:	69b27113          	andi	sp,tp,1691
    d354:	00518033          	add	zero,gp,t0
    d358:	d720f193          	andi	gp,ra,-654
    d35c:	40110133          	sub	sp,sp,ra
    d360:	2b220113          	addi	sp,tp,690 # 0xfffffffff26202b2
    d364:	adc5c0b7          	lui	ra,0xadc5c
    d368:	8fc06293          	ori	t0,zero,-1796
    d36c:	0037f1b3          	and	gp,a5,gp
    d370:	112d4113          	xori	sp,s10,274
    d374:	9edd9a97          	auipc	s5,0x9edd9
    d378:	0001f133          	and	sp,gp,zero
    d37c:	74a9a337          	lui	t1,0x74a9a
    d380:	0a334113          	xori	sp,t1,163
    d384:	406200b3          	sub	ra,tp,t1
    d388:	0010c133          	xor	sp,ra,ra
    d38c:	0021f0b3          	and	ra,gp,sp
    d390:	0031e033          	or	zero,gp,gp
    d394:	70215137          	lui	sp,0x70215
    d398:	e88fd197          	auipc	gp,0xe88fd
    d39c:	00b170b3          	and	ra,sp,a1
    d3a0:	e6364297          	auipc	t0,0xe6364
    d3a4:	001161b3          	or	gp,sp,ra
    d3a8:	3e2d9137          	lui	sp,0x3e2d9
    d3ac:	2d4a8093          	addi	ra,s5,724 # 0xffffffff9ede6648
    d3b0:	0061f033          	and	zero,gp,t1
    d3b4:	ab190097          	auipc	ra,0xab190
    d3b8:	006071b3          	and	gp,zero,t1
    d3bc:	e4426137          	lui	sp,0xe4426
    d3c0:	00000317          	auipc	t1,0x0
    d3c4:	c10301e7          	jalr	gp,-1008(t1) # 0xcfd0
    d3c8:	40310033          	sub	zero,sp,gp
    d3cc:	d8038317          	auipc	t1,0xd8038
    d3d0:	0043e133          	or	sp,t2,tp
    d3d4:	4d2f2117          	auipc	sp,0x4d2f2
    d3d8:	04f0f593          	andi	a1,ra,79
    d3dc:	9aaee097          	auipc	ra,0x9aaee
    d3e0:	b7b660b7          	lui	ra,0xb7b66
    d3e4:	3cf16093          	ori	ra,sp,975
    d3e8:	002141b3          	xor	gp,sp,sp
    d3ec:	68caae37          	lui	t3,0x68caa
    d3f0:	778b2197          	auipc	gp,0x778b2
    d3f4:	0020f133          	and	sp,ra,sp
    d3f8:	8ee7e313          	ori	t1,a5,-1810
    d3fc:	3e1c1237          	lui	tp,0x3e1c1
    d400:	0031c1b3          	xor	gp,gp,gp
    d404:	d5714737          	lui	a4,0xd5714
    d408:	91108093          	addi	ra,ra,-1775 # 0xffffffffb7b65911
    d40c:	c0d4b137          	lui	sp,0xc0d4b
    d410:	c5c17013          	andi	zero,sp,-932
    d414:	dc5543b7          	lui	t2,0xdc554
    d418:	e696c2b7          	lui	t0,0xe696c
    d41c:	14da53b7          	lui	t2,0x14da5
    d420:	0013e1b3          	or	gp,t2,ra
    d424:	a19fa1b7          	lui	gp,0xa19fa
    d428:	bda17213          	andi	tp,sp,-1062
    d42c:	05ee1197          	auipc	gp,0x5ee1
    d430:	948cb137          	lui	sp,0x948cb
    d434:	0361e313          	ori	t1,gp,54
    d438:	dd8ef197          	auipc	gp,0xdd8ef
    d43c:	00226333          	or	t1,tp,sp
    d440:	b0408113          	addi	sp,ra,-1276
    d444:	c3824193          	xori	gp,tp,-968
    d448:	002160b3          	or	ra,sp,sp
    d44c:	000a8263          	beqz	s5,0xd450
    d450:	045000ef          	jal	ra,0xdc94
    d454:	0020f333          	and	t1,ra,sp
    d458:	aa617893          	andi	a7,sp,-1370
    d45c:	000061b3          	or	gp,zero,zero
    d460:	b01d9137          	lui	sp,0xb01d9
    d464:	5530e193          	ori	gp,ra,1363
    d468:	05e6d337          	lui	t1,0x5e6d
    d46c:	40120333          	sub	t1,tp,ra
    d470:	686b9117          	auipc	sp,0x686b9
    d474:	00226033          	or	zero,tp,sp
    d478:	0951e113          	ori	sp,gp,149
    d47c:	e5810693          	addi	a3,sp,-424 # 0x686c62c8
    d480:	b710e093          	ori	ra,ra,-1167
    d484:	0021e1b3          	or	gp,gp,sp
    d488:	3aea4117          	auipc	sp,0x3aea4
    d48c:	5e6e6197          	auipc	gp,0x5e6e6
    d490:	7cf5d1b7          	lui	gp,0x7cf5d
    d494:	9620e193          	ori	gp,ra,-1694
    d498:	55872317          	auipc	t1,0x55872
    d49c:	cea0e093          	ori	ra,ra,-790
    d4a0:	5b508293          	addi	t0,ra,1461
    d4a4:	0950c117          	auipc	sp,0x950c
    d4a8:	fc82c1b7          	lui	gp,0xfc82c
    d4ac:	25606093          	ori	ra,zero,598
    d4b0:	000270b3          	and	ra,tp,zero
    d4b4:	40118533          	sub	a0,gp,ra
    d4b8:	0062e1b3          	or	gp,t0,t1
    d4bc:	6dc3a0b7          	lui	ra,0x6dc3a
    d4c0:	fef1e093          	ori	ra,gp,-17
    d4c4:	1339e7b7          	lui	a5,0x1339e
    d4c8:	403180b3          	sub	ra,gp,gp
    d4cc:	49f57137          	lui	sp,0x49f57
    d4d0:	00008313          	mv	t1,ra
    d4d4:	22130c63          	beq	t1,ra,0xd70c
    d4d8:	0010f1b3          	and	gp,ra,ra
    d4dc:	9fa8e117          	auipc	sp,0x9fa8e
    d4e0:	0020e6b3          	or	a3,ra,sp
    d4e4:	34ae0017          	auipc	zero,0x34ae0
    d4e8:	0e0db337          	lui	t1,0xe0db
    d4ec:	001160b3          	or	ra,sp,ra
    d4f0:	4eccf117          	auipc	sp,0x4eccf
    d4f4:	44308613          	addi	a2,ra,1091 # 0x6dc3a443
    d4f8:	eb260137          	lui	sp,0xeb260
    d4fc:	3239a5b7          	lui	a1,0x3239a
    d500:	9d8d7093          	andi	ra,s10,-1576
    d504:	01a6c133          	xor	sp,a3,s10
    d508:	07d14093          	xori	ra,sp,125
    d50c:	0ba720b7          	lui	ra,0xba72
    d510:	b98ee7b7          	lui	a5,0xb98ee
    d514:	d39bb1b7          	lui	gp,0xd39bb
    d518:	55471e17          	auipc	t3,0x55471
    d51c:	2c936113          	ori	sp,t1,713
    d520:	cf9630b7          	lui	ra,0xcf963
    d524:	290e2197          	auipc	gp,0x290e2
    d528:	08358113          	addi	sp,a1,131 # 0x3239a083
    d52c:	90d1c193          	xori	gp,gp,-1779
    d530:	00208133          	add	sp,ra,sp
    d534:	25d489b7          	lui	s3,0x25d48
    d538:	85ace0b7          	lui	ra,0x85ace
    d53c:	00d340b3          	xor	ra,t1,a3
    d540:	16f2c193          	xori	gp,t0,367
    d544:	0023c0b3          	xor	ra,t2,sp
    d548:	00d6e193          	ori	gp,a3,13
    d54c:	91110093          	addi	ra,sp,-1775 # 0xffffffffeb25f911
    d550:	0010c1b3          	xor	gp,ra,ra
    d554:	00030193          	mv	gp,t1
    d558:	7c618263          	beq	gp,t1,0xdd1c
    d55c:	001f0033          	add	zero,t5,ra
    d560:	f4d1b137          	lui	sp,0xf4d1b
    d564:	006341b3          	xor	gp,t1,t1
    d568:	9c414113          	xori	sp,sp,-1596
    d56c:	0070f2b3          	and	t0,ra,t2
    d570:	69f1c193          	xori	gp,gp,1695
    d574:	0ed3a097          	auipc	ra,0xed3a
    d578:	9a336113          	ori	sp,t1,-1629
    d57c:	c74b4097          	auipc	ra,0xc74b4
    d580:	38a1e213          	ori	tp,gp,906
    d584:	07e72137          	lui	sp,0x7e72
    d588:	b09f2197          	auipc	gp,0xb09f2
    d58c:	a480f113          	andi	sp,ra,-1464
    d590:	1ad68113          	addi	sp,a3,429 # 0xffffffffc5e1a1ad
    d594:	002081b3          	add	gp,ra,sp
    d598:	1d84c137          	lui	sp,0x1d84c
    d59c:	00216133          	or	sp,sp,sp
    d5a0:	c1d59117          	auipc	sp,0xc1d59
    d5a4:	8bd01117          	auipc	sp,0x8bd01
    d5a8:	403102b3          	sub	t0,sp,gp
    d5ac:	ce114093          	xori	ra,sp,-799
    d5b0:	9710f093          	andi	ra,ra,-1679
    d5b4:	c8db04b7          	lui	s1,0xc8db0
    d5b8:	e9937793          	andi	a5,t1,-359
    d5bc:	c040f493          	andi	s1,ra,-1020
    d5c0:	003083b3          	add	t2,ra,gp
    d5c4:	bd8350b7          	lui	ra,0xbd835
    d5c8:	45fab397          	auipc	t2,0x45fab
    d5cc:	c48cd0b7          	lui	ra,0xc48cd
    d5d0:	c8b1e193          	ori	gp,gp,-885
    d5d4:	0011f1b3          	and	gp,gp,ra
    d5d8:	0011f133          	and	sp,gp,ra
    d5dc:	9192e1b7          	lui	gp,0x9192e
    d5e0:	00000097          	auipc	ra,0x0
    d5e4:	24008067          	jr	576(ra) # 0xd820
    d5e8:	105b81b7          	lui	gp,0x105b8
    d5ec:	a16aa097          	auipc	ra,0xa16aa
    d5f0:	a8fa6337          	lui	t1,0xa8fa6
    d5f4:	40310533          	sub	a0,sp,gp
    d5f8:	e3bc4437          	lui	s0,0xe3bc4
    d5fc:	40608133          	sub	sp,ra,t1
    d600:	9f8301b7          	lui	gp,0x9f830
    d604:	7a065217          	auipc	tp,0x7a065
    d608:	e6d70097          	auipc	ra,0xe6d70
    d60c:	bfade1b7          	lui	gp,0xbfade
    d610:	d610c093          	xori	ra,ra,-671
    d614:	6ed1c193          	xori	gp,gp,1773
    d618:	0032f233          	and	tp,t0,gp
    d61c:	ffa12397          	auipc	t2,0xffa12
    d620:	0031ee33          	or	t3,gp,gp
    d624:	49b025b7          	lui	a1,0x49b02
    d628:	00110333          	add	t1,sp,ra
    d62c:	00310233          	add	tp,sp,gp
    d630:	5fa971b7          	lui	gp,0x5fa97
    d634:	006181b3          	add	gp,gp,t1
    d638:	0825f1b7          	lui	gp,0x825f
    d63c:	c120f193          	andi	gp,ra,-1006
    d640:	401687b3          	sub	a5,a3,ra
    d644:	73c44097          	auipc	ra,0x73c44
    d648:	8601f193          	andi	gp,gp,-1952
    d64c:	ea5702b7          	lui	t0,0xea570
    d650:	9ffef137          	lui	sp,0x9ffef
    d654:	003140b3          	xor	ra,sp,gp
    d658:	b5341197          	auipc	gp,0xb5341
    d65c:	f050c093          	xori	ra,ra,-251
    d660:	db4b6137          	lui	sp,0xdb4b6
    d664:	005061b3          	or	gp,zero,t0
    d668:	61728113          	addi	sp,t0,1559 # 0xffffffffea570617
    d66c:	21834113          	xori	sp,t1,536
    d670:	930edeb7          	lui	t4,0x930ed
    d674:	40318133          	sub	sp,gp,gp
    d678:	10728e63          	beq	t0,t2,0xd794
    d67c:	118002ef          	jal	t0,0xd794
    d680:	40108333          	sub	t1,ra,ra
    d684:	0eb411b7          	lui	gp,0xeb41
    d688:	df00c113          	xori	sp,ra,-528
    d68c:	77d17193          	andi	gp,sp,1917
    d690:	00318133          	add	sp,gp,gp
    d694:	0072e3b3          	or	t2,t0,t2
    d698:	96dd10b7          	lui	ra,0x96dd1
    d69c:	c9fbe137          	lui	sp,0xc9fbe
    d6a0:	4d5a5097          	auipc	ra,0x4d5a5
    d6a4:	e551a137          	lui	sp,0xe551a
    d6a8:	261bd137          	lui	sp,0x261bd
    d6ac:	aa334193          	xori	gp,t1,-1373
    d6b0:	00208233          	add	tp,ra,sp
    d6b4:	41fe4137          	lui	sp,0x41fe4
    d6b8:	1241c193          	xori	gp,gp,292
    d6bc:	0061f0b3          	and	ra,gp,t1
    d6c0:	00c2f133          	and	sp,t0,a2
    d6c4:	3fc5d4b7          	lui	s1,0x3fc5d
    d6c8:	838a11b7          	lui	gp,0x838a1
    d6cc:	8977b197          	auipc	gp,0x8977b
    d6d0:	0030c133          	xor	sp,ra,gp
    d6d4:	b1c72097          	auipc	ra,0xb1c72
    d6d8:	00717233          	and	tp,sp,t2
    d6dc:	0031f133          	and	sp,gp,gp
    d6e0:	4889b3b7          	lui	t2,0x4889b
    d6e4:	003081b3          	add	gp,ra,gp
    d6e8:	32427b93          	andi	s7,tp,804
    d6ec:	73b96097          	auipc	ra,0x73b96
    d6f0:	3ab88117          	auipc	sp,0x3ab88
    d6f4:	8ec753b7          	lui	t2,0x8ec75
    d6f8:	0030c0b3          	xor	ra,ra,gp
    d6fc:	0031e333          	or	t1,gp,gp
    d700:	cfeed017          	auipc	zero,0xcfeed
    d704:	ee4102e3          	beq	sp,tp,0xd5e8
    d708:	ee1ff0ef          	jal	ra,0xd5e8
    d70c:	88014093          	xori	ra,sp,-1920
    d710:	00b1c0b3          	xor	ra,gp,a1
    d714:	36f101b7          	lui	gp,0x36f10
    d718:	e203c193          	xori	gp,t2,-480
    d71c:	e39b9197          	auipc	gp,0xe39b9
    d720:	1debf137          	lui	sp,0x1debf
    d724:	306fb0b7          	lui	ra,0x306fb
    d728:	0000c1b3          	xor	gp,ra,zero
    d72c:	40328333          	sub	t1,t0,gp
    d730:	24138e97          	auipc	t4,0x24138
    d734:	00dfe1b3          	or	gp,t6,a3
    d738:	a2218193          	addi	gp,gp,-1502 # 0xffffffffe39c613e
    d73c:	3aee4097          	auipc	ra,0x3aee4
    d740:	4c06b097          	auipc	ra,0x4c06b
    d744:	8b3111b7          	lui	gp,0x8b311
    d748:	001142b3          	xor	t0,sp,ra
    d74c:	0583c113          	xori	sp,t2,88
    d750:	c1540337          	lui	t1,0xc1540
    d754:	002140b3          	xor	ra,sp,sp
    d758:	6a9d20b7          	lui	ra,0x6a9d2
    d75c:	8f8db097          	auipc	ra,0x8f8db
    d760:	fb614237          	lui	tp,0xfb614
    d764:	8b9a70b7          	lui	ra,0x8b9a7
    d768:	7d041137          	lui	sp,0x7d041
    d76c:	d19032b7          	lui	t0,0xd1903
    d770:	86d0c113          	xori	sp,ra,-1939
    d774:	0021f1b3          	and	gp,gp,sp
    d778:	0021f1b3          	and	gp,gp,sp
    d77c:	0060f0b3          	and	ra,ra,t1
    d780:	174231b7          	lui	gp,0x17423
    d784:	0f445097          	auipc	ra,0xf445
    d788:	0eec9037          	lui	zero,0xeec9
    d78c:	00018113          	mv	sp,gp
    d790:	dc3106e3          	beq	sp,gp,0xd55c
    d794:	40110133          	sub	sp,sp,ra
    d798:	00110033          	add	zero,sp,ra
    d79c:	3b816013          	ori	zero,sp,952
    d7a0:	470db2b7          	lui	t0,0x470db
    d7a4:	e93ae117          	auipc	sp,0xe93ae
    d7a8:	9f5d6097          	auipc	ra,0x9f5d6
    d7ac:	20e6c0b7          	lui	ra,0x20e6c
    d7b0:	00308133          	add	sp,ra,gp
    d7b4:	0131f1b3          	and	gp,gp,s3
    d7b8:	b25fb217          	auipc	tp,0xb25fb
    d7bc:	8080c113          	xori	sp,ra,-2040
    d7c0:	23630113          	addi	sp,t1,566 # 0xffffffffc1540236
    d7c4:	ddab9297          	auipc	t0,0xddab9
    d7c8:	fc6bb137          	lui	sp,0xfc6bb
    d7cc:	2273e697          	auipc	a3,0x2273e
    d7d0:	401103b3          	sub	t2,sp,ra
    d7d4:	f17ba237          	lui	tp,0xf17ba
    d7d8:	9f27f197          	auipc	gp,0x9f27f
    d7dc:	b7bf5917          	auipc	s2,0xb7bf5
    d7e0:	003102b3          	add	t0,sp,gp
    d7e4:	4b37e137          	lui	sp,0x4b37e
    d7e8:	0010c133          	xor	sp,ra,ra
    d7ec:	61c1e093          	ori	ra,gp,1564
    d7f0:	e4133137          	lui	sp,0xe4133
    d7f4:	d3256197          	auipc	gp,0xd3256
    d7f8:	9d018213          	addi	tp,gp,-1584 # 0xffffffffd32631c4
    d7fc:	1058e117          	auipc	sp,0x1058e
    d800:	48290197          	auipc	gp,0x48290
    d804:	6dba5297          	auipc	t0,0x6dba5
    d808:	820a8097          	auipc	ra,0x820a8
    d80c:	00b0f0b3          	and	ra,ra,a1
    d810:	f850c313          	xori	t1,ra,-123
    d814:	3d20f113          	andi	sp,ra,978
    d818:	60128e63          	beq	t0,ra,0xde34
    d81c:	618000ef          	jal	ra,0xde34
    d820:	001180b3          	add	ra,gp,ra
    d824:	0011c133          	xor	sp,gp,ra
    d828:	36d36037          	lui	zero,0x36d36
    d82c:	69953e37          	lui	t3,0x69953
    d830:	822e4097          	auipc	ra,0x822e4
    d834:	edc8f0b7          	lui	ra,0xedc8f
    d838:	085d60b7          	lui	ra,0x85d6
    d83c:	89c0e313          	ori	t1,ra,-1892
    d840:	7b410113          	addi	sp,sp,1972 # 0x1059bfb0
    d844:	0071f233          	and	tp,gp,t2
    d848:	1261e197          	auipc	gp,0x1261e
    d84c:	f6a10093          	addi	ra,sp,-150
    d850:	003260b3          	or	ra,tp,gp
    d854:	0011f2b3          	and	t0,gp,ra
    d858:	c13ea0b7          	lui	ra,0xc13ea
    d85c:	2f704313          	xori	t1,zero,759
    d860:	0a9151b7          	lui	gp,0xa915
    d864:	fc010397          	auipc	t2,0xfc010
    d868:	76287197          	auipc	gp,0x76287
    d86c:	1e09f097          	auipc	ra,0x1e09f
    d870:	0011c1b3          	xor	gp,gp,ra
    d874:	05c140b7          	lui	ra,0x5c14
    d878:	54e18193          	addi	gp,gp,1358 # 0x76294db6
    d87c:	00178033          	add	zero,a5,ra
    d880:	ebb0c237          	lui	tp,0xebb0c
    d884:	3aefd317          	auipc	t1,0x3aefd
    d888:	32d30093          	addi	ra,t1,813 # 0x3af0abb1
    d88c:	6f114113          	xori	sp,sp,1777
    d890:	4891f113          	andi	sp,gp,1161
    d894:	001170b3          	and	ra,sp,ra
    d898:	6d6aea93          	ori	s5,s5,1750
    d89c:	375d4197          	auipc	gp,0x375d4
    d8a0:	0011e1b3          	or	gp,gp,ra
    d8a4:	561c1137          	lui	sp,0x561c1
    d8a8:	000e8713          	mv	a4,t4
    d8ac:	01d70263          	beq	a4,t4,0xd8b0
    d8b0:	5a5d40b7          	lui	ra,0x5a5d4
    d8b4:	0041f133          	and	sp,gp,tp
    d8b8:	e772d197          	auipc	gp,0xe772d
    d8bc:	7fd14193          	xori	gp,sp,2045
    d8c0:	14d551b7          	lui	gp,0x14d55
    d8c4:	0021f0b3          	and	ra,gp,sp
    d8c8:	8be780b7          	lui	ra,0x8be78
    d8cc:	4bee0197          	auipc	gp,0x4bee0
    d8d0:	40518213          	addi	tp,gp,1029 # 0x4beedcd1
    d8d4:	fbd0e193          	ori	gp,ra,-67
    d8d8:	d30d6397          	auipc	t2,0xd30d6
    d8dc:	4a6921b7          	lui	gp,0x4a692
    d8e0:	a1e07693          	andi	a3,zero,-1506
    d8e4:	8bc51217          	auipc	tp,0x8bc51
    d8e8:	5fc04093          	xori	ra,zero,1532
    d8ec:	00427133          	and	sp,tp,tp
    d8f0:	0c29a4b7          	lui	s1,0xc29a
    d8f4:	1ad1f093          	andi	ra,gp,429
    d8f8:	72d640b7          	lui	ra,0x72d64
    d8fc:	e4e76197          	auipc	gp,0xe4e76
    d900:	69e131b7          	lui	gp,0x69e13
    d904:	da076337          	lui	t1,0xda076
    d908:	c831d197          	auipc	gp,0xc831d
    d90c:	3af9e1b7          	lui	gp,0x3af9e
    d910:	3e044197          	auipc	gp,0x3e044
    d914:	7c4ec097          	auipc	ra,0x7c4ec
    d918:	aa2308e3          	beq	t1,sp,0xd3c8
    d91c:	aadff16f          	jal	sp,0xd3c8
    d920:	e6854337          	lui	t1,0xe6854
    d924:	20f9e137          	lui	sp,0x20f9e
    d928:	0011c0b3          	xor	ra,gp,ra
    d92c:	ce9da1b7          	lui	gp,0xce9da
    d930:	b003d1b7          	lui	gp,0xb003d
    d934:	0010c1b3          	xor	gp,ra,ra
    d938:	40618333          	sub	t1,gp,t1
    d93c:	003080b3          	add	ra,ra,gp
    d940:	41d180b3          	sub	ra,gp,t4
    d944:	ee877197          	auipc	gp,0xee877
    d948:	9641e093          	ori	ra,gp,-1692
    d94c:	42c0f293          	andi	t0,ra,1068
    d950:	2ce10093          	addi	ra,sp,718 # 0x20f9e2ce
    d954:	00210133          	add	sp,sp,sp
    d958:	9d361137          	lui	sp,0x9d361
    d95c:	00336033          	or	zero,t1,gp
    d960:	1e710193          	addi	gp,sp,487 # 0xffffffff9d3611e7
    d964:	e34fe137          	lui	sp,0xe34fe
    d968:	1666f0b7          	lui	ra,0x1666f
    d96c:	0031c1b3          	xor	gp,gp,gp
    d970:	09056297          	auipc	t0,0x9056
    d974:	cdc66237          	lui	tp,0xcdc66
    d978:	85f0b137          	lui	sp,0x85f0b
    d97c:	2633e397          	auipc	t2,0x2633e
    d980:	78309197          	auipc	gp,0x78309
    d984:	1afd7137          	lui	sp,0x1afd7
    d988:	0f71e197          	auipc	gp,0xf71e
    d98c:	3c60e197          	auipc	gp,0x3c60e
    d990:	221ad1b7          	lui	gp,0x221ad
    d994:	6e210113          	addi	sp,sp,1762 # 0x1afd76e2
    d998:	e400f193          	andi	gp,ra,-448
    d99c:	761497b7          	lui	a5,0x76149
    d9a0:	6d14f0b7          	lui	ra,0x6d14f
    d9a4:	b2118ae3          	beq	gp,ra,0xd4d8
    d9a8:	b31ff16f          	jal	sp,0xd4d8
    d9ac:	00316133          	or	sp,sp,gp
    d9b0:	e7f62197          	auipc	gp,0xe7f62
    d9b4:	e5817093          	andi	ra,sp,-424
    d9b8:	e8c37013          	andi	zero,t1,-372
    d9bc:	0031c6b3          	xor	a3,gp,gp
    d9c0:	de56c113          	xori	sp,a3,-539
    d9c4:	40108133          	sub	sp,ra,ra
    d9c8:	812240b7          	lui	ra,0x81224
    d9cc:	3dddc6b7          	lui	a3,0x3dddc
    d9d0:	8be6d1b7          	lui	gp,0x8be6d
    d9d4:	3e4762b7          	lui	t0,0x3e476
    d9d8:	44b1e393          	ori	t2,gp,1099
    d9dc:	0000c333          	xor	t1,ra,zero
    d9e0:	646c8097          	auipc	ra,0x646c8
    d9e4:	5e318093          	addi	ra,gp,1507 # 0xffffffff8be6d5e3
    d9e8:	8e3ed0b7          	lui	ra,0x8e3ed
    d9ec:	0c917593          	andi	a1,sp,201
    d9f0:	6034c193          	xori	gp,s1,1539
    d9f4:	004100b3          	add	ra,sp,tp
    d9f8:	c4ba20b7          	lui	ra,0xc4ba2
    d9fc:	b22c9137          	lui	sp,0xb22c9
    da00:	a64aa1b7          	lui	gp,0xa64aa
    da04:	0eb1e093          	ori	ra,gp,235
    da08:	c55b5097          	auipc	ra,0xc55b5
    da0c:	785661b7          	lui	gp,0x78566
    da10:	82216993          	ori	s3,sp,-2014
    da14:	25734197          	auipc	gp,0x25734
    da18:	0020e1b3          	or	gp,ra,sp
    da1c:	202291b7          	lui	gp,0x20229
    da20:	0001e033          	or	zero,gp,zero
    da24:	402201b3          	sub	gp,tp,sp
    da28:	ddae62b7          	lui	t0,0xddae6
    da2c:	3431f393          	andi	t2,gp,835
    da30:	9f5d5637          	lui	a2,0x9f5d5
    da34:	cfb1fa13          	andi	s4,gp,-773
    da38:	0021c1b3          	xor	gp,gp,sp
    da3c:	0020f0b3          	and	ra,ra,sp
    da40:	e83a11b7          	lui	gp,0xe83a1
    da44:	1a400e63          	beq	zero,tp,0xdc00
    da48:	1b80006f          	j	0xdc00
    da4c:	4731b097          	auipc	ra,0x4731b
    da50:	869fb0b7          	lui	ra,0x869fb
    da54:	4ae16293          	ori	t0,sp,1198
    da58:	00717133          	and	sp,sp,t2
    da5c:	0061c0b3          	xor	ra,gp,t1
    da60:	e5410193          	addi	gp,sp,-428 # 0xffffffffb22c8e54
    da64:	401101b3          	sub	gp,sp,ra
    da68:	bbd17037          	lui	zero,0xbbd17
    da6c:	a065ff13          	andi	t5,a1,-1530
    da70:	005141b3          	xor	gp,sp,t0
    da74:	df116113          	ori	sp,sp,-527
    da78:	8bd1c113          	xori	sp,gp,-1859
    da7c:	18f0c097          	auipc	ra,0x18f0c
    da80:	00318333          	add	t1,gp,gp
    da84:	405181b3          	sub	gp,gp,t0
    da88:	405101b3          	sub	gp,sp,t0
    da8c:	00916133          	or	sp,sp,s1
    da90:	401080b3          	sub	ra,ra,ra
    da94:	00214133          	xor	sp,sp,sp
    da98:	004c81b3          	add	gp,s9,tp
    da9c:	c670f193          	andi	gp,ra,-921
    daa0:	0010f2b3          	and	t0,ra,ra
    daa4:	002180b3          	add	ra,gp,sp
    daa8:	0013f1b3          	and	gp,t2,ra
    daac:	d713c113          	xori	sp,t2,-655
    dab0:	0011c4b3          	xor	s1,gp,ra
    dab4:	f8ec0097          	auipc	ra,0xf8ec0
    dab8:	b32080b7          	lui	ra,0xb3208
    dabc:	8c5da197          	auipc	gp,0x8c5da
    dac0:	8ced0137          	lui	sp,0x8ced0
    dac4:	a34e8137          	lui	sp,0xa34e8
    dac8:	680db0b7          	lui	ra,0x680db
    dacc:	acb16093          	ori	ra,sp,-1333
    dad0:	beaab1b7          	lui	gp,0xbeaab
    dad4:	19a2b237          	lui	tp,0x19a2b
    dad8:	c289f2b7          	lui	t0,0xc289f
    dadc:	315681b7          	lui	gp,0x31568
    dae0:	ec2186e3          	beq	gp,sp,0xd9ac
    dae4:	ec9ff0ef          	jal	ra,0xd9ac
    dae8:	343eeb97          	auipc	s7,0x343ee
    daec:	52b0c093          	xori	ra,ra,1323
    daf0:	8fa2f193          	andi	gp,t0,-1798
    daf4:	000680b3          	add	ra,a3,zero
    daf8:	df8cd0b7          	lui	ra,0xdf8cd
    dafc:	dc414113          	xori	sp,sp,-572
    db00:	27254237          	lui	tp,0x27254
    db04:	40308333          	sub	t1,ra,gp
    db08:	002180b3          	add	ra,gp,sp
    db0c:	4e413097          	auipc	ra,0x4e413
    db10:	cae04113          	xori	sp,zero,-850
    db14:	9820f193          	andi	gp,ra,-1662
    db18:	f8518113          	addi	sp,gp,-123 # 0x31567f85
    db1c:	a433c117          	auipc	sp,0xa433c
    db20:	6195e117          	auipc	sp,0x6195e
    db24:	83c08013          	addi	zero,ra,-1988 # 0x4e420348
    db28:	00138233          	add	tp,t2,ra
    db2c:	47b41197          	auipc	gp,0x47b41
    db30:	8f038097          	auipc	ra,0x8f038
    db34:	45514113          	xori	sp,sp,1109
    db38:	002171b3          	and	gp,sp,sp
    db3c:	0021cc33          	xor	s8,gp,sp
    db40:	051b8137          	lui	sp,0x51b8
    db44:	0021f3b3          	and	t2,gp,sp
    db48:	a4c19197          	auipc	gp,0xa4c19
    db4c:	14422497          	auipc	s1,0x14422
    db50:	003170b3          	and	ra,sp,gp
    db54:	000160b3          	or	ra,sp,zero
    db58:	407180b3          	sub	ra,gp,t2
    db5c:	bb53d0b7          	lui	ra,0xbb53d
    db60:	3d42e117          	auipc	sp,0x3d42e
    db64:	a45a2b37          	lui	s6,0xa45a2
    db68:	0cd84097          	auipc	ra,0xcd84
    db6c:	00010193          	mv	gp,sp
    db70:	8e2182e3          	beq	gp,sp,0xd454
    db74:	90ce3017          	auipc	zero,0x90ce3
    db78:	00908333          	add	t1,ra,s1
    db7c:	5b52c113          	xori	sp,t0,1461
    db80:	003140b3          	xor	ra,sp,gp
    db84:	7b006213          	ori	tp,zero,1968
    db88:	8330b037          	lui	zero,0x8330b
    db8c:	a283c137          	lui	sp,0xa283c
    db90:	8105c1b7          	lui	gp,0x8105c
    db94:	cc1700b7          	lui	ra,0xcc170
    db98:	b6b08193          	addi	gp,ra,-1173 # 0xffffffffcc16fb6b
    db9c:	1c40f093          	andi	ra,ra,452
    dba0:	3a814193          	xori	gp,sp,936
    dba4:	cf3b51b7          	lui	gp,0xcf3b5
    dba8:	8fcb6237          	lui	tp,0x8fcb6
    dbac:	fbebb197          	auipc	gp,0xfbebb
    dbb0:	0af24197          	auipc	gp,0xaf24
    dbb4:	001183b3          	add	t2,gp,ra
    dbb8:	dd934093          	xori	ra,t1,-551
    dbbc:	74981097          	auipc	ra,0x74981
    dbc0:	4db38117          	auipc	sp,0x4db38
    dbc4:	fb9714b7          	lui	s1,0xfb971
    dbc8:	d2fb0213          	addi	tp,s6,-721 # 0xffffffffa45a1d2f
    dbcc:	a607f137          	lui	sp,0xa607f
    dbd0:	05a0e113          	ori	sp,ra,90
    dbd4:	75a0e193          	ori	gp,ra,1882
    dbd8:	abe18137          	lui	sp,0xabe18
    dbdc:	542ba3b7          	lui	t2,0x542ba
    dbe0:	0ada46b7          	lui	a3,0xada4
    dbe4:	00200133          	add	sp,zero,sp
    dbe8:	40108033          	sub	zero,ra,ra
    dbec:	01c161b3          	or	gp,sp,t3
    dbf0:	005080b3          	add	ra,ra,t0
    dbf4:	66a821b7          	lui	gp,0x66a82
    dbf8:	1a110c63          	beq	sp,ra,0xddb0
    dbfc:	1b40016f          	jal	sp,0xddb0
    dc00:	2f808893          	addi	a7,ra,760 # 0x7498eeb4
    dc04:	00327333          	and	t1,tp,gp
    dc08:	9d433137          	lui	sp,0x9d433
    dc0c:	d34860b7          	lui	ra,0xd3486
    dc10:	402480b3          	sub	ra,s1,sp
    dc14:	77458197          	auipc	gp,0x77458
    dc18:	11404193          	xori	gp,zero,276
    dc1c:	3d336413          	ori	s0,t1,979
    dc20:	82648097          	auipc	ra,0x82648
    dc24:	f0a731b7          	lui	gp,0xf0a73
    dc28:	0071c1b3          	xor	gp,gp,t2
    dc2c:	5d8b90b7          	lui	ra,0x5d8b9
    dc30:	c9b9c6b7          	lui	a3,0xc9b9c
    dc34:	63619137          	lui	sp,0x63619
    dc38:	8e58a097          	auipc	ra,0x8e58a
    dc3c:	576a6b17          	auipc	s6,0x576a6
    dc40:	43f18093          	addi	ra,gp,1087 # 0xfffffffff0a7343f
    dc44:	0020e0b3          	or	ra,ra,sp
    dc48:	40118133          	sub	sp,gp,ra
    dc4c:	40208133          	sub	sp,ra,sp
    dc50:	2860c897          	auipc	a7,0x2860c
    dc54:	6fc68097          	auipc	ra,0x6fc68
    dc58:	4034c093          	xori	ra,s1,1027
    dc5c:	3b518213          	addi	tp,gp,949
    dc60:	b34a9317          	auipc	t1,0xb34a9
    dc64:	00138233          	add	tp,t2,ra
    dc68:	dc8a3237          	lui	tp,0xdc8a3
    dc6c:	128ea137          	lui	sp,0x128ea
    dc70:	acd84197          	auipc	gp,0xacd84
    dc74:	06552137          	lui	sp,0x6552
    dc78:	bda0b317          	auipc	t1,0xbda0b
    dc7c:	0031c1b3          	xor	gp,gp,gp
    dc80:	ac7040b7          	lui	ra,0xac704
    dc84:	9d8d0097          	auipc	ra,0x9d8d0
    dc88:	003300b3          	add	ra,t1,gp
    dc8c:	00000197          	auipc	gp,0x0
    dc90:	ee8181e7          	jalr	gp,-280(gp) # 0xdb74
    dc94:	b9ba2017          	auipc	zero,0xb9ba2
    dc98:	a110e113          	ori	sp,ra,-1519
    dc9c:	65e3c337          	lui	t1,0x65e3c
    dca0:	a0a17113          	andi	sp,sp,-1526
    dca4:	402180b3          	sub	ra,gp,sp
    dca8:	11d52117          	auipc	sp,0x11d52
    dcac:	0e1721b7          	lui	gp,0xe172
    dcb0:	400300b3          	sub	ra,t1,zero
    dcb4:	76e00317          	auipc	t1,0x76e00
    dcb8:	5633f093          	andi	ra,t2,1379
    dcbc:	9ee6e1b7          	lui	gp,0x9ee6e
    dcc0:	3d21e113          	ori	sp,gp,978
    dcc4:	ed944f17          	auipc	t5,0xed944
    dcc8:	18cf61b7          	lui	gp,0x18cf6
    dccc:	00214233          	xor	tp,sp,sp
    dcd0:	54f04093          	xori	ra,zero,1359
    dcd4:	4272f113          	andi	sp,t0,1063
    dcd8:	001080b3          	add	ra,ra,ra
    dcdc:	0141f1b3          	and	gp,gp,s4
    dce0:	e8ee7097          	auipc	ra,0xe8ee7
    dce4:	0021f3b3          	and	t2,gp,sp
    dce8:	07a0c113          	xori	sp,ra,122
    dcec:	0e01b337          	lui	t1,0xe01b
    dcf0:	aab17197          	auipc	gp,0xaab17
    dcf4:	40d081b3          	sub	gp,ra,a3
    dcf8:	841bd137          	lui	sp,0x841bd
    dcfc:	29787097          	auipc	ra,0x29787
    dd00:	e0b97197          	auipc	gp,0xe0b97
    dd04:	750c4097          	auipc	ra,0x750c4
    dd08:	27be11b7          	lui	gp,0x27be1
    dd0c:	efc0f313          	andi	t1,ra,-260
    dd10:	2dd1d197          	auipc	gp,0x2dd1d
    dd14:	00018113          	mv	sp,gp
    dd18:	4e310863          	beq	sp,gp,0xe208
    dd1c:	b99051b7          	lui	gp,0xb9905
    dd20:	3d916193          	ori	gp,sp,985
    dd24:	40208033          	sub	zero,ra,sp
    dd28:	0220c193          	xori	gp,ra,34
    dd2c:	1a140037          	lui	zero,0x1a140
    dd30:	0030e0b3          	or	ra,ra,gp
    dd34:	402281b3          	sub	gp,t0,sp
    dd38:	1df1e213          	ori	tp,gp,479
    dd3c:	0061f233          	and	tp,gp,t1
    dd40:	466670b7          	lui	ra,0x46667
    dd44:	b4048397          	auipc	t2,0xb4048
    dd48:	403080b3          	sub	ra,ra,gp
    dd4c:	3fc190b7          	lui	ra,0x3fc19
    dd50:	f5b00093          	li	ra,-165
    dd54:	210893b7          	lui	t2,0x21089
    dd58:	d334e313          	ori	t1,s1,-717
    dd5c:	0dee6197          	auipc	gp,0xdee6
    dd60:	a8a2f397          	auipc	t2,0xa8a2f
    dd64:	46a5e1b7          	lui	gp,0x46a5e
    dd68:	18b7e193          	ori	gp,a5,395
    dd6c:	001101b3          	add	gp,sp,ra
    dd70:	51014697          	auipc	a3,0x51014
    dd74:	d620f093          	andi	ra,ra,-670
    dd78:	3c849097          	auipc	ra,0x3c849
    dd7c:	bad690b7          	lui	ra,0xbad69
    dd80:	a0c880b7          	lui	ra,0xa0c88
    dd84:	003101b3          	add	gp,sp,gp
    dd88:	a016b117          	auipc	sp,0xa016b
    dd8c:	0030e0b3          	or	ra,ra,gp
    dd90:	403100b3          	sub	ra,sp,gp
    dd94:	17b873b7          	lui	t2,0x17b87
    dd98:	003160b3          	or	ra,sp,gp
    dd9c:	7be37193          	andi	gp,t1,1982
    dda0:	007181b3          	add	gp,gp,t2
    dda4:	ba128113          	addi	sp,t0,-1119 # 0xffffffffc289eba1
    dda8:	8c320ce3          	beq	tp,gp,0xd680
    ddac:	8d5ff06f          	j	0xd680
    ddb0:	1075c197          	auipc	gp,0x1075c
    ddb4:	00f081b3          	add	gp,ra,a5
    ddb8:	7b22c113          	xori	sp,t0,1970
    ddbc:	90094337          	lui	t1,0x90094
    ddc0:	b0718213          	addi	tp,gp,-1273 # 0x107698b7
    ddc4:	871e4e97          	auipc	t4,0x871e4
    ddc8:	58e2f197          	auipc	gp,0x58e2f
    ddcc:	17dcc197          	auipc	gp,0x17dcc
    ddd0:	715cd0b7          	lui	ra,0x715cd
    ddd4:	da900193          	li	gp,-599
    ddd8:	0020c133          	xor	sp,ra,sp
    dddc:	a3df61b7          	lui	gp,0xa3df6
    dde0:	04a550b7          	lui	ra,0x4a55
    dde4:	8783e113          	ori	sp,t2,-1928
    dde8:	d9317113          	andi	sp,sp,-621
    ddec:	1ff4c137          	lui	sp,0x1ff4c
    ddf0:	2e391c97          	auipc	s9,0x2e391
    ddf4:	0041c133          	xor	sp,gp,tp
    ddf8:	b472f693          	andi	a3,t0,-1209
    ddfc:	5880c193          	xori	gp,ra,1416
    de00:	d5645337          	lui	t1,0xd5645
    de04:	ce128113          	addi	sp,t0,-799
    de08:	7cd991b7          	lui	gp,0x7cd99
    de0c:	00328133          	add	sp,t0,gp
    de10:	b62fb017          	auipc	zero,0xb62fb
    de14:	93acd097          	auipc	ra,0x93acd
    de18:	6a8a9097          	auipc	ra,0x6a8a9
    de1c:	401081b3          	sub	gp,ra,ra
    de20:	c1287297          	auipc	t0,0xc1287
    de24:	1ecc1117          	auipc	sp,0x1ecc1
    de28:	44b5f797          	auipc	a5,0x44b5f
    de2c:	00008193          	mv	gp,ra
    de30:	ae1188e3          	beq	gp,ra,0xd920
    de34:	002080b3          	add	ra,ra,sp
    de38:	5be2d097          	auipc	ra,0x5be2d
    de3c:	46e6b317          	auipc	t1,0x46e6b
    de40:	e8c1e137          	lui	sp,0xe8c1e
    de44:	2649b037          	lui	zero,0x2649b
    de48:	91f1e893          	ori	a7,gp,-1761
    de4c:	00b101b3          	add	gp,sp,a1
    de50:	19e14193          	xori	gp,sp,414
    de54:	3f2b9337          	lui	t1,0x3f2b9
    de58:	0030c033          	xor	zero,ra,gp
    de5c:	403101b3          	sub	gp,sp,gp
    de60:	e6a04313          	xori	t1,zero,-406
    de64:	0030c3b3          	xor	t2,ra,gp
    de68:	cac27113          	andi	sp,tp,-852
    de6c:	7c608193          	addi	gp,ra,1990 # 0x5be3b5fe
    de70:	825fc1b7          	lui	gp,0x825fc
    de74:	77df1137          	lui	sp,0x77df1
    de78:	7d817193          	andi	gp,sp,2008
    de7c:	30a16b13          	ori	s6,sp,778
    de80:	99716693          	ori	a3,sp,-1641
    de84:	4ce28197          	auipc	gp,0x4ce28
    de88:	13208113          	addi	sp,ra,306
    de8c:	87018393          	addi	t2,gp,-1936 # 0x4ce356f4
    de90:	606fa097          	auipc	ra,0x606fa
    de94:	5d67d137          	lui	sp,0x5d67d
    de98:	774a1117          	auipc	sp,0x774a1
    de9c:	7dd355b7          	lui	a1,0x7dd35
    dea0:	0210b0b7          	lui	ra,0x210b
    dea4:	0a4e0197          	auipc	gp,0xa4e0
    dea8:	52e16593          	ori	a1,sp,1326
    deac:	00000097          	auipc	ra,0x0
    deb0:	c3c08267          	jalr	tp,-964(ra) # 0xdae8
    deb4:	353c8113          	addi	sp,s9,851 # 0x2e39f143
    deb8:	00314133          	xor	sp,sp,gp
    debc:	a635d117          	auipc	sp,0xa635d
    dec0:	19783097          	auipc	ra,0x19783
    dec4:	a652f113          	andi	sp,t0,-1435
    dec8:	fb586297          	auipc	t0,0xfb586
    decc:	001241b3          	xor	gp,tp,ra
    ded0:	a118b3b7          	lui	t2,0xa118b
    ded4:	003102b3          	add	t0,sp,gp
    ded8:	d59ab0b7          	lui	ra,0xd59ab
    dedc:	4badc197          	auipc	gp,0x4badc
    dee0:	874ac497          	auipc	s1,0x874ac
    dee4:	40a100b3          	sub	ra,sp,a0
    dee8:	efd6fd17          	auipc	s10,0xefd6f
    deec:	06a240b7          	lui	ra,0x6a24
    def0:	b23b23b7          	lui	t2,0xb23b2
    def4:	9d327213          	andi	tp,tp,-1581
    def8:	001e7533          	and	a0,t3,ra
    defc:	0021c233          	xor	tp,gp,sp
    df00:	0010c1b3          	xor	gp,ra,ra
    df04:	00008133          	add	sp,ra,zero
    df08:	644d9097          	auipc	ra,0x644d9
    df0c:	25c17393          	andi	t2,sp,604
    df10:	005180b3          	add	ra,gp,t0
    df14:	0440f213          	andi	tp,ra,68
    df18:	24629097          	auipc	ra,0x24629
    df1c:	d0208113          	addi	sp,ra,-766 # 0x24636c1a
    df20:	09e93097          	auipc	ra,0x9e93
    df24:	007141b3          	xor	gp,sp,t2
    df28:	3d215037          	lui	zero,0x3d215
    df2c:	004161b3          	or	gp,sp,tp
    df30:	6ad0e093          	ori	ra,ra,1709
    df34:	6e138063          	beq	t2,ra,0xe614
    df38:	6dc001ef          	jal	gp,0xe614
    df3c:	27318093          	addi	ra,gp,627 # 0x4baea14f
    df40:	ac402097          	auipc	ra,0xac402
    df44:	50a1e113          	ori	sp,gp,1290
    df48:	7eb4a137          	lui	sp,0x7eb4a
    df4c:	0030f333          	and	t1,ra,gp
    df50:	af1c3117          	auipc	sp,0xaf1c3
    df54:	bfe57397          	auipc	t2,0xbfe57
    df58:	619f1117          	auipc	sp,0x619f1
    df5c:	28ae1137          	lui	sp,0x28ae1
    df60:	7590e197          	auipc	gp,0x7590e
    df64:	0010f0b3          	and	ra,ra,ra
    df68:	000580b3          	add	ra,a1,zero
    df6c:	0011e3b3          	or	t2,gp,ra
    df70:	3ed991b7          	lui	gp,0x3ed99
    df74:	e2843cb7          	lui	s9,0xe2843
    df78:	001161b3          	or	gp,sp,ra
    df7c:	e050c113          	xori	sp,ra,-507
    df80:	9adad0b7          	lui	ra,0x9adad
    df84:	32980197          	auipc	gp,0x32980
    df88:	806f5137          	lui	sp,0x806f5
    df8c:	1541e093          	ori	ra,gp,340
    df90:	01d1f1b3          	and	gp,gp,t4
    df94:	401081b3          	sub	gp,ra,ra
    df98:	63c10113          	addi	sp,sp,1596 # 0xffffffff806f563c
    df9c:	d4f00117          	auipc	sp,0xd4f00
    dfa0:	fecdf297          	auipc	t0,0xfecdf
    dfa4:	00e1cb33          	xor	s6,gp,a4
    dfa8:	003d71b3          	and	gp,s10,gp
    dfac:	00337233          	and	tp,t1,gp
    dfb0:	8f9d2297          	auipc	t0,0x8f9d2
    dfb4:	0039e0b3          	or	ra,s3,gp
    dfb8:	002301b3          	add	gp,t1,sp
    dfbc:	407100b3          	sub	ra,sp,t2
    dfc0:	003141b3          	xor	gp,sp,gp
    dfc4:	4fa86137          	lui	sp,0x4fa86
    dfc8:	0031e1b3          	or	gp,gp,gp
    dfcc:	00018893          	mv	a7,gp
    dfd0:	2c388263          	beq	a7,gp,0xe294
    dfd4:	507bf297          	auipc	t0,0x507bf
    dfd8:	001080b3          	add	ra,ra,ra
    dfdc:	8b50c113          	xori	sp,ra,-1867
    dfe0:	f351f093          	andi	ra,gp,-203
    dfe4:	003181b3          	add	gp,gp,gp
    dfe8:	a584c197          	auipc	gp,0xa584c
    dfec:	0021e033          	or	zero,gp,sp
    dff0:	0021c033          	xor	zero,gp,sp
    dff4:	c5e63197          	auipc	gp,0xc5e63
    dff8:	0031e033          	or	zero,gp,gp
    dffc:	c7e112b7          	lui	t0,0xc7e11
    e000:	7d44a117          	auipc	sp,0x7d44a
    e004:	38933397          	auipc	t2,0x38933
    e008:	7db14593          	xori	a1,sp,2011
    e00c:	0fc6d197          	auipc	gp,0xfc6d
    e010:	e125a097          	auipc	ra,0xe125a
    e014:	003263b3          	or	t2,tp,gp
    e018:	40710233          	sub	tp,sp,t2
    e01c:	989160b7          	lui	ra,0x98916
    e020:	53a9e1b7          	lui	gp,0x53a9e
    e024:	9ff42197          	auipc	gp,0x9ff42
    e028:	ebff6197          	auipc	gp,0xebff6
    e02c:	40200133          	neg	sp,sp
    e030:	003140b3          	xor	ra,sp,gp
    e034:	0061c1b3          	xor	gp,gp,t1
    e038:	7e446017          	auipc	zero,0x7e446
    e03c:	2d32f093          	andi	ra,t0,723
    e040:	8321c093          	xori	ra,gp,-1998
    e044:	82ac5197          	auipc	gp,0x82ac5
    e048:	6ae08113          	addi	sp,ra,1710 # 0xffffffff989166ae
    e04c:	9d70f093          	andi	ra,ra,-1577
    e050:	708ce037          	lui	zero,0x708ce
    e054:	1aff5197          	auipc	gp,0x1aff5
    e058:	fc21e113          	ori	sp,gp,-62
    e05c:	12328663          	beq	t0,gp,0xe188
    e060:	128000ef          	jal	ra,0xe188
    e064:	78717113          	andi	sp,sp,1927
    e068:	a8471097          	auipc	ra,0xa8471
    e06c:	003241b3          	xor	gp,tp,gp
    e070:	24300593          	li	a1,579
    e074:	d1710013          	addi	zero,sp,-745 # 0x7d457d17
    e078:	0041c1b3          	xor	gp,gp,tp
    e07c:	9e210093          	addi	ra,sp,-1566
    e080:	41e080b3          	sub	ra,ra,t5
    e084:	be617293          	andi	t0,sp,-1050
    e088:	0071f133          	and	sp,gp,t2
    e08c:	002000b3          	add	ra,zero,sp
    e090:	002142b3          	xor	t0,sp,sp
    e094:	001281b3          	add	gp,t0,ra
    e098:	00d140b3          	xor	ra,sp,a3
    e09c:	0030e133          	or	sp,ra,gp
    e0a0:	405100b3          	sub	ra,sp,t0
    e0a4:	bd3e1817          	auipc	a6,0xbd3e1
    e0a8:	41e0f113          	andi	sp,ra,1054
    e0ac:	ebec6197          	auipc	gp,0xebec6
    e0b0:	4fd00093          	li	ra,1277
    e0b4:	00124333          	xor	t1,tp,ra
    e0b8:	344e90b7          	lui	ra,0x344e9
    e0bc:	18438213          	addi	tp,t2,388 # 0x38941188
    e0c0:	003de1b3          	or	gp,s11,gp
    e0c4:	31551297          	auipc	t0,0x31551
    e0c8:	403081b3          	sub	gp,ra,gp
    e0cc:	591f11b7          	lui	gp,0x591f1
    e0d0:	a10270b7          	lui	ra,0xa1027
    e0d4:	3cc8e393          	ori	t2,a7,972
    e0d8:	f8588397          	auipc	t2,0xf8588
    e0dc:	78b04e13          	xori	t3,zero,1931
    e0e0:	efdff137          	lui	sp,0xefdff
    e0e4:	21f08193          	addi	gp,ra,543 # 0xffffffffa102721f
    e0e8:	1e72c197          	auipc	gp,0x1e72c
    e0ec:	00000117          	auipc	sp,0x0
    e0f0:	36410167          	jalr	sp,868(sp) # 0xe450
    e0f4:	0031c233          	xor	tp,gp,gp
    e0f8:	f6006a13          	ori	s4,zero,-160
    e0fc:	2e7e61b7          	lui	gp,0x2e7e6
    e100:	40710133          	sub	sp,sp,t2
    e104:	c4e25017          	auipc	zero,0xc4e25
    e108:	0071e133          	or	sp,gp,t2
    e10c:	26026093          	ori	ra,tp,608
    e110:	41b8fa17          	auipc	s4,0x41b8f
    e114:	40108333          	sub	t1,ra,ra
    e118:	f6927117          	auipc	sp,0xf6927
    e11c:	2fde0797          	auipc	a5,0x2fde0
    e120:	00018133          	add	sp,gp,zero
    e124:	002141b3          	xor	gp,sp,sp
    e128:	0012e133          	or	sp,t0,ra
    e12c:	00334233          	xor	tp,t1,gp
    e130:	403100b3          	sub	ra,sp,gp
    e134:	0cf14093          	xori	ra,sp,207
    e138:	9f924797          	auipc	a5,0x9f924
    e13c:	f674b117          	auipc	sp,0xf674b
    e140:	5ad780b7          	lui	ra,0x5ad78
    e144:	2ebb71b7          	lui	gp,0x2ebb7
    e148:	c9918193          	addi	gp,gp,-871 # 0x2ebb6c99
    e14c:	4d967017          	auipc	zero,0x4d967
    e150:	0020e133          	or	sp,ra,sp
    e154:	7472c193          	xori	gp,t0,1863
    e158:	6ecc7193          	andi	gp,s8,1772
    e15c:	26e0f193          	andi	gp,ra,622
    e160:	002b6133          	or	sp,s6,sp
    e164:	dfb18013          	addi	zero,gp,-517
    e168:	003241b3          	xor	gp,tp,gp
    e16c:	2de18137          	lui	sp,0x2de18
    e170:	001140b3          	xor	ra,sp,ra
    e174:	b1a03037          	lui	zero,0xb1a03
    e178:	46895117          	auipc	sp,0x46895
    e17c:	23b3a197          	auipc	gp,0x23b3a
    e180:	74510863          	beq	sp,t0,0xe8d0
    e184:	74c0016f          	jal	sp,0xe8d0
    e188:	d8e26193          	ori	gp,tp,-626
    e18c:	006080b3          	add	ra,ra,t1
    e190:	00308133          	add	sp,ra,gp
    e194:	8276b1b7          	lui	gp,0x8276b
    e198:	00d361b3          	or	gp,t1,a3
    e19c:	0b1b01b7          	lui	gp,0xb1b0
    e1a0:	89614293          	xori	t0,sp,-1898
    e1a4:	ad761097          	auipc	ra,0xad761
    e1a8:	8f2d5897          	auipc	a7,0x8f2d5
    e1ac:	8220f193          	andi	gp,ra,-2014
    e1b0:	87a07c17          	auipc	s8,0x87a07
    e1b4:	00618133          	add	sp,gp,t1
    e1b8:	00217033          	and	zero,sp,sp
    e1bc:	c64d3c17          	auipc	s8,0xc64d3
    e1c0:	ff7380b7          	lui	ra,0xff738
    e1c4:	92094137          	lui	sp,0x92094
    e1c8:	d1f78137          	lui	sp,0xd1f78
    e1cc:	5ffce1b7          	lui	gp,0x5ffce
    e1d0:	11f14193          	xori	gp,sp,287
    e1d4:	9b77a197          	auipc	gp,0x9b77a
    e1d8:	0023e3b3          	or	t2,t2,sp
    e1dc:	001281b3          	add	gp,t0,ra
    e1e0:	004103b3          	add	t2,sp,tp
    e1e4:	7fa3f093          	andi	ra,t2,2042
    e1e8:	3ff76193          	ori	gp,a4,1023
    e1ec:	006180b3          	add	ra,gp,t1
    e1f0:	d7e1c193          	xori	gp,gp,-642
    e1f4:	0030f0b3          	and	ra,ra,gp
    e1f8:	00210333          	add	t1,sp,sp
    e1fc:	00416133          	or	sp,sp,tp
    e200:	2e300a63          	beq	zero,gp,0xe4f4
    e204:	2f00036f          	jal	t1,0xe4f4
    e208:	acba6197          	auipc	gp,0xacba6
    e20c:	ca2b61b7          	lui	gp,0xca2b6
    e210:	cfbc52b7          	lui	t0,0xcfbc5
    e214:	dd208093          	addi	ra,ra,-558 # 0xffffffffff737dd2
    e218:	0035e3b3          	or	t2,a1,gp
    e21c:	03d4e317          	auipc	t1,0x3d4e
    e220:	e31eb0b7          	lui	ra,0xe31eb
    e224:	27454317          	auipc	t1,0x27454
    e228:	0031c1b3          	xor	gp,gp,gp
    e22c:	00216133          	or	sp,sp,sp
    e230:	4a5b1717          	auipc	a4,0x4a5b1
    e234:	53f08393          	addi	t2,ra,1343 # 0xffffffffe31eb53f
    e238:	5d95a197          	auipc	gp,0x5d95a
    e23c:	d178f237          	lui	tp,0xd178f
    e240:	0160f133          	and	sp,ra,s6
    e244:	fce14293          	xori	t0,sp,-50
    e248:	84294117          	auipc	sp,0x84294
    e24c:	0df1c093          	xori	ra,gp,223
    e250:	ad1aa0b7          	lui	ra,0xad1aa
    e254:	22d23137          	lui	sp,0x22d23
    e258:	8c735197          	auipc	gp,0x8c735
    e25c:	006100b3          	add	ra,sp,t1
    e260:	0b571097          	auipc	ra,0xb571
    e264:	d8817193          	andi	gp,sp,-632
    e268:	402682b3          	sub	t0,a3,sp
    e26c:	dec82337          	lui	t1,0xdec82
    e270:	0b80e693          	ori	a3,ra,184
    e274:	dba18013          	addi	zero,gp,-582 # 0xffffffff8c743012
    e278:	c372c117          	auipc	sp,0xc372c
    e27c:	cc5f4637          	lui	a2,0xcc5f4
    e280:	007b80b3          	add	ra,s7,t2
    e284:	6c1f7137          	lui	sp,0x6c1f7
    e288:	a56e5237          	lui	tp,0xa56e5
    e28c:	ca4188e3          	beq	gp,tp,0xdf3c
    e290:	cadff26f          	jal	tp,0xdf3c
    e294:	761321b7          	lui	gp,0x76132
    e298:	0010e2b3          	or	t0,ra,ra
    e29c:	cee0c193          	xori	gp,ra,-786
    e2a0:	8d10c013          	xori	zero,ra,-1839
    e2a4:	19017113          	andi	sp,sp,400
    e2a8:	8d75e6b7          	lui	a3,0x8d75e
    e2ac:	997c6097          	auipc	ra,0x997c6
    e2b0:	0c52f217          	auipc	tp,0xc52f
    e2b4:	00210233          	add	tp,sp,sp
    e2b8:	69f10793          	addi	a5,sp,1695 # 0x6c1f769f
    e2bc:	44e18c13          	addi	s8,gp,1102 # 0x7613244e
    e2c0:	0030c0b3          	xor	ra,ra,gp
    e2c4:	caa3f013          	andi	zero,t2,-854
    e2c8:	ece27413          	andi	s0,tp,-306
    e2cc:	036cb397          	auipc	t2,0x36cb
    e2d0:	4760c0b7          	lui	ra,0x4760c
    e2d4:	401180b3          	sub	ra,gp,ra
    e2d8:	3b5010b7          	lui	ra,0x3b501
    e2dc:	ec355337          	lui	t1,0xec355
    e2e0:	1011e193          	ori	gp,gp,257
    e2e4:	003780b3          	add	ra,a5,gp
    e2e8:	36610113          	addi	sp,sp,870
    e2ec:	33b23137          	lui	sp,0x33b23
    e2f0:	1807d1b7          	lui	gp,0x1807d
    e2f4:	52e1f293          	andi	t0,gp,1326
    e2f8:	6990e193          	ori	gp,ra,1689
    e2fc:	00306233          	or	tp,zero,gp
    e300:	93d37193          	andi	gp,t1,-1731
    e304:	3781c313          	xori	t1,gp,888
    e308:	40018133          	sub	sp,gp,zero
    e30c:	24d57097          	auipc	ra,0x24d57
    e310:	fc309137          	lui	sp,0xfc309
    e314:	c67c63b7          	lui	t2,0xc67c6
    e318:	f82b4197          	auipc	gp,0xf82b4
    e31c:	18dbb117          	auipc	sp,0x18dbb
    e320:	38310663          	beq	sp,gp,0xe6ac
    e324:	3880026f          	jal	tp,0xe6ac
    e328:	003301b3          	add	gp,t1,gp
    e32c:	004101b3          	add	gp,sp,tp
    e330:	79306137          	lui	sp,0x79306
    e334:	00310333          	add	t1,sp,gp
    e338:	3591f093          	andi	ra,gp,857
    e33c:	12ea0197          	auipc	gp,0x12ea0
    e340:	3f804117          	auipc	sp,0x3f804
    e344:	1cf5b097          	auipc	ra,0x1cf5b
    e348:	9b4cc0b7          	lui	ra,0x9b4cc
    e34c:	ac3c1197          	auipc	gp,0xac3c1
    e350:	f991c393          	xori	t2,gp,-103
    e354:	85898197          	auipc	gp,0x85898
    e358:	e9118193          	addi	gp,gp,-367 # 0xffffffff858a61e5
    e35c:	dff8ff17          	auipc	t5,0xdff8f
    e360:	df8530b7          	lui	ra,0xdf853
    e364:	01e040b3          	xor	ra,zero,t5
    e368:	5540c213          	xori	tp,ra,1364
    e36c:	adb17097          	auipc	ra,0xadb17
    e370:	80b760b7          	lui	ra,0x80b76
    e374:	00217033          	and	zero,sp,sp
    e378:	950df197          	auipc	gp,0x950df
    e37c:	c2e23037          	lui	zero,0xc2e23
    e380:	401081b3          	sub	gp,ra,ra
    e384:	30e3f197          	auipc	gp,0x30e3f
    e388:	55a1f4b7          	lui	s1,0x55a1f
    e38c:	0090c133          	xor	sp,ra,s1
    e390:	0010f1b3          	and	gp,ra,ra
    e394:	0011f1b3          	and	gp,gp,ra
    e398:	ca0e5117          	auipc	sp,0xca0e5
    e39c:	68527513          	andi	a0,tp,1669
    e3a0:	b27db0b7          	lui	ra,0xb27db
    e3a4:	37c2c093          	xori	ra,t0,892
    e3a8:	8ac1c493          	xori	s1,gp,-1876
    e3ac:	c2d004e3          	beq	zero,a3,0xdfd4
    e3b0:	c25ff16f          	jal	sp,0xdfd4
    e3b4:	95310117          	auipc	sp,0x95310
    e3b8:	79560197          	auipc	gp,0x79560
    e3bc:	b780f193          	andi	gp,ra,-1160
    e3c0:	4a33e113          	ori	sp,t2,1187
    e3c4:	f2c16137          	lui	sp,0xf2c16
    e3c8:	79b13037          	lui	zero,0x79b13
    e3cc:	dbce4097          	auipc	ra,0xdbce4
    e3d0:	ee45e197          	auipc	gp,0xee45e
    e3d4:	2cd14193          	xori	gp,sp,717
    e3d8:	507230b7          	lui	ra,0x50723
    e3dc:	ab3a9197          	auipc	gp,0xab3a9
    e3e0:	dd305137          	lui	sp,0xdd305
    e3e4:	74d10093          	addi	ra,sp,1869 # 0xffffffffdd30574d
    e3e8:	40138133          	sub	sp,t2,ra
    e3ec:	00108133          	add	sp,ra,ra
    e3f0:	6e534113          	xori	sp,t1,1765
    e3f4:	8e130137          	lui	sp,0x8e130
    e3f8:	13555097          	auipc	ra,0x13555
    e3fc:	a0eeb137          	lui	sp,0xa0eeb
    e400:	8e6e9117          	auipc	sp,0x8e6e9
    e404:	cb21c093          	xori	ra,gp,-846
    e408:	e3016213          	ori	tp,sp,-464
    e40c:	a461f313          	andi	t1,gp,-1466
    e410:	7f2651b7          	lui	gp,0x7f265
    e414:	62989137          	lui	sp,0x62989
    e418:	53816193          	ori	gp,sp,1336
    e41c:	40108133          	sub	sp,ra,ra
    e420:	0032c133          	xor	sp,t0,gp
    e424:	a66681b7          	lui	gp,0xa6668
    e428:	dcc05197          	auipc	gp,0xdcc05
    e42c:	1e427193          	andi	gp,tp,484
    e430:	bc128113          	addi	sp,t0,-1087 # 0xffffffffcfbc4bc1
    e434:	0030f133          	and	sp,ra,gp
    e438:	0050f0b3          	and	ra,ra,t0
    e43c:	27a300b7          	lui	ra,0x27a30
    e440:	865d31b7          	lui	gp,0x865d3
    e444:	f2193137          	lui	sp,0xf2193
    e448:	3e710c63          	beq	sp,t2,0xe840
    e44c:	3f40056f          	jal	a0,0xe840
    e450:	01614193          	xori	gp,sp,22
    e454:	dee721b7          	lui	gp,0xdee72
    e458:	001160b3          	or	ra,sp,ra
    e45c:	12d6b237          	lui	tp,0x12d6b
    e460:	34a08193          	addi	gp,ra,842 # 0x27a3034a
    e464:	0040e133          	or	sp,ra,tp
    e468:	0020f033          	and	zero,ra,sp
    e46c:	001082b3          	add	t0,ra,ra
    e470:	003103b3          	add	t2,sp,gp
    e474:	751470b7          	lui	ra,0x75147
    e478:	3bb1c093          	xori	ra,gp,955
    e47c:	52879117          	auipc	sp,0x52879
    e480:	0030f133          	and	sp,ra,gp
    e484:	005182b3          	add	t0,gp,t0
    e488:	c441f193          	andi	gp,gp,-956
    e48c:	eaf36113          	ori	sp,t1,-337
    e490:	112da637          	lui	a2,0x112da
    e494:	4340a797          	auipc	a5,0x4340a
    e498:	28a4b117          	auipc	sp,0x28a4b
    e49c:	0010e1b3          	or	gp,ra,ra
    e4a0:	2f411137          	lui	sp,0x2f411
    e4a4:	983a0137          	lui	sp,0x983a0
    e4a8:	02e2d097          	auipc	ra,0x2e2d
    e4ac:	6ed022b7          	lui	t0,0x6ed02
    e4b0:	406a1217          	auipc	tp,0x406a1
    e4b4:	dc90f113          	andi	sp,ra,-567
    e4b8:	0f937113          	andi	sp,t1,249
    e4bc:	00210133          	add	sp,sp,sp
    e4c0:	aba1f213          	andi	tp,gp,-1350
    e4c4:	ab44f237          	lui	tp,0xab44f
    e4c8:	0032e0b3          	or	ra,t0,gp
    e4cc:	80e10213          	addi	tp,sp,-2034 # 0xffffffff9839f80e
    e4d0:	2881c093          	xori	ra,gp,648
    e4d4:	77720113          	addi	sp,tp,1911 # 0xffffffffab44f777
    e4d8:	49d221b7          	lui	gp,0x49d22
    e4dc:	f7d16113          	ori	sp,sp,-131
    e4e0:	0010c0b3          	xor	ra,ra,ra
    e4e4:	40b2b217          	auipc	tp,0x40b2b
    e4e8:	d8d42137          	lui	sp,0xd8d42
    e4ec:	00028113          	mv	sp,t0
    e4f0:	9c5102e3          	beq	sp,t0,0xdeb4
    e4f4:	2ed36113          	ori	sp,t1,749
    e4f8:	feebc097          	auipc	ra,0xfeebc
    e4fc:	8ebf70b7          	lui	ra,0x8ebf7
    e500:	003160b3          	or	ra,sp,gp
    e504:	23581097          	auipc	ra,0x23581
    e508:	0071c233          	xor	tp,gp,t2
    e50c:	38b0b197          	auipc	gp,0x38b0b
    e510:	d3b3d137          	lui	sp,0xd3b3d
    e514:	2925f493          	andi	s1,a1,658
    e518:	ec972097          	auipc	ra,0xec972
    e51c:	7958b337          	lui	t1,0x7958b
    e520:	01d1f0b3          	and	ra,gp,t4
    e524:	00317a33          	and	s4,sp,gp
    e528:	f9bee1b7          	lui	gp,0xf9bee
    e52c:	002101b3          	add	gp,sp,sp
    e530:	d8074137          	lui	sp,0xd8074
    e534:	79a351b7          	lui	gp,0x79a35
    e538:	f011d097          	auipc	ra,0xf011d
    e53c:	11414093          	xori	ra,sp,276
    e540:	3ec67337          	lui	t1,0x3ec67
    e544:	b943c093          	xori	ra,t2,-1132
    e548:	0021e133          	or	sp,gp,sp
    e54c:	47863fb7          	lui	t6,0x47863
    e550:	0050f233          	and	tp,ra,t0
    e554:	3091e393          	ori	t2,gp,777
    e558:	de771137          	lui	sp,0xde771
    e55c:	ea80f093          	andi	ra,ra,-344
    e560:	e4c63397          	auipc	t2,0xe4c63
    e564:	9f1de313          	ori	t1,s11,-1551
    e568:	088ed117          	auipc	sp,0x88ed
    e56c:	418d8197          	auipc	gp,0x418d8
    e570:	dd397217          	auipc	tp,0xdd397
    e574:	0021c1b3          	xor	gp,gp,sp
    e578:	4370c293          	xori	t0,ra,1079
    e57c:	2e560197          	auipc	gp,0x2e560
    e580:	24f36397          	auipc	t2,0x24f36
    e584:	1a130e63          	beq	t1,ra,0xe740
    e588:	1b8005ef          	jal	a1,0xe740
    e58c:	73f2e093          	ori	ra,t0,1855
    e590:	00117133          	and	sp,sp,ra
    e594:	703b90b7          	lui	ra,0x703b9
    e598:	5511e113          	ori	sp,gp,1361
    e59c:	4f5e57b7          	lui	a5,0x4f5e5
    e5a0:	0c600013          	li	zero,198
    e5a4:	221ed437          	lui	s0,0x221ed
    e5a8:	46694317          	auipc	t1,0x46694
    e5ac:	4ae09197          	auipc	gp,0x4ae09
    e5b0:	6071e113          	ori	sp,gp,1543
    e5b4:	89dc92b7          	lui	t0,0x89dc9
    e5b8:	40510033          	sub	zero,sp,t0
    e5bc:	0030e1b3          	or	gp,ra,gp
    e5c0:	fd840197          	auipc	gp,0xfd840
    e5c4:	95feb097          	auipc	ra,0x95feb
    e5c8:	7d0911b7          	lui	gp,0x7d091
    e5cc:	3c708093          	addi	ra,ra,967 # 0xffffffff95ff998b
    e5d0:	9e51e113          	ori	sp,gp,-1563
    e5d4:	63516113          	ori	sp,sp,1589
    e5d8:	1a2ae317          	auipc	t1,0x1a2ae
    e5dc:	aeaea117          	auipc	sp,0xaeaea
    e5e0:	0291c493          	xori	s1,gp,41
    e5e4:	003141b3          	xor	gp,sp,gp
    e5e8:	d4414113          	xori	sp,sp,-700
    e5ec:	6eb0c113          	xori	sp,ra,1771
    e5f0:	7fa5e397          	auipc	t2,0x7fa5e
    e5f4:	00137133          	and	sp,t1,ra
    e5f8:	265aa717          	auipc	a4,0x265aa
    e5fc:	b681b3b7          	lui	t2,0xb681b
    e600:	ff63d117          	auipc	sp,0xff63d
    e604:	17bd63b7          	lui	t2,0x17bd6
    e608:	e7c87117          	auipc	sp,0xe7c87
    e60c:	1a310863          	beq	sp,gp,0xe7bc
    e610:	1ac0016f          	jal	sp,0xe7bc
    e614:	36ec7097          	auipc	ra,0x36ec7
    e618:	402200b3          	sub	ra,tp,sp
    e61c:	248af037          	lui	zero,0x248af
    e620:	00130133          	add	sp,t1,ra
    e624:	4bad12b7          	lui	t0,0x4bad1
    e628:	2525e197          	auipc	gp,0x2525e
    e62c:	10d50137          	lui	sp,0x10d50
    e630:	41ebd1b7          	lui	gp,0x41ebd
    e634:	3cec62b7          	lui	t0,0x3cec6
    e638:	70510193          	addi	gp,sp,1797 # 0x10d50705
    e63c:	40288233          	sub	tp,a7,sp
    e640:	fc60c093          	xori	ra,ra,-58
    e644:	6fda7097          	auipc	ra,0x6fda7
    e648:	be2f2317          	auipc	t1,0xbe2f2
    e64c:	2259d097          	auipc	ra,0x2259d
    e650:	fb567297          	auipc	t0,0xfb567
    e654:	0030f233          	and	tp,ra,gp
    e658:	27e94217          	auipc	tp,0x27e94
    e65c:	1c818197          	auipc	gp,0x1c818
    e660:	7021f0b7          	lui	ra,0x7021f
    e664:	00114633          	xor	a2,sp,ra
    e668:	95162117          	auipc	sp,0x95162
    e66c:	d7110093          	addi	ra,sp,-655 # 0xffffffff951703d9
    e670:	47a2f137          	lui	sp,0x47a2f
    e674:	3fe17193          	andi	gp,sp,1022
    e678:	7e82f293          	andi	t0,t0,2024
    e67c:	f20a0097          	auipc	ra,0xf20a0
    e680:	55e64137          	lui	sp,0x55e64
    e684:	f1bf1197          	auipc	gp,0xf1bf1
    e688:	ed319297          	auipc	t0,0xed319
    e68c:	4ceb2137          	lui	sp,0x4ceb2
    e690:	4173f313          	andi	t1,t2,1047
    e694:	40318333          	sub	t1,gp,gp
    e698:	4bec4117          	auipc	sp,0x4bec4
    e69c:	4a29c0b7          	lui	ra,0x4a29c
    e6a0:	a341d197          	auipc	gp,0xa341d
    e6a4:	00000097          	auipc	ra,0x0
    e6a8:	ee8081e7          	jalr	gp,-280(ra) # 0xe58c
    e6ac:	ad60c193          	xori	gp,ra,-1322
    e6b0:	ad2ed117          	auipc	sp,0xad2ed
    e6b4:	00316233          	or	tp,sp,gp
    e6b8:	57450097          	auipc	ra,0x57450
    e6bc:	d7918113          	addi	sp,gp,-647 # 0xffffffffa342b419
    e6c0:	0010f233          	and	tp,ra,ra
    e6c4:	f29df337          	lui	t1,0xf29df
    e6c8:	1640f293          	andi	t0,ra,356
    e6cc:	0030c0b3          	xor	ra,ra,gp
    e6d0:	2fa20013          	addi	zero,tp,762 # 0x27ea2952
    e6d4:	43074197          	auipc	gp,0x43074
    e6d8:	0bfa3117          	auipc	sp,0xbfa3
    e6dc:	fcf16093          	ori	ra,sp,-49
    e6e0:	b2e83337          	lui	t1,0xb2e83
    e6e4:	29b62317          	auipc	t1,0x29b62
    e6e8:	6956e097          	auipc	ra,0x6956e
    e6ec:	69c06693          	ori	a3,zero,1692
    e6f0:	04acb317          	auipc	t1,0x4acb
    e6f4:	002181b3          	add	gp,gp,sp
    e6f8:	2bd28113          	addi	sp,t0,701 # 0xffffffffed327945
    e6fc:	40218133          	sub	sp,gp,sp
    e700:	7e6ff097          	auipc	ra,0x7e6ff
    e704:	d7233117          	auipc	sp,0xd7233
    e708:	00118133          	add	sp,gp,ra
    e70c:	aba6e137          	lui	sp,0xaba6e
    e710:	20a17113          	andi	sp,sp,522
    e714:	00010133          	add	sp,sp,zero
    e718:	1a3343b7          	lui	t2,0x1a334
    e71c:	98423117          	auipc	sp,0x98423
    e720:	402100b3          	sub	ra,sp,sp
    e724:	df416113          	ori	sp,sp,-524
    e728:	25e0c193          	xori	gp,ra,606
    e72c:	1ac87ab7          	lui	s5,0x1ac87
    e730:	0050c033          	xor	zero,ra,t0
    e734:	81a2c093          	xori	ra,t0,-2022
    e738:	00000197          	auipc	gp,0x0
    e73c:	22818367          	jalr	t1,552(gp) # 0xe960
    e740:	3dfb33b7          	lui	t2,0x3dfb3
    e744:	69f751b7          	lui	gp,0x69f75
    e748:	73f4a6b7          	lui	a3,0x73f4a
    e74c:	f4539337          	lui	t1,0xf4539
    e750:	4b9e0337          	lui	t1,0x4b9e0
    e754:	ae21f193          	andi	gp,gp,-1310
    e758:	06e7c0b7          	lui	ra,0x6e7c
    e75c:	8b22c113          	xori	sp,t0,-1870
    e760:	002376b3          	and	a3,t1,sp
    e764:	e50ba097          	auipc	ra,0xe50ba
    e768:	856b63b7          	lui	t2,0x856b6
    e76c:	4bf16193          	ori	gp,sp,1215
    e770:	48ba1097          	auipc	ra,0x48ba1
    e774:	0b036193          	ori	gp,t1,176
    e778:	0040e2b3          	or	t0,ra,tp
    e77c:	d8414113          	xori	sp,sp,-636
    e780:	00324333          	xor	t1,tp,gp
    e784:	834df0b7          	lui	ra,0x834df
    e788:	2035e197          	auipc	gp,0x2035e
    e78c:	2e94f1b7          	lui	gp,0x2e94f
    e790:	91e74237          	lui	tp,0x91e74
    e794:	d9ca70b7          	lui	ra,0xd9ca7
    e798:	860a5197          	auipc	gp,0x860a5
    e79c:	0fc39097          	auipc	ra,0xfc39
    e7a0:	164ac137          	lui	sp,0x164ac
    e7a4:	001041b3          	xor	gp,zero,ra
    e7a8:	9a6c6017          	auipc	zero,0x9a6c6
    e7ac:	9523f193          	andi	gp,t2,-1710
    e7b0:	1f873217          	auipc	tp,0x1f873
    e7b4:	c01580e3          	beq	a1,ra,0xe3b4
    e7b8:	bfdff1ef          	jal	gp,0xe3b4
    e7bc:	49a0b097          	auipc	ra,0x49a0b
    e7c0:	4fc10393          	addi	t2,sp,1276 # 0x164ac4fc
    e7c4:	40410133          	sub	sp,sp,tp
    e7c8:	12f5c113          	xori	sp,a1,303
    e7cc:	1be28093          	addi	ra,t0,446
    e7d0:	0020c1b3          	xor	gp,ra,sp
    e7d4:	9350c193          	xori	gp,ra,-1739
    e7d8:	405101b3          	sub	gp,sp,t0
    e7dc:	e6436893          	ori	a7,t1,-412
    e7e0:	0020c1b3          	xor	gp,ra,sp
    e7e4:	7561f213          	andi	tp,gp,1878
    e7e8:	401202b3          	sub	t0,tp,ra
    e7ec:	e241c093          	xori	ra,gp,-476
    e7f0:	28889197          	auipc	gp,0x28889
    e7f4:	3690fa13          	andi	s4,ra,873
    e7f8:	0140e0b3          	or	ra,ra,s4
    e7fc:	0010c333          	xor	t1,ra,ra
    e800:	6ac980b7          	lui	ra,0x6ac98
    e804:	7b61f193          	andi	gp,gp,1974
    e808:	003081b3          	add	gp,ra,gp
    e80c:	2b32e193          	ori	gp,t0,691
    e810:	0e977237          	lui	tp,0xe977
    e814:	e0f00e13          	li	t3,-497
    e818:	08bbb097          	auipc	ra,0x8bbb
    e81c:	0023f133          	and	sp,t2,sp
    e820:	8a1bf237          	lui	tp,0x8a1bf
    e824:	001101b3          	add	gp,sp,ra
    e828:	a10b11b7          	lui	gp,0xa10b1
    e82c:	ed70f213          	andi	tp,ra,-297
    e830:	8ec6e137          	lui	sp,0x8ec6e
    e834:	a7b31237          	lui	tp,0xa7b31
    e838:	000d0093          	mv	ra,s10
    e83c:	afa086e3          	beq	ra,s10,0xe328
    e840:	92fd0117          	auipc	sp,0x92fd0
    e844:	dd8ba3b7          	lui	t2,0xdd8ba
    e848:	5af151b7          	lui	gp,0x5af15
    e84c:	0b089137          	lui	sp,0xb089
    e850:	aedfd197          	auipc	gp,0xaedfd
    e854:	003271b3          	and	gp,tp,gp
    e858:	f7835097          	auipc	ra,0xf7835
    e85c:	250af117          	auipc	sp,0x250af
    e860:	002100b3          	add	ra,sp,sp
    e864:	5271f093          	andi	ra,gp,1319
    e868:	9542a217          	auipc	tp,0x9542a
    e86c:	c4c45097          	auipc	ra,0xc4c45
    e870:	62110293          	addi	t0,sp,1569 # 0x250bde7d
    e874:	7e1a0137          	lui	sp,0x7e1a0
    e878:	0030c0b3          	xor	ra,ra,gp
    e87c:	0022c133          	xor	sp,t0,sp
    e880:	364f9197          	auipc	gp,0x364f9
    e884:	48c7d237          	lui	tp,0x48c7d
    e888:	a0916193          	ori	gp,sp,-1527
    e88c:	9ec2a4b7          	lui	s1,0x9ec2a
    e890:	72ba6117          	auipc	sp,0x72ba6
    e894:	6e320093          	addi	ra,tp,1763 # 0x48c7d6e3
    e898:	ada16097          	auipc	ra,0xada16
    e89c:	242f2117          	auipc	sp,0x242f2
    e8a0:	9cd90237          	lui	tp,0x9cd90
    e8a4:	e14437b7          	lui	a5,0xe1443
    e8a8:	005a70b3          	and	ra,s4,t0
    e8ac:	63cf0137          	lui	sp,0x63cf0
    e8b0:	40818133          	sub	sp,gp,s0
    e8b4:	0035c1b3          	xor	gp,a1,gp
    e8b8:	0030e1b3          	or	gp,ra,gp
    e8bc:	40238333          	sub	t1,t2,sp
    e8c0:	06de81b7          	lui	gp,0x6de8
    e8c4:	07de0317          	auipc	t1,0x7de0
    e8c8:	82b006e3          	beq	zero,a1,0xe0f4
    e8cc:	829ff0ef          	jal	ra,0xe0f4
    e8d0:	4581c093          	xori	ra,gp,1112
    e8d4:	15734193          	xori	gp,t1,343
    e8d8:	25308013          	addi	zero,ra,595 # 0xffffffffada24aeb
    e8dc:	a734d117          	auipc	sp,0xa734d
    e8e0:	4b962117          	auipc	sp,0x4b962
    e8e4:	c7439137          	lui	sp,0xc7439
    e8e8:	9f218a13          	addi	s4,gp,-1550 # 0x6de79f2
    e8ec:	b3308193          	addi	gp,ra,-1229
    e8f0:	2f88b497          	auipc	s1,0x2f88b
    e8f4:	c92e0197          	auipc	gp,0xc92e0
    e8f8:	40248133          	sub	sp,s1,sp
    e8fc:	0023e133          	or	sp,t2,sp
    e900:	823a40b7          	lui	ra,0x823a4
    e904:	3937b1b7          	lui	gp,0x3937b
    e908:	c9307113          	andi	sp,zero,-877
    e90c:	404100b3          	sub	ra,sp,tp
    e910:	be94f097          	auipc	ra,0xbe94f
    e914:	00108133          	add	sp,ra,ra
    e918:	3e7b4117          	auipc	sp,0x3e7b4
    e91c:	7df1e113          	ori	sp,gp,2015
    e920:	87e7e197          	auipc	gp,0x87e7e
    e924:	bee17113          	andi	sp,sp,-1042
    e928:	b2c08093          	addi	ra,ra,-1236 # 0xffffffffbe95d43c
    e92c:	06836193          	ori	gp,t1,104
    e930:	0000f233          	and	tp,ra,zero
    e934:	0033f2b3          	and	t0,t2,gp
    e938:	0020e133          	or	sp,ra,sp
    e93c:	38ef20b7          	lui	ra,0x38ef2
    e940:	00e10133          	add	sp,sp,a4
    e944:	0030f0b3          	and	ra,ra,gp
    e948:	4971e193          	ori	gp,gp,1175
    e94c:	0030c1b3          	xor	gp,ra,gp
    e950:	6873dcb7          	lui	s9,0x6873d
    e954:	00416133          	or	sp,sp,tp
    e958:	00010193          	mv	gp,sp
    e95c:	50218063          	beq	gp,sp,0xee5c
    e960:	f2e17797          	auipc	a5,0xf2e17
    e964:	9aa10113          	addi	sp,sp,-1622 # 0x3e7c22c2
    e968:	00308133          	add	sp,ra,gp
    e96c:	77f7e197          	auipc	gp,0x77f7e
    e970:	0012c1b3          	xor	gp,t0,ra
    e974:	c75a6117          	auipc	sp,0xc75a6
    e978:	e4042197          	auipc	gp,0xe4042
    e97c:	03601097          	auipc	ra,0x3601
    e980:	f089a117          	auipc	sp,0xf089a
    e984:	01e241b3          	xor	gp,tp,t5
    e988:	2db0c193          	xori	gp,ra,731
    e98c:	caa87f17          	auipc	t5,0xcaa87
    e990:	f1708113          	addi	sp,ra,-233 # 0x360f893
    e994:	a8ae2117          	auipc	sp,0xa8ae2
    e998:	09898197          	auipc	gp,0x9898
    e99c:	00110133          	add	sp,sp,ra
    e9a0:	1faba117          	auipc	sp,0x1faba
    e9a4:	b40a1197          	auipc	gp,0xb40a1
    e9a8:	ca14e0b7          	lui	ra,0xca14e
    e9ac:	feb2ce13          	xori	t3,t0,-21
    e9b0:	00216133          	or	sp,sp,sp
    e9b4:	001981b3          	add	gp,s3,ra
    e9b8:	f7377297          	auipc	t0,0xf7377
    e9bc:	fd6ae097          	auipc	ra,0xfd6ae
    e9c0:	002177b3          	and	a5,sp,sp
    e9c4:	482b4217          	auipc	tp,0x482b4
    e9c8:	8fc28113          	addi	sp,t0,-1796 # 0xfffffffff73852b4
    e9cc:	001140b3          	xor	ra,sp,ra
    e9d0:	79f580b7          	lui	ra,0x79f58
    e9d4:	cd332137          	lui	sp,0xcd332
    e9d8:	ca18c617          	auipc	a2,0xca18c
    e9dc:	002361b3          	or	gp,t1,sp
    e9e0:	af674197          	auipc	gp,0xaf674
    e9e4:	156a81b7          	lui	gp,0x156a8
    e9e8:	c0b25097          	auipc	ra,0xc0b25
    e9ec:	00120263          	beq	tp,ra,0xe9f0
    e9f0:	e74ff1ef          	jal	gp,0xe064
    e9f4:	b52491b7          	lui	gp,0xb5249
    e9f8:	0031c2b3          	xor	t0,gp,gp
    e9fc:	94f1e113          	ori	sp,gp,-1713
    ea00:	37b16113          	ori	sp,sp,891
    ea04:	403180b3          	sub	ra,gp,gp
    ea08:	e671c113          	xori	sp,gp,-409
    ea0c:	d9b34093          	xori	ra,t1,-613
    ea10:	002061b3          	or	gp,zero,sp
    ea14:	a4a1c0b7          	lui	ra,0xa4a1c
    ea18:	bbd8e197          	auipc	gp,0xbbd8e
    ea1c:	f3a101b7          	lui	gp,0xf3a10
    ea20:	d52b4097          	auipc	ra,0xd52b4
    ea24:	e360b017          	auipc	zero,0xe360b
    ea28:	f33211b7          	lui	gp,0xf3321
    ea2c:	0031c133          	xor	sp,gp,gp
    ea30:	f7ce4197          	auipc	gp,0xf7ce4
    ea34:	001180b3          	add	ra,gp,ra
    ea38:	001081b3          	add	gp,ra,ra
    ea3c:	fc1d10b7          	lui	ra,0xfc1d1
    ea40:	7233e093          	ori	ra,t2,1827
    ea44:	50c05037          	lui	zero,0x50c05
    ea48:	82026137          	lui	sp,0x82026
    ea4c:	429c8217          	auipc	tp,0x429c8
    ea50:	ab7f3217          	auipc	tp,0xab7f3
    ea54:	13317113          	andi	sp,sp,307
    ea58:	018580b3          	add	ra,a1,s8
    ea5c:	a8c25037          	lui	zero,0xa8c25
    ea60:	006060b3          	or	ra,zero,t1
    ea64:	4b22e197          	auipc	gp,0x4b22e
    ea68:	372d5197          	auipc	gp,0x372d5
    ea6c:	41a29137          	lui	sp,0x41a29
    ea70:	10408c63          	beq	ra,tp,0xeb88
    ea74:	114003ef          	jal	t2,0xeb88
    ea78:	00324133          	xor	sp,tp,gp
    ea7c:	3835c1b7          	lui	gp,0x3835c
    ea80:	fec60093          	addi	ra,a2,-20 # 0xffffffffca19a9c4
    ea84:	bc31c113          	xori	sp,gp,-1085
    ea88:	a0d0f113          	andi	sp,ra,-1523
    ea8c:	cdc06137          	lui	sp,0xcdc06
    ea90:	00116233          	or	tp,sp,ra
    ea94:	fc00c593          	xori	a1,ra,-64
    ea98:	3aa80317          	auipc	t1,0x3aa80
    ea9c:	0011f0b3          	and	ra,gp,ra
    eaa0:	003170b3          	and	ra,sp,gp
    eaa4:	0021e133          	or	sp,gp,sp
    eaa8:	401181b3          	sub	gp,gp,ra
    eaac:	003171b3          	and	gp,sp,gp
    eab0:	ee161237          	lui	tp,0xee161
    eab4:	002100b3          	add	ra,sp,sp
    eab8:	0ef0e193          	ori	gp,ra,239
    eabc:	4a410193          	addi	gp,sp,1188 # 0xffffffffcdc064a4
    eac0:	fe30e117          	auipc	sp,0xfe30e
    eac4:	0324f797          	auipc	a5,0x324f
    eac8:	5b4b0197          	auipc	gp,0x5b4b0
    eacc:	3ae3d017          	auipc	zero,0x3ae3d
    ead0:	96526317          	auipc	t1,0x96526
    ead4:	0050c2b3          	xor	t0,ra,t0
    ead8:	00518133          	add	sp,gp,t0
    eadc:	8645a117          	auipc	sp,0x8645a
    eae0:	c160c113          	xori	sp,ra,-1002
    eae4:	23b221b7          	lui	gp,0x23b22
    eae8:	8e0ee117          	auipc	sp,0x8e0ee
    eaec:	6272e093          	ori	ra,t0,1575
    eaf0:	a28fb1b7          	lui	gp,0xa28fb
    eaf4:	bd51f093          	andi	ra,gp,-1067
    eaf8:	70120263          	beq	tp,ra,0xf1fc
    eafc:	700001ef          	jal	gp,0xf1fc
    eb00:	ee820793          	addi	a5,tp,-280 # 0xffffffffee160ee8
    eb04:	209b4137          	lui	sp,0x209b4
    eb08:	0013f0b3          	and	ra,t2,ra
    eb0c:	6acff3b7          	lui	t2,0x6acff
    eb10:	1b965137          	lui	sp,0x1b965
    eb14:	0011c1b3          	xor	gp,gp,ra
    eb18:	857f2117          	auipc	sp,0x857f2
    eb1c:	00b102b3          	add	t0,sp,a1
    eb20:	4313e117          	auipc	sp,0x4313e
    eb24:	86853297          	auipc	t0,0x86853
    eb28:	0012c0b3          	xor	ra,t0,ra
    eb2c:	7b5b80b7          	lui	ra,0x7b5b8
    eb30:	4d554113          	xori	sp,a0,1237
    eb34:	eac1e097          	auipc	ra,0xeac1e
    eb38:	4141f113          	andi	sp,gp,1044
    eb3c:	ca81b117          	auipc	sp,0xca81b
    eb40:	b0ce63b7          	lui	t2,0xb0ce6
    eb44:	5be21017          	auipc	zero,0x5be21
    eb48:	5462e093          	ori	ra,t0,1350
    eb4c:	8ce1b217          	auipc	tp,0x8ce1b
    eb50:	1410c193          	xori	gp,ra,321
    eb54:	001170b3          	and	ra,sp,ra
    eb58:	401381b3          	sub	gp,t2,ra
    eb5c:	93730113          	addi	sp,t1,-1737 # 0xffffffff96534407
    eb60:	00114133          	xor	sp,sp,ra
    eb64:	ee40f093          	andi	ra,ra,-284
    eb68:	fa90e213          	ori	tp,ra,-87
    eb6c:	4f664197          	auipc	gp,0x4f664
    eb70:	273a2097          	auipc	ra,0x273a2
    eb74:	04116013          	ori	zero,sp,65
    eb78:	40120233          	sub	tp,tp,ra
    eb7c:	f976f217          	auipc	tp,0xf976f
    eb80:	00220263          	beq	tp,sp,0xeb84
    eb84:	0b500a6f          	jal	s4,0xf438
    eb88:	3c4f0117          	auipc	sp,0x3c4f0
    eb8c:	20b10113          	addi	sp,sp,523 # 0x3c4fed93
    eb90:	8da4d117          	auipc	sp,0x8da4d
    eb94:	42868193          	addi	gp,a3,1064 # 0x73f4a428
    eb98:	002243b3          	xor	t2,tp,sp
    eb9c:	ebdf21b7          	lui	gp,0xebdf2
    eba0:	0011e0b3          	or	ra,gp,ra
    eba4:	2e8f7137          	lui	sp,0x2e8f7
    eba8:	20218113          	addi	sp,gp,514 # 0xffffffffebdf2202
    ebac:	0010e333          	or	t1,ra,ra
    ebb0:	406501b3          	sub	gp,a0,t1
    ebb4:	c3208293          	addi	t0,ra,-974 # 0x273b07a2
    ebb8:	007081b3          	add	gp,ra,t2
    ebbc:	52b9f137          	lui	sp,0x52b9f
    ebc0:	2d014293          	xori	t0,sp,720
    ebc4:	0032f0b3          	and	ra,t0,gp
    ebc8:	001102b3          	add	t0,sp,ra
    ebcc:	403181b3          	sub	gp,gp,gp
    ebd0:	9651f093          	andi	ra,gp,-1691
    ebd4:	0010e5b3          	or	a1,ra,ra
    ebd8:	84e2c093          	xori	ra,t0,-1970
    ebdc:	76ba70b7          	lui	ra,0x76ba7
    ebe0:	5825f1b7          	lui	gp,0x5825f
    ebe4:	8559f037          	lui	zero,0x8559f
    ebe8:	3e2973b7          	lui	t2,0x3e297
    ebec:	75916313          	ori	t1,sp,1881
    ebf0:	09bb10b7          	lui	ra,0x9bb1
    ebf4:	35e7d6b7          	lui	a3,0x35e7d
    ebf8:	15f8f1b7          	lui	gp,0x15f8f
    ebfc:	caa78593          	addi	a1,a5,-854 # 0x325d76e
    ec00:	59c39237          	lui	tp,0x59c39
    ec04:	65a24013          	xori	zero,tp,1626
    ec08:	a3e50197          	auipc	gp,0xa3e50
    ec0c:	000061b3          	or	gp,zero,zero
    ec10:	002171b3          	and	gp,sp,sp
    ec14:	8282a097          	auipc	ra,0x8282a
    ec18:	00000197          	auipc	gp,0x0
    ec1c:	ee8181e7          	jalr	gp,-280(gp) # 0xeb00
    ec20:	05316013          	ori	zero,sp,83
    ec24:	e36e2137          	lui	sp,0xe36e2
    ec28:	48b620b7          	lui	ra,0x48b62
    ec2c:	7bd22137          	lui	sp,0x7bd22
    ec30:	ec47f117          	auipc	sp,0xec47f
    ec34:	47f5b397          	auipc	t2,0x47f5b
    ec38:	00708133          	add	sp,ra,t2
    ec3c:	e67fb037          	lui	zero,0xe67fb
    ec40:	7f124293          	xori	t0,tp,2033
    ec44:	50c2b0b7          	lui	ra,0x50c2b
    ec48:	8cb1e193          	ori	gp,gp,-1845
    ec4c:	51c820b7          	lui	ra,0x51c82
    ec50:	17f3a1b7          	lui	gp,0x17f3a
    ec54:	6d9b4097          	auipc	ra,0x6d9b4
    ec58:	6c1c3397          	auipc	t2,0x6c1c3
    ec5c:	ffb16113          	ori	sp,sp,-5
    ec60:	002080b3          	add	ra,ra,sp
    ec64:	b1eb9097          	auipc	ra,0xb1eb9
    ec68:	001c11b7          	lui	gp,0x1c1
    ec6c:	88235097          	auipc	ra,0x88235
    ec70:	faeb8117          	auipc	sp,0xfaeb8
    ec74:	1a204197          	auipc	gp,0x1a204
    ec78:	f7a81037          	lui	zero,0xf7a81
    ec7c:	fb814013          	xori	zero,sp,-72
    ec80:	f7671117          	auipc	sp,0xf7671
    ec84:	9ca16097          	auipc	ra,0x9ca16
    ec88:	33e0cb13          	xori	s6,ra,830
    ec8c:	b477f217          	auipc	tp,0xb477f
    ec90:	0032c1b3          	xor	gp,t0,gp
    ec94:	8e9fc097          	auipc	ra,0x8e9fc
    ec98:	0063f233          	and	tp,t2,t1
    ec9c:	001181b3          	add	gp,gp,ra
    eca0:	99716113          	ori	sp,sp,-1641
    eca4:	00408463          	beq	ra,tp,0xecac
    eca8:	004001ef          	jal	gp,0xecac
    ecac:	ff721137          	lui	sp,0xff721
    ecb0:	47700097          	auipc	ra,0x47700
    ecb4:	c0b0e013          	ori	zero,ra,-1013
    ecb8:	6f906093          	ori	ra,zero,1785
    ecbc:	e031c293          	xori	t0,gp,-509
    ecc0:	0012f133          	and	sp,t0,ra
    ecc4:	27344197          	auipc	gp,0x27344
    ecc8:	a471f213          	andi	tp,gp,-1465
    eccc:	653bc017          	auipc	zero,0x653bc
    ecd0:	eba2c193          	xori	gp,t0,-326
    ecd4:	2a317113          	andi	sp,sp,675
    ecd8:	79636113          	ori	sp,t1,1942
    ecdc:	6ab03117          	auipc	sp,0x6ab03
    ece0:	e36530b7          	lui	ra,0xe3653
    ece4:	0190f233          	and	tp,ra,s9
    ece8:	5723e193          	ori	gp,t2,1394
    ecec:	a3612097          	auipc	ra,0xa3612
    ecf0:	00214233          	xor	tp,sp,sp
    ecf4:	e5f050b7          	lui	ra,0xe5f05
    ecf8:	f8b570b7          	lui	ra,0xf8b57
    ecfc:	d3ec7193          	andi	gp,s8,-706
    ed00:	00238233          	add	tp,t2,sp
    ed04:	00614033          	xor	zero,sp,t1
    ed08:	e3c0f093          	andi	ra,ra,-452
    ed0c:	0031c033          	xor	zero,gp,gp
    ed10:	91010093          	addi	ra,sp,-1776 # 0x6ab115ec
    ed14:	c735b217          	auipc	tp,0xc735b
    ed18:	acb7e2b7          	lui	t0,0xacb7e
    ed1c:	000141b3          	xor	gp,sp,zero
    ed20:	40110133          	sub	sp,sp,ra
    ed24:	fac37a13          	andi	s4,t1,-84
    ed28:	45906093          	ori	ra,zero,1113
    ed2c:	96408113          	addi	sp,ra,-1692 # 0xfffffffff8b56964
    ed30:	e0f28993          	addi	s3,t0,-497 # 0xffffffffacb7de0f
    ed34:	00000097          	auipc	ra,0x0
    ed38:	094081e7          	jalr	gp,148(ra) # 0xedc8
    ed3c:	1f153137          	lui	sp,0x1f153
    ed40:	0013e133          	or	sp,t2,ra
    ed44:	40118bb3          	sub	s7,gp,ra
    ed48:	00118133          	add	sp,gp,ra
    ed4c:	a299a237          	lui	tp,0xa299a
    ed50:	e55fd137          	lui	sp,0xe55fd
    ed54:	26918093          	addi	ra,gp,617 # 0x27352f2d
    ed58:	6d471217          	auipc	tp,0x6d471
    ed5c:	01134097          	auipc	ra,0x1134
    ed60:	4c00f313          	andi	t1,ra,1216
    ed64:	00614033          	xor	zero,sp,t1
    ed68:	007101b3          	add	gp,sp,t2
    ed6c:	4c25d117          	auipc	sp,0x4c25d
    ed70:	11117193          	andi	gp,sp,273
    ed74:	aa90e093          	ori	ra,ra,-1367
    ed78:	73d14213          	xori	tp,sp,1853
    ed7c:	8e238113          	addi	sp,t2,-1822 # 0x6c1d153a
    ed80:	071e5117          	auipc	sp,0x71e5
    ed84:	154d1137          	lui	sp,0x154d1
    ed88:	9fc0f093          	andi	ra,ra,-1540
    ed8c:	00127133          	and	sp,tp,ra
    ed90:	001200b3          	add	ra,tp,ra
    ed94:	34384017          	auipc	zero,0x34384
    ed98:	7a985137          	lui	sp,0x7a985
    ed9c:	000570b3          	and	ra,a0,zero
    eda0:	0024c333          	xor	t1,s1,sp
    eda4:	0e509197          	auipc	gp,0xe509
    eda8:	bc42e1b7          	lui	gp,0xbc42e
    edac:	00317133          	and	sp,sp,gp
    edb0:	545bf137          	lui	sp,0x545bf
    edb4:	029210b7          	lui	ra,0x2921
    edb8:	2eff56b7          	lui	a3,0x2eff5
    edbc:	002b63b3          	or	t2,s6,sp
    edc0:	1a508263          	beq	ra,t0,0xef64
    edc4:	1a0003ef          	jal	t2,0xef64
    edc8:	49962097          	auipc	ra,0x49962
    edcc:	cdf970b7          	lui	ra,0xcdf97
    edd0:	84f16293          	ori	t0,sp,-1969
    edd4:	e0289317          	auipc	t1,0xe0289
    edd8:	f57bf1b7          	lui	gp,0xf57bf
    eddc:	023df1b7          	lui	gp,0x23df
    ede0:	009063b3          	or	t2,zero,s1
    ede4:	e1ffb1b7          	lui	gp,0xe1ffb
    ede8:	08a830b7          	lui	ra,0x8a83
    edec:	34d82197          	auipc	gp,0x34d82
    edf0:	408742b7          	lui	t0,0x40874
    edf4:	bc8091b7          	lui	gp,0xbc809
    edf8:	92a0c013          	xori	zero,ra,-1750
    edfc:	13d08113          	addi	sp,ra,317 # 0x8a8313d
    ee00:	00108233          	add	tp,ra,ra
    ee04:	eb686117          	auipc	sp,0xeb686
    ee08:	003766b3          	or	a3,a4,gp
    ee0c:	3f9f2037          	lui	zero,0x3f9f2
    ee10:	d4c0e093          	ori	ra,ra,-692
    ee14:	90c36193          	ori	gp,t1,-1780
    ee18:	bb43c097          	auipc	ra,0xbb43c
    ee1c:	7b98d0b7          	lui	ra,0x7b98d
    ee20:	00117133          	and	sp,sp,ra
    ee24:	04468117          	auipc	sp,0x4468
    ee28:	e1222097          	auipc	ra,0xe1222
    ee2c:	f1108113          	addi	sp,ra,-239 # 0xffffffffe1230d39
    ee30:	402103b3          	sub	t2,sp,sp
    ee34:	ca630193          	addi	gp,t1,-858 # 0xffffffffe0297a7a
    ee38:	0021c0b3          	xor	ra,gp,sp
    ee3c:	ad8870b7          	lui	ra,0xad887
    ee40:	aa7df137          	lui	sp,0xaa7df
    ee44:	015167b3          	or	a5,sp,s5
    ee48:	a0408213          	addi	tp,ra,-1532 # 0xffffffffad886a04
    ee4c:	04dff117          	auipc	sp,0x4dff
    ee50:	00110033          	add	zero,sp,ra
    ee54:	00000117          	auipc	sp,0x0
    ee58:	32010ae7          	jalr	s5,800(sp) # 0xf174
    ee5c:	0001c133          	xor	sp,gp,zero
    ee60:	a749e1b7          	lui	gp,0xa749e
    ee64:	73375037          	lui	zero,0x73375
    ee68:	a5328693          	addi	a3,t0,-1453 # 0x40873a53
    ee6c:	001341b3          	xor	gp,t1,ra
    ee70:	1d985197          	auipc	gp,0x1d985
    ee74:	cd4de117          	auipc	sp,0xcd4de
    ee78:	7ad0f313          	andi	t1,ra,1965
    ee7c:	9031e193          	ori	gp,gp,-1789
    ee80:	e63f70b7          	lui	ra,0xe63f7
    ee84:	001171b3          	and	gp,sp,ra
    ee88:	15238693          	addi	a3,t2,338
    ee8c:	0da0c213          	xori	tp,ra,218
    ee90:	31fe9097          	auipc	ra,0x31fe9
    ee94:	e5b4b017          	auipc	zero,0xe5b4b
    ee98:	a235e337          	lui	t1,0xa235e
    ee9c:	00217133          	and	sp,sp,sp
    eea0:	001061b3          	or	gp,zero,ra
    eea4:	b631f313          	andi	t1,gp,-1181
    eea8:	b6b4d097          	auipc	ra,0xb6b4d
    eeac:	1eb1f213          	andi	tp,gp,491
    eeb0:	d46ed1b7          	lui	gp,0xd46ed
    eeb4:	8401f213          	andi	tp,gp,-1984
    eeb8:	019101b3          	add	gp,sp,s9
    eebc:	46f04113          	xori	sp,zero,1135
    eec0:	e0d5e113          	ori	sp,a1,-499
    eec4:	7aa8e097          	auipc	ra,0x7aa8e
    eec8:	b661f193          	andi	gp,gp,-1178
    eecc:	c5266137          	lui	sp,0xc5266
    eed0:	4c200a63          	beq	zero,sp,0xf3a4
    eed4:	4d0000ef          	jal	ra,0xf3a4
    eed8:	009180b3          	add	ra,gp,s1
    eedc:	cdee0137          	lui	sp,0xcdee0
    eee0:	e5cb4117          	auipc	sp,0xe5cb4
    eee4:	d55ae137          	lui	sp,0xd55ae
    eee8:	94a30193          	addi	gp,t1,-1718 # 0xffffffffa235d94a
    eeec:	c4a0d2b7          	lui	t0,0xc4a0d
    eef0:	180bd1b7          	lui	gp,0x180bd
    eef4:	8ef24193          	xori	gp,tp,-1809
    eef8:	9f20c113          	xori	sp,ra,-1550
    eefc:	31d47117          	auipc	sp,0x31d47
    ef00:	8d7331b7          	lui	gp,0x8d733
    ef04:	0035f1b3          	and	gp,a1,gp
    ef08:	61dbf017          	auipc	zero,0x61dbf
    ef0c:	0060e0b3          	or	ra,ra,t1
    ef10:	b9b3e197          	auipc	gp,0xb9b3e
    ef14:	003180b3          	add	ra,gp,gp
    ef18:	2e60d1b7          	lui	gp,0x2e60d
    ef1c:	40438033          	sub	zero,t2,tp
    ef20:	ebc36093          	ori	ra,t1,-324
    ef24:	cecbe017          	auipc	zero,0xcecbe
    ef28:	c8e36193          	ori	gp,t1,-882
    ef2c:	ade0f093          	andi	ra,ra,-1314
    ef30:	02eca0b7          	lui	ra,0x2eca
    ef34:	f6e0d097          	auipc	ra,0xf6e0d
    ef38:	1295b117          	auipc	sp,0x1295b
    ef3c:	e1514593          	xori	a1,sp,-491
    ef40:	23792117          	auipc	sp,0x23792
    ef44:	003373b3          	and	t2,t1,gp
    ef48:	002271b3          	and	gp,tp,sp
    ef4c:	5070b0b7          	lui	ra,0x5070b
    ef50:	00114133          	xor	sp,sp,ra
    ef54:	55e37113          	andi	sp,t1,1374
    ef58:	4d533297          	auipc	t0,0x4d533
    ef5c:	00030093          	mv	ra,t1
    ef60:	cc6080e3          	beq	ra,t1,0xec20
    ef64:	48ab5197          	auipc	gp,0x48ab5
    ef68:	ec9b1497          	auipc	s1,0xec9b1
    ef6c:	2140f193          	andi	gp,ra,532
    ef70:	40110433          	sub	s0,sp,ra
    ef74:	b3bdf017          	auipc	zero,0xb3bdf
    ef78:	31c45137          	lui	sp,0x31c45
    ef7c:	bf2640b7          	lui	ra,0xbf264
    ef80:	e1962097          	auipc	ra,0xe1962
    ef84:	3d22e193          	ori	gp,t0,978
    ef88:	4ede5197          	auipc	gp,0x4ede5
    ef8c:	b5b81317          	auipc	t1,0xb5b81
    ef90:	ed510093          	addi	ra,sp,-299 # 0x31c44ed5
    ef94:	00216133          	or	sp,sp,sp
    ef98:	b740f0b7          	lui	ra,0xb740f
    ef9c:	87778197          	auipc	gp,0x87778
    efa0:	d2889097          	auipc	ra,0xd2889
    efa4:	cd405217          	auipc	tp,0xcd405
    efa8:	00218333          	add	t1,gp,sp
    efac:	36e5a4b7          	lui	s1,0x36e5a
    efb0:	1b10e113          	ori	sp,ra,433
    efb4:	00137133          	and	sp,t1,ra
    efb8:	b62c65b7          	lui	a1,0xb62c6
    efbc:	402101b3          	sub	gp,sp,sp
    efc0:	e75be197          	auipc	gp,0xe75be
    efc4:	001100b3          	add	ra,sp,ra
    efc8:	b9b141b7          	lui	gp,0xb9b14
    efcc:	0011f3b3          	and	t2,gp,ra
    efd0:	0ed59337          	lui	t1,0xed59
    efd4:	00738133          	add	sp,t2,t2
    efd8:	b2efb037          	lui	zero,0xb2efb
    efdc:	07c10093          	addi	ra,sp,124
    efe0:	51f62197          	auipc	gp,0x51f62
    efe4:	a05088e3          	beq	ra,t0,0xe9f4
    efe8:	a0dff1ef          	jal	gp,0xe9f4
    efec:	184e3297          	auipc	t0,0x184e3
    eff0:	7131c113          	xori	sp,gp,1811
    eff4:	2d214093          	xori	ra,sp,722
    eff8:	3e916193          	ori	gp,sp,1001
    effc:	b8844137          	lui	sp,0xb8844
    f000:	b163f197          	auipc	gp,0xb163f
    f004:	40210133          	sub	sp,sp,sp
    f008:	64bc2137          	lui	sp,0x64bc2
    f00c:	b5bc3317          	auipc	t1,0xb5bc3
    f010:	0041e133          	or	sp,gp,tp
    f014:	004361b3          	or	gp,t1,tp
    f018:	3ef6b3b7          	lui	t2,0x3ef6b
    f01c:	94f86397          	auipc	t2,0x94f86
    f020:	e27cef37          	lui	t5,0xe27ce
    f024:	564b6097          	auipc	ra,0x564b6
    f028:	7299f017          	auipc	zero,0x7299f
    f02c:	04b3c193          	xori	gp,t2,75
    f030:	f542f113          	andi	sp,t0,-172
    f034:	007640b3          	xor	ra,a2,t2
    f038:	38df3097          	auipc	ra,0x38df3
    f03c:	400301b3          	sub	gp,t1,zero
    f040:	e4a8c0b7          	lui	ra,0xe4a8c
    f044:	725a00b7          	lui	ra,0x725a0
    f048:	7af56097          	auipc	ra,0x7af56
    f04c:	6f10c093          	xori	ra,ra,1777
    f050:	002081b3          	add	gp,ra,sp
    f054:	632983b7          	lui	t2,0x63298
    f058:	c511c193          	xori	gp,gp,-943
    f05c:	d391c113          	xori	sp,gp,-711
    f060:	b2777097          	auipc	ra,0xb2777
    f064:	403181b3          	sub	gp,gp,gp
    f068:	8b31c093          	xori	ra,gp,-1869
    f06c:	cc7088e3          	beq	ra,t2,0xed3c
    f070:	ccdff8ef          	jal	a7,0xed3c
    f074:	0070c1b3          	xor	gp,ra,t2
    f078:	4b6fe217          	auipc	tp,0x4b6fe
    f07c:	340b1797          	auipc	a5,0x340b1
    f080:	98fa4117          	auipc	sp,0x98fa4
    f084:	4ed0f093          	andi	ra,ra,1261
    f088:	0071f333          	and	t1,gp,t2
    f08c:	11b27113          	andi	sp,tp,283
    f090:	6801a337          	lui	t1,0x6801a
    f094:	aa116393          	ori	t2,sp,-1375
    f098:	000080b3          	add	ra,ra,zero
    f09c:	20f2c097          	auipc	ra,0x20f2c
    f0a0:	c94a81b7          	lui	gp,0xc94a8
    f0a4:	003182b3          	add	t0,gp,gp
    f0a8:	40710cb3          	sub	s9,sp,t2
    f0ac:	0051e333          	or	t1,gp,t0
    f0b0:	40210133          	sub	sp,sp,sp
    f0b4:	22410093          	addi	ra,sp,548 # 0xffffffff98fb32a4
    f0b8:	7c005137          	lui	sp,0x7c005
    f0bc:	ff7c51b7          	lui	gp,0xff7c5
    f0c0:	f32f8017          	auipc	zero,0xf32f8
    f0c4:	001100b3          	add	ra,sp,ra
    f0c8:	a9420213          	addi	tp,tp,-1388 # 0x4b70cb0c
    f0cc:	8b441397          	auipc	t2,0x8b441
    f0d0:	87e06113          	ori	sp,zero,-1922
    f0d4:	62608113          	addi	sp,ra,1574 # 0x20f3b6c2
    f0d8:	0e141197          	auipc	gp,0xe141
    f0dc:	00108133          	add	sp,ra,ra
    f0e0:	11a2f017          	auipc	zero,0x11a2f
    f0e4:	22308a63          	beq	ra,gp,0xf318
    f0e8:	230000ef          	jal	ra,0xf318
    f0ec:	00f46133          	or	sp,s0,a5
    f0f0:	1daa7137          	lui	sp,0x1daa7
    f0f4:	f9df7137          	lui	sp,0xf9df7
    f0f8:	0010c1b3          	xor	gp,ra,ra
    f0fc:	2d5b31b7          	lui	gp,0x2d5b3
    f100:	f8a00397          	auipc	t2,0xf8a00
    f104:	cae08337          	lui	t1,0xcae08
    f108:	00204133          	xor	sp,zero,sp
    f10c:	7ea12117          	auipc	sp,0x7ea12
    f110:	68a27113          	andi	sp,tp,1674
    f114:	10b3f197          	auipc	gp,0x10b3f
    f118:	0ee48097          	auipc	ra,0xee48
    f11c:	098d6197          	auipc	gp,0x98d6
    f120:	c851f093          	andi	ra,gp,-891
    f124:	00ac7197          	auipc	gp,0xac7
    f128:	402101b3          	sub	gp,sp,sp
    f12c:	77c24137          	lui	sp,0x77c24
    f130:	acb14013          	xori	zero,sp,-1333
    f134:	61876117          	auipc	sp,0x61876
    f138:	002160b3          	or	ra,sp,sp
    f13c:	007a4333          	xor	t1,s4,t2
    f140:	a1ee10b7          	lui	ra,0xa1ee1
    f144:	0023f6b3          	and	a3,t2,sp
    f148:	0551c613          	xori	a2,gp,85
    f14c:	73007213          	andi	tp,zero,1840
    f150:	f830a197          	auipc	gp,0xf830a
    f154:	dc636093          	ori	ra,t1,-570
    f158:	a94a7117          	auipc	sp,0xa94a7
    f15c:	29b18113          	addi	sp,gp,667 # 0xfffffffff83193eb
    f160:	9112ee93          	ori	t4,t0,-1775
    f164:	00224233          	xor	tp,tp,sp
    f168:	a2157197          	auipc	gp,0xa2157
    f16c:	901006e3          	beq	zero,ra,0xea78
    f170:	909ff2ef          	jal	t0,0xea78
    f174:	cff1c093          	xori	ra,gp,-769
    f178:	5d79a197          	auipc	gp,0x5d79a
    f17c:	33a1e113          	ori	sp,gp,826
    f180:	8bf80737          	lui	a4,0x8bf80
    f184:	00216233          	or	tp,sp,sp
    f188:	a6814113          	xori	sp,sp,-1432
    f18c:	32b1e697          	auipc	a3,0x32b1e
    f190:	5b408193          	addi	gp,ra,1460 # 0xffffffffa1ee15b4
    f194:	7ad1f093          	andi	ra,gp,1965
    f198:	c97f7217          	auipc	tp,0xc97f7
    f19c:	0011f0b3          	and	ra,gp,ra
    f1a0:	377e4017          	auipc	zero,0x377e4
    f1a4:	4188f2b7          	lui	t0,0x4188f
    f1a8:	00316133          	or	sp,sp,gp
    f1ac:	85de10b7          	lui	ra,0x85de1
    f1b0:	0035c1b3          	xor	gp,a1,gp
    f1b4:	005180b3          	add	ra,gp,t0
    f1b8:	003182b3          	add	t0,gp,gp
    f1bc:	aa8553b7          	lui	t2,0xaa855
    f1c0:	402583b3          	sub	t2,a1,sp
    f1c4:	0e2bce37          	lui	t3,0xe2bc
    f1c8:	0011f1b3          	and	gp,gp,ra
    f1cc:	00514333          	xor	t1,sp,t0
    f1d0:	0063f4b3          	and	s1,t2,t1
    f1d4:	bc572397          	auipc	t2,0xbc572
    f1d8:	45d0f213          	andi	tp,ra,1117
    f1dc:	018040b3          	xor	ra,zero,s8
    f1e0:	09220197          	auipc	gp,0x9220
    f1e4:	c6f18193          	addi	gp,gp,-913 # 0x922ee4f
    f1e8:	cab2b117          	auipc	sp,0xcab2b
    f1ec:	7ce960b7          	lui	ra,0x7ce96
    f1f0:	f870f313          	andi	t1,ra,-121
    f1f4:	08308c63          	beq	ra,gp,0xf28c
    f1f8:	0940036f          	jal	t1,0xf28c
    f1fc:	94d01137          	lui	sp,0x94d01
    f200:	002141b3          	xor	gp,sp,sp
    f204:	8091c313          	xori	t1,gp,-2039
    f208:	d7a18193          	addi	gp,gp,-646
    f20c:	15d011b7          	lui	gp,0x15d01
    f210:	0060f133          	and	sp,ra,t1
    f214:	403081b3          	sub	gp,ra,gp
    f218:	7c4cd997          	auipc	s3,0x7c4cd
    f21c:	75114313          	xori	t1,sp,1873
    f220:	b4b0f113          	andi	sp,ra,-1205
    f224:	40108133          	sub	sp,ra,ra
    f228:	107fa017          	auipc	zero,0x107fa
    f22c:	4a917293          	andi	t0,sp,1193
    f230:	de176117          	auipc	sp,0xde176
    f234:	00616133          	or	sp,sp,t1
    f238:	0030f1b3          	and	gp,ra,gp
    f23c:	c6aba197          	auipc	gp,0xc6aba
    f240:	eff1f093          	andi	ra,gp,-257
    f244:	65c14093          	xori	ra,sp,1628
    f248:	421d41b7          	lui	gp,0x421d4
    f24c:	8aa1c117          	auipc	sp,0x8aa1c
    f250:	e85c9097          	auipc	ra,0xe85c9
    f254:	82c6a137          	lui	sp,0x82c6a
    f258:	002161b3          	or	gp,sp,sp
    f25c:	002100b3          	add	ra,sp,sp
    f260:	0011f7b3          	and	a5,gp,ra
    f264:	6c60c113          	xori	sp,ra,1734
    f268:	0a790197          	auipc	gp,0xa790
    f26c:	564a31b7          	lui	gp,0x564a3
    f270:	00317133          	and	sp,sp,gp
    f274:	003140b3          	xor	ra,sp,gp
    f278:	5971e093          	ori	ra,gp,1431
    f27c:	e7858317          	auipc	t1,0xe7858
    f280:	b5c1e193          	ori	gp,gp,-1188
    f284:	24218663          	beq	gp,sp,0xf4d0
    f288:	2480016f          	jal	sp,0xf4d0
    f28c:	a1f88317          	auipc	t1,0xa1f88
    f290:	33fa50b7          	lui	ra,0x33fa5
    f294:	003b81b3          	add	gp,s7,gp
    f298:	002170b3          	and	ra,sp,sp
    f29c:	e78eb097          	auipc	ra,0xe78eb
    f2a0:	8dd8f0b7          	lui	ra,0x8dd8f
    f2a4:	e03c9097          	auipc	ra,0xe03c9
    f2a8:	0021e233          	or	tp,gp,sp
    f2ac:	001171b3          	and	gp,sp,ra
    f2b0:	3eb06013          	ori	zero,zero,1003
    f2b4:	00134333          	xor	t1,t1,ra
    f2b8:	8ce72017          	auipc	zero,0x8ce72
    f2bc:	99c4d137          	lui	sp,0x99c4d
    f2c0:	41f68133          	sub	sp,a3,t6
    f2c4:	eac84013          	xori	zero,a6,-340
    f2c8:	403000b3          	neg	ra,gp
    f2cc:	0000f133          	and	sp,ra,zero
    f2d0:	1033f293          	andi	t0,t2,259
    f2d4:	3d11c493          	xori	s1,gp,977
    f2d8:	003142b3          	xor	t0,sp,gp
    f2dc:	074b4293          	xori	t0,s6,116
    f2e0:	00417133          	and	sp,sp,tp
    f2e4:	5821c113          	xori	sp,gp,1410
    f2e8:	d77a9197          	auipc	gp,0xd77a9
    f2ec:	849331b7          	lui	gp,0x84933
    f2f0:	baf6a197          	auipc	gp,0xbaf6a
    f2f4:	8421e093          	ori	ra,gp,-1982
    f2f8:	5f0b61b7          	lui	gp,0x5f0b6
    f2fc:	840ef1b7          	lui	gp,0x840ef
    f300:	2803d097          	auipc	ra,0x2803d
    f304:	2f508213          	addi	tp,ra,757 # 0x2804c5f5
    f308:	00f2e133          	or	sp,t0,a5
    f30c:	58856197          	auipc	gp,0x58856
    f310:	00000197          	auipc	gp,0x0
    f314:	d6418167          	jalr	sp,-668(gp) # 0xf074
    f318:	4f5cf197          	auipc	gp,0x4f5cf
    f31c:	f5f08093          	addi	ra,ra,-161
    f320:	71e880b7          	lui	ra,0x71e88
    f324:	d0b17113          	andi	sp,sp,-757
    f328:	82e68237          	lui	tp,0x82e68
    f32c:	8bbb20b7          	lui	ra,0x8bbb2
    f330:	57708093          	addi	ra,ra,1399 # 0xffffffff8bbb2577
    f334:	184c40b7          	lui	ra,0x184c4
    f338:	5a5907b7          	lui	a5,0x5a590
    f33c:	0060c0b3          	xor	ra,ra,t1
    f340:	4efbd097          	auipc	ra,0x4efbd
    f344:	894b62b7          	lui	t0,0x894b6
    f348:	b9267197          	auipc	gp,0xb9267
    f34c:	41754093          	xori	ra,a0,1047
    f350:	f78dc137          	lui	sp,0xf78dc
    f354:	0011c1b3          	xor	gp,gp,ra
    f358:	215f6097          	auipc	ra,0x215f6
    f35c:	af5ea297          	auipc	t0,0xaf5ea
    f360:	4c1192b7          	lui	t0,0x4c119
    f364:	d8a3c013          	xori	zero,t2,-630
    f368:	0010c1b3          	xor	gp,ra,ra
    f36c:	7825d137          	lui	sp,0x7825d
    f370:	1541e093          	ori	ra,gp,340
    f374:	7edcc013          	xori	zero,s9,2029
    f378:	d020f213          	andi	tp,ra,-766
    f37c:	9d34e297          	auipc	t0,0x9d34e
    f380:	0ede4317          	auipc	t1,0xede4
    f384:	7b71f617          	auipc	a2,0x7b71f
    f388:	002061b3          	or	gp,zero,sp
    f38c:	6bb1c093          	xori	ra,gp,1723
    f390:	7e124193          	xori	gp,tp,2017
    f394:	f282f113          	andi	sp,t0,-216
    f398:	4b918193          	addi	gp,gp,1209 # 0xffffffffb9276801
    f39c:	00000117          	auipc	sp,0x0
    f3a0:	d50101e7          	jalr	gp,-688(sp) # 0xf0ec
    f3a4:	c72bd237          	lui	tp,0xc72bd
    f3a8:	6dc68037          	lui	zero,0x6dc68
    f3ac:	94e73117          	auipc	sp,0x94e73
    f3b0:	0070f133          	and	sp,ra,t2
    f3b4:	510aa1b7          	lui	gp,0x510aa
    f3b8:	01c0e133          	or	sp,ra,t3
    f3bc:	7c3d9137          	lui	sp,0x7c3d9
    f3c0:	e574b217          	auipc	tp,0xe574b
    f3c4:	de618093          	addi	ra,gp,-538 # 0x510a9de6
    f3c8:	d85ee097          	auipc	ra,0xd85ee
    f3cc:	002260b3          	or	ra,tp,sp
    f3d0:	e7a431b7          	lui	gp,0xe7a43
    f3d4:	e4a17137          	lui	sp,0xe4a17
    f3d8:	40218133          	sub	sp,gp,sp
    f3dc:	76945137          	lui	sp,0x76945
    f3e0:	4cf33097          	auipc	ra,0x4cf33
    f3e4:	d2b0c093          	xori	ra,ra,-725
    f3e8:	8be79297          	auipc	t0,0x8be79
    f3ec:	c8936093          	ori	ra,t1,-887
    f3f0:	2c00f193          	andi	gp,ra,704
    f3f4:	51a10313          	addi	t1,sp,1306 # 0x7694551a
    f3f8:	002161b3          	or	gp,sp,sp
    f3fc:	00f370b3          	and	ra,t1,a5
    f400:	003380b3          	add	ra,t2,gp
    f404:	9a6ac1b7          	lui	gp,0x9a6ac
    f408:	a896a1b7          	lui	gp,0xa896a
    f40c:	cd1f4197          	auipc	gp,0xcd1f4
    f410:	001173b3          	and	t2,sp,ra
    f414:	6d95c093          	xori	ra,a1,1753
    f418:	231510b7          	lui	ra,0x23151
    f41c:	002f6533          	or	a0,t5,sp
    f420:	b174d137          	lui	sp,0xb174d
    f424:	7bc47197          	auipc	gp,0x7bc47
    f428:	df1d50b7          	lui	ra,0xdf1d5
    f42c:	00400033          	add	zero,zero,tp
    f430:	ba148ee3          	beq	s1,ra,0xefec
    f434:	bb9ff3ef          	jal	t2,0xefec
    f438:	5342c197          	auipc	gp,0x5342c
    f43c:	2ea10093          	addi	ra,sp,746 # 0xffffffffb174d2ea
    f440:	f200c113          	xori	sp,ra,-224
    f444:	714f6197          	auipc	gp,0x714f6
    f448:	09816113          	ori	sp,sp,152
    f44c:	a62d00b7          	lui	ra,0xa62d0
    f450:	e0028213          	addi	tp,t0,-512 # 0xffffffff8be881e8
    f454:	9219e197          	auipc	gp,0x9219e
    f458:	40300133          	neg	sp,gp
    f45c:	003272b3          	and	t0,tp,gp
    f460:	000261b3          	or	gp,tp,zero
    f464:	5c2d8397          	auipc	t2,0x5c2d8
    f468:	6193c297          	auipc	t0,0x6193c
    f46c:	89a0c113          	xori	sp,ra,-1894
    f470:	7b5fc1b7          	lui	gp,0x7b5fc
    f474:	24f37193          	andi	gp,t1,591
    f478:	0031f0b3          	and	ra,gp,gp
    f47c:	0be1c793          	xori	a5,gp,190
    f480:	00b0f0b3          	and	ra,ra,a1
    f484:	14e0e093          	ori	ra,ra,334
    f488:	e146e093          	ori	ra,a3,-492
    f48c:	00d16133          	or	sp,sp,a3
    f490:	5e5cc097          	auipc	ra,0x5e5cc
    f494:	00214133          	xor	sp,sp,sp
    f498:	23349197          	auipc	gp,0x23349
    f49c:	003180b3          	add	ra,gp,gp
    f4a0:	0003c0b3          	xor	ra,t2,zero
    f4a4:	003284b3          	add	s1,t0,gp
    f4a8:	0011e133          	or	sp,gp,ra
    f4ac:	002181b3          	add	gp,gp,sp
    f4b0:	9a616193          	ori	gp,sp,-1626
    f4b4:	f109b097          	auipc	ra,0xf109b
    f4b8:	331391b7          	lui	gp,0x33139
    f4bc:	476260b7          	lui	ra,0x47626
    f4c0:	fe8da137          	lui	sp,0xfe8da
    f4c4:	f74c6197          	auipc	gp,0xf74c6
    f4c8:	00028113          	mv	sp,t0
    f4cc:	a05106e3          	beq	sp,t0,0xeed8
    f4d0:	da514113          	xori	sp,sp,-603
    f4d4:	0021c133          	xor	sp,gp,sp
    f4d8:	2aaca097          	auipc	ra,0x2aaca
    f4dc:	002141b3          	xor	gp,sp,sp
    f4e0:	6840e093          	ori	ra,ra,1668
    f4e4:	4ef36017          	auipc	zero,0x4ef36
    f4e8:	2386e197          	auipc	gp,0x2386e
    f4ec:	84cedd97          	auipc	s11,0x84ced
    f4f0:	40b085b3          	sub	a1,ra,a1
    f4f4:	002061b3          	or	gp,zero,sp
    f4f8:	23a30097          	auipc	ra,0x23a30
    f4fc:	7ea28d93          	addi	s11,t0,2026 # 0x6194bc52
    f500:	a8e1e013          	ori	zero,gp,-1394
    f504:	dbb7b217          	auipc	tp,0xdbb7b
    f508:	00d101b3          	add	gp,sp,a3
    f50c:	f7716013          	ori	zero,sp,-137
    f510:	505a7217          	auipc	tp,0x505a7
    f514:	524b6117          	auipc	sp,0x524b6
    f518:	68adb197          	auipc	gp,0x68adb
    f51c:	403081b3          	sub	gp,ra,gp
    f520:	554dd1b7          	lui	gp,0x554dd
    f524:	6b4d8397          	auipc	t2,0x6b4d8
    f528:	f7475097          	auipc	ra,0xf7475
    f52c:	0071e033          	or	zero,gp,t2
    f530:	33f8a217          	auipc	tp,0x33f8a
    f534:	001171b3          	and	gp,sp,ra
    f538:	a4ec8117          	auipc	sp,0xa4ec8
    f53c:	0102f133          	and	sp,t0,a6
    f540:	003171b3          	and	gp,sp,gp
    f544:	004171b3          	and	gp,sp,tp
    f548:	24432197          	auipc	gp,0x24432
    f54c:	e530e297          	auipc	t0,0xe530e
    f550:	f530e113          	ori	sp,ra,-173
    f554:	00008193          	mv	gp,ra
    f558:	64118663          	beq	gp,ra,0xfba4
    f55c:	f651f093          	andi	ra,gp,-155
    f560:	eb20f093          	andi	ra,ra,-334
    f564:	aea1c213          	xori	tp,gp,-1302
    f568:	88b0c793          	xori	a5,ra,-1909
    f56c:	b42f8197          	auipc	gp,0xb42f8
    f570:	0020cb33          	xor	s6,ra,sp
    f574:	0778f237          	lui	tp,0x778f
    f578:	0010e1b3          	or	gp,ra,ra
    f57c:	44878bb7          	lui	s7,0x44878
    f580:	d8d0ee97          	auipc	t4,0xd8d0e
    f584:	d4c5b017          	auipc	zero,0xd4c5b
    f588:	61448217          	auipc	tp,0x61448
    f58c:	92108013          	addi	zero,ra,-1759 # 0xfffffffff7483e49
    f590:	31ad2337          	lui	t1,0x31ad2
    f594:	e3a16313          	ori	t1,sp,-454
    f598:	9b20b137          	lui	sp,0x9b20b
    f59c:	9984d197          	auipc	gp,0x9984d
    f5a0:	7482ba37          	lui	s4,0x7482b
    f5a4:	0021f1b3          	and	gp,gp,sp
    f5a8:	2fc72217          	auipc	tp,0x2fc72
    f5ac:	02e65137          	lui	sp,0x2e65
    f5b0:	da5a9137          	lui	sp,0xda5a9
    f5b4:	057e4117          	auipc	sp,0x57e4
    f5b8:	779b80b7          	lui	ra,0x779b8
    f5bc:	405081b3          	sub	gp,ra,t0
    f5c0:	00b14133          	xor	sp,sp,a1
    f5c4:	62e6f2b7          	lui	t0,0x62e6f
    f5c8:	354740b7          	lui	ra,0x35474
    f5cc:	8770e337          	lui	t1,0x8770e
    f5d0:	67c083b7          	lui	t2,0x67c08
    f5d4:	fa4e6113          	ori	sp,t3,-92
    f5d8:	aef1c113          	xori	sp,gp,-1297
    f5dc:	1ba08093          	addi	ra,ra,442 # 0x354741ba
    f5e0:	4bf10663          	beq	sp,t6,0xfa8c
    f5e4:	4a8003ef          	jal	t2,0xfa8c
    f5e8:	c1c0e2b7          	lui	t0,0xc1c0e
    f5ec:	00234133          	xor	sp,t1,sp
    f5f0:	b8936113          	ori	sp,t1,-1143
    f5f4:	1b716093          	ori	ra,sp,439
    f5f8:	403085b3          	sub	a1,ra,gp
    f5fc:	853a9797          	auipc	a5,0x853a9
    f600:	bc30f193          	andi	gp,ra,-1085
    f604:	40210333          	sub	t1,sp,sp
    f608:	005341b3          	xor	gp,t1,t0
    f60c:	cd33f113          	andi	sp,t2,-813
    f610:	e960e0b7          	lui	ra,0xe960e
    f614:	7360e113          	ori	sp,ra,1846
    f618:	402081b3          	sub	gp,ra,sp
    f61c:	2bde1037          	lui	zero,0x2bde1
    f620:	003181b3          	add	gp,gp,gp
    f624:	64cfa197          	auipc	gp,0x64cfa
    f628:	80a363b7          	lui	t2,0x80a36
    f62c:	111ab097          	auipc	ra,0x111ab
    f630:	fb94a0b7          	lui	ra,0xfb94a
    f634:	47cef337          	lui	t1,0x47cef
    f638:	e8ca6193          	ori	gp,s4,-372
    f63c:	018180b3          	add	ra,gp,s8
    f640:	db204293          	xori	t0,zero,-590
    f644:	9db590b7          	lui	ra,0x9db59
    f648:	6471f093          	andi	ra,gp,1607
    f64c:	91766137          	lui	sp,0x91766
    f650:	07706137          	lui	sp,0x7706
    f654:	7200c093          	xori	ra,ra,1824
    f658:	16de6137          	lui	sp,0x16de6
    f65c:	401101b3          	sub	gp,sp,ra
    f660:	a151e893          	ori	a7,gp,-1515
    f664:	7b218113          	addi	sp,gp,1970 # 0x64d09dd6
    f668:	78688197          	auipc	gp,0x78688
    f66c:	01416eb3          	or	t4,sp,s4
    f670:	1828a0b7          	lui	ra,0x1828a
    f674:	16046137          	lui	sp,0x16046
    f678:	810c2397          	auipc	t2,0x810c2
    f67c:	00030093          	mv	ra,t1
    f680:	7c608a63          	beq	ra,t1,0xfe54
    f684:	c6ed9117          	auipc	sp,0xc6ed9
    f688:	bff1c093          	xori	ra,gp,-1025
    f68c:	0793f037          	lui	zero,0x793f
    f690:	89436197          	auipc	gp,0x89436
    f694:	68138093          	addi	ra,t2,1665 # 0xffffffff810d1cf9
    f698:	6cf7e313          	ori	t1,a5,1743
    f69c:	b645e1b7          	lui	gp,0xb645e
    f6a0:	6c7ef037          	lui	zero,0x6c7ef
    f6a4:	0030e133          	or	sp,ra,gp
    f6a8:	6251ef93          	ori	t6,gp,1573
    f6ac:	baea1337          	lui	t1,0xbaea1
    f6b0:	c3a7f637          	lui	a2,0xc3a7f
    f6b4:	5ee0e013          	ori	zero,ra,1518
    f6b8:	af39f337          	lui	t1,0xaf39f
    f6bc:	1a4e1097          	auipc	ra,0x1a4e1
    f6c0:	4cb7b117          	auipc	sp,0x4cb7b
    f6c4:	fa66e1b7          	lui	gp,0xfa66e
    f6c8:	00137233          	and	tp,t1,ra
    f6cc:	7d80b237          	lui	tp,0x7d80b
    f6d0:	00f3c293          	xori	t0,t2,15
    f6d4:	fc4d4213          	xori	tp,s10,-60
    f6d8:	ed50f093          	andi	ra,ra,-299
    f6dc:	007141b3          	xor	gp,sp,t2
    f6e0:	f3116093          	ori	ra,sp,-207
    f6e4:	ba33c1b7          	lui	gp,0xba33c
    f6e8:	14788197          	auipc	gp,0x14788
    f6ec:	e5fc9137          	lui	sp,0xe5fc9
    f6f0:	c5c431b7          	lui	gp,0xc5c43
    f6f4:	acc18093          	addi	ra,gp,-1332 # 0xffffffffc5c42acc
    f6f8:	c569a137          	lui	sp,0xc569a
    f6fc:	5cfaa097          	auipc	ra,0x5cfaa
    f700:	a183e113          	ori	sp,t2,-1512
    f704:	7866a1b7          	lui	gp,0x7866a
    f708:	0061f0b3          	and	ra,gp,t1
    f70c:	04024193          	xori	gp,tp,64
    f710:	d54970b7          	lui	ra,0xd5497
    f714:	00028193          	mv	gp,t0
    f718:	2e518063          	beq	gp,t0,0xf9f8
    f71c:	7164fb93          	andi	s7,s1,1814
    f720:	8df1f193          	andi	gp,gp,-1825
    f724:	00214133          	xor	sp,sp,sp
    f728:	65418193          	addi	gp,gp,1620 # 0x7866a654
    f72c:	1436e0b7          	lui	ra,0x1436e
    f730:	e7b2e117          	auipc	sp,0xe7b2e
    f734:	0011c133          	xor	sp,gp,ra
    f738:	b6770137          	lui	sp,0xb6770
    f73c:	1a1520b7          	lui	ra,0x1a152
    f740:	00a101b3          	add	gp,sp,a0
    f744:	00b3e1b3          	or	gp,t2,a1
    f748:	e5924293          	xori	t0,tp,-423
    f74c:	044ea1b7          	lui	gp,0x44ea
    f750:	51162117          	auipc	sp,0x51162
    f754:	e1414193          	xori	gp,sp,-492
    f758:	401180b3          	sub	ra,gp,ra
    f75c:	31e0a097          	auipc	ra,0x31e0a
    f760:	0022f133          	and	sp,t0,sp
    f764:	296971b7          	lui	gp,0x29697
    f768:	aa2e2117          	auipc	sp,0xaa2e2
    f76c:	0010c133          	xor	sp,ra,ra
    f770:	419780b3          	sub	ra,a5,s9
    f774:	7fe18193          	addi	gp,gp,2046 # 0x296977fe
    f778:	efa1c113          	xori	sp,gp,-262
    f77c:	a1e994b7          	lui	s1,0xa1e99
    f780:	2425b137          	lui	sp,0x2425b
    f784:	ecfb7137          	lui	sp,0xecfb7
    f788:	1d1e9117          	auipc	sp,0x1d1e9
    f78c:	36f18213          	addi	tp,gp,879
    f790:	3b925137          	lui	sp,0x3b925
    f794:	4ba6f0b7          	lui	ra,0x4ba6f
    f798:	422392b7          	lui	t0,0x42239
    f79c:	0522f313          	andi	t1,t0,82
    f7a0:	00014333          	xor	t1,sp,zero
    f7a4:	4b107137          	lui	sp,0x4b107
    f7a8:	7db7e397          	auipc	t2,0x7db7e
    f7ac:	4f46a117          	auipc	sp,0x4f46a
    f7b0:	00000513          	li	a0,0
    f7b4:	23300093          	li	ra,563
    f7b8:	23333137          	lui	sp,0x23333
    f7bc:	00113023          	sd	ra,0(sp) # 0x23333000
    f7c0:	0005006b          	0x5006b
    f7c4:	00000093          	li	ra,0
    f7c8:	0000006f          	j	0xf7c8
    f7cc:	080e3137          	lui	sp,0x80e3
    f7d0:	006ce1b3          	or	gp,s9,t1
    f7d4:	0021e133          	or	sp,gp,sp
    f7d8:	5f717093          	andi	ra,sp,1527
    f7dc:	ea7b2197          	auipc	gp,0xea7b2
    f7e0:	bbbcc097          	auipc	ra,0xbbbcc
    f7e4:	c8a0c113          	xori	sp,ra,-886
    f7e8:	28d1f113          	andi	sp,gp,653
    f7ec:	0020c133          	xor	sp,ra,sp
    f7f0:	85044137          	lui	sp,0x85044
    f7f4:	001100b3          	add	ra,sp,ra
    f7f8:	11464197          	auipc	gp,0x11464
    f7fc:	324bb0b7          	lui	ra,0x324bb
    f800:	0d043197          	auipc	gp,0xd043
    f804:	d269a097          	auipc	ra,0xd269a
    f808:	aca844b7          	lui	s1,0xaca84
    f80c:	5581f213          	andi	tp,gp,1368
    f810:	8ec191b7          	lui	gp,0x8ec19
    f814:	0029f1b3          	and	gp,s3,sp
    f818:	298a91b7          	lui	gp,0x298a9
    f81c:	98116093          	ori	ra,sp,-1663
    f820:	f4023117          	auipc	sp,0xf4023
    f824:	a9ced3b7          	lui	t2,0xa9ced
    f828:	5f38a0b7          	lui	ra,0x5f38a
    f82c:	0031c1b3          	xor	gp,gp,gp
    f830:	5681e093          	ori	ra,gp,1384
    f834:	eef6e013          	ori	zero,a3,-273
    f838:	760700b7          	lui	ra,0x76070
    f83c:	bf826093          	ori	ra,tp,-1032
    f840:	91174097          	auipc	ra,0x91174
    f844:	120421b7          	lui	gp,0x12042
    f848:	2680e493          	ori	s1,ra,616
    f84c:	85855197          	auipc	gp,0x85855
    f850:	003371b3          	and	gp,t1,gp
    f854:	00437133          	and	sp,t1,tp
    f858:	57930c63          	beq	t1,s9,0xfdd0
    f85c:	574001ef          	jal	gp,0xfdd0
    f860:	37773237          	lui	tp,0x37773
    f864:	40930133          	sub	sp,t1,s1
    f868:	bc0946b7          	lui	a3,0xbc094
    f86c:	41908133          	sub	sp,ra,s9
    f870:	48917017          	auipc	zero,0x48917
    f874:	a2c3c093          	xori	ra,t2,-1492
    f878:	0151cd13          	xori	s10,gp,21
    f87c:	40630133          	sub	sp,t1,t1
    f880:	0060e1b3          	or	gp,ra,t1
    f884:	001200b3          	add	ra,tp,ra
    f888:	00216133          	or	sp,sp,sp
    f88c:	003140b3          	xor	ra,sp,gp
    f890:	e1b011b7          	lui	gp,0xe1b01
    f894:	e0208193          	addi	gp,ra,-510 # 0xffffffff91183642
    f898:	d0b0c093          	xori	ra,ra,-757
    f89c:	3e40d117          	auipc	sp,0x3e40d
    f8a0:	0030e133          	or	sp,ra,gp
    f8a4:	67d032b7          	lui	t0,0x67d03
    f8a8:	003181b3          	add	gp,gp,gp
    f8ac:	b4298117          	auipc	sp,0xb4298
    f8b0:	00508133          	add	sp,ra,t0
    f8b4:	2fce8197          	auipc	gp,0x2fce8
    f8b8:	cf717113          	andi	sp,sp,-777
    f8bc:	62a041b7          	lui	gp,0x62a04
    f8c0:	94210193          	addi	gp,sp,-1726 # 0xffffffffb42a71ee
    f8c4:	40408133          	sub	sp,ra,tp
    f8c8:	6cc72337          	lui	t1,0x6cc72
    f8cc:	67227097          	auipc	ra,0x67227
    f8d0:	7f32e193          	ori	gp,t0,2035
    f8d4:	a717d1b7          	lui	gp,0xa717d
    f8d8:	40b0e193          	ori	gp,ra,1035
    f8dc:	96208593          	addi	a1,ra,-1694 # 0x6723622e
    f8e0:	e211f093          	andi	ra,gp,-479
    f8e4:	773891b7          	lui	gp,0x77389
    f8e8:	00000d97          	auipc	s11,0x0
    f8ec:	c74d80e7          	jalr	-908(s11) # 0xf55c
    f8f0:	405202b3          	sub	t0,tp,t0
    f8f4:	0010f2b3          	and	t0,ra,ra
    f8f8:	51210313          	addi	t1,sp,1298
    f8fc:	1951f193          	andi	gp,gp,405
    f900:	8507f0b7          	lui	ra,0x8507f
    f904:	00d171b3          	and	gp,sp,a3
    f908:	3131e193          	ori	gp,gp,787
    f90c:	751cd137          	lui	sp,0x751cd
    f910:	402189b3          	sub	s3,gp,sp
    f914:	0a824113          	xori	sp,tp,168
    f918:	a0eeb1b7          	lui	gp,0xa0eeb
    f91c:	29b42037          	lui	zero,0x29b42
    f920:	a7b6d0b7          	lui	ra,0xa7b6d
    f924:	0013f133          	and	sp,t2,ra
    f928:	94b06013          	ori	zero,zero,-1717
    f92c:	a3694013          	xori	zero,s2,-1482
    f930:	a41211b7          	lui	gp,0xa4121
    f934:	7208e0b7          	lui	ra,0x7208e
    f938:	001161b3          	or	gp,sp,ra
    f93c:	ee49d037          	lui	zero,0xee49d
    f940:	2585c137          	lui	sp,0x2585c
    f944:	1e98d0b7          	lui	ra,0x1e98d
    f948:	c6d902b7          	lui	t0,0xc6d90
    f94c:	d7a381b7          	lui	gp,0xd7a38
    f950:	f2c3b097          	auipc	ra,0xf2c3b
    f954:	61d72097          	auipc	ra,0x61d72
    f958:	6f116393          	ori	t2,sp,1777
    f95c:	73934313          	xori	t1,t1,1849
    f960:	60218093          	addi	ra,gp,1538 # 0xffffffffd7a38602
    f964:	402285b3          	sub	a1,t0,sp
    f968:	00000197          	auipc	gp,0x0
    f96c:	e6418367          	jalr	t1,-412(gp) # 0xf7cc
    f970:	e2ca9117          	auipc	sp,0xe2ca9
    f974:	002161b3          	or	gp,sp,sp
    f978:	93305137          	lui	sp,0x93305
    f97c:	17c0a217          	auipc	tp,0x17c0a
    f980:	e1548197          	auipc	gp,0xe1548
    f984:	5b424193          	xori	gp,tp,1460
    f988:	3f368193          	addi	gp,a3,1011 # 0xffffffffbc0943f3
    f98c:	9ba1e093          	ori	ra,gp,-1606
    f990:	98646193          	ori	gp,s0,-1658
    f994:	405e5137          	lui	sp,0x405e5
    f998:	4ac44337          	lui	t1,0x4ac44
    f99c:	ce310117          	auipc	sp,0xce310
    f9a0:	5d412137          	lui	sp,0x5d412
    f9a4:	3fa0b137          	lui	sp,0x3fa0b
    f9a8:	00120333          	add	t1,tp,ra
    f9ac:	3a32d217          	auipc	tp,0x3a32d
    f9b0:	75f780b7          	lui	ra,0x75f78
    f9b4:	230b0117          	auipc	sp,0x230b0
    f9b8:	003900b3          	add	ra,s2,gp
    f9bc:	f4714097          	auipc	ra,0xf4714
    f9c0:	016101b3          	add	gp,sp,s6
    f9c4:	002361b3          	or	gp,t1,sp
    f9c8:	002360b3          	or	ra,t1,sp
    f9cc:	401100b3          	sub	ra,sp,ra
    f9d0:	e230c413          	xori	s0,ra,-477
    f9d4:	781f5117          	auipc	sp,0x781f5
    f9d8:	f47b1137          	lui	sp,0xf47b1
    f9dc:	0a2c3137          	lui	sp,0xa2c3
    f9e0:	95aa71b7          	lui	gp,0x95aa7
    f9e4:	6008c6b7          	lui	a3,0x6008c
    f9e8:	192f7197          	auipc	gp,0x192f7
    f9ec:	f340f213          	andi	tp,ra,-204
    f9f0:	00000197          	auipc	gp,0x0
    f9f4:	12c180e7          	jalr	300(gp) # 0xfb1c
    f9f8:	3726b197          	auipc	gp,0x3726b
    f9fc:	a52c2137          	lui	sp,0xa52c2
    fa00:	460861b7          	lui	gp,0x46086
    fa04:	81902217          	auipc	tp,0x81902
    fa08:	83d300b7          	lui	ra,0x83d30
    fa0c:	6df211b7          	lui	gp,0x6df21
    fa10:	8dfec117          	auipc	sp,0x8dfec
    fa14:	49c1d237          	lui	tp,0x49c1d
    fa18:	e97e8317          	auipc	t1,0xe97e8
    fa1c:	0011c333          	xor	t1,gp,ra
    fa20:	336ce117          	auipc	sp,0x336ce
    fa24:	81f18393          	addi	t2,gp,-2017 # 0x6df2081f
    fa28:	6a054113          	xori	sp,a0,1696
    fa2c:	aafc8097          	auipc	ra,0xaafc8
    fa30:	8d61ef13          	ori	t5,gp,-1834
    fa34:	d49d6397          	auipc	t2,0xd49d6
    fa38:	41b13117          	auipc	sp,0x41b13
    fa3c:	cea1e093          	ori	ra,gp,-790
    fa40:	64d09597          	auipc	a1,0x64d09
    fa44:	d7fde117          	auipc	sp,0xd7fde
    fa48:	a249b197          	auipc	gp,0xa249b
    fa4c:	6248c0b7          	lui	ra,0x6248c
    fa50:	1dcfb097          	auipc	ra,0x1dcfb
    fa54:	2c93c117          	auipc	sp,0x2c93c
    fa58:	3c668093          	addi	ra,a3,966 # 0x6008c3c6
    fa5c:	7c31e113          	ori	sp,gp,1987
    fa60:	0060c333          	xor	t1,ra,t1
    fa64:	ad471117          	auipc	sp,0xad471
    fa68:	393b9237          	lui	tp,0x393b9
    fa6c:	00114333          	xor	t1,sp,ra
    fa70:	d630b197          	auipc	gp,0xd630b
    fa74:	eba1f093          	andi	ra,gp,-326
    fa78:	40510133          	sub	sp,sp,t0
    fa7c:	28f837b7          	lui	a5,0x28f83
    fa80:	003102b3          	add	t0,sp,gp
    fa84:	00010193          	mv	gp,sp
    fa88:	dc218ce3          	beq	gp,sp,0xf860
    fa8c:	96914193          	xori	gp,sp,-1687
    fa90:	3885f217          	auipc	tp,0x3885f
    fa94:	98714113          	xori	sp,sp,-1657
    fa98:	7ee2a0b7          	lui	ra,0x7ee2a
    fa9c:	54e72017          	auipc	zero,0x54e72
    faa0:	002341b3          	xor	gp,t1,sp
    faa4:	18c72017          	auipc	zero,0x18c72
    faa8:	5ae2b1b7          	lui	gp,0x5ae2b
    faac:	eba14093          	xori	ra,sp,-326
    fab0:	e1cb5197          	auipc	gp,0xe1cb5
    fab4:	0014c0b3          	xor	ra,s1,ra
    fab8:	00b100b3          	add	ra,sp,a1
    fabc:	ad4ab097          	auipc	ra,0xad4ab
    fac0:	401081b3          	sub	gp,ra,ra
    fac4:	c4251197          	auipc	gp,0xc4251
    fac8:	3c410013          	addi	zero,sp,964 # 0xffffffffad480e28
    facc:	f580e193          	ori	gp,ra,-168
    fad0:	0031c1b3          	xor	gp,gp,gp
    fad4:	bd12c137          	lui	sp,0xbd12c
    fad8:	1106b117          	auipc	sp,0x1106b
    fadc:	72814113          	xori	sp,sp,1832
    fae0:	2393d1b7          	lui	gp,0x2393d
    fae4:	91507193          	andi	gp,zero,-1771
    fae8:	c446d197          	auipc	gp,0xc446d
    faec:	972e5117          	auipc	sp,0x972e5
    faf0:	7647a1b7          	lui	gp,0x7647a
    faf4:	0010c1b3          	xor	gp,ra,ra
    faf8:	e3220097          	auipc	ra,0xe3220
    fafc:	ab9f51b7          	lui	gp,0xab9f5
    fb00:	a49ca097          	auipc	ra,0xa49ca
    fb04:	b4c16393          	ori	t2,sp,-1204
    fb08:	7b9a8197          	auipc	gp,0x7b9a8
    fb0c:	401081b3          	sub	gp,ra,ra
    fb10:	9d3aa137          	lui	sp,0x9d3aa
    fb14:	00018393          	mv	t2,gp
    fb18:	c03382e3          	beq	t2,gp,0xf71c
    fb1c:	001181b3          	add	gp,gp,ra
    fb20:	0030e1b3          	or	gp,ra,gp
    fb24:	6502f217          	auipc	tp,0x6502f
    fb28:	0030f1b3          	and	gp,ra,gp
    fb2c:	0030e3b3          	or	t2,ra,gp
    fb30:	7c117113          	andi	sp,sp,1985
    fb34:	410ec097          	auipc	ra,0x410ec
    fb38:	18ca5137          	lui	sp,0x18ca5
    fb3c:	48c260b7          	lui	ra,0x48c26
    fb40:	0010e0b3          	or	ra,ra,ra
    fb44:	0030c1b3          	xor	gp,ra,gp
    fb48:	c2a56097          	auipc	ra,0xc2a56
    fb4c:	e6d91117          	auipc	sp,0xe6d91
    fb50:	002161b3          	or	gp,sp,sp
    fb54:	a6233117          	auipc	sp,0xa6233
    fb58:	56686217          	auipc	tp,0x56686
    fb5c:	e0010213          	addi	tp,sp,-512 # 0xffffffffa6242954
    fb60:	83d0a197          	auipc	gp,0x83d0a
    fb64:	bbb193b7          	lui	t2,0xbbb19
    fb68:	2c018293          	addi	t0,gp,704 # 0xffffffff83d19e20
    fb6c:	5b76c1b7          	lui	gp,0x5b76c
    fb70:	67d33137          	lui	sp,0x67d33
    fb74:	003171b3          	and	gp,sp,gp
    fb78:	11c10113          	addi	sp,sp,284 # 0x67d3311c
    fb7c:	0031c2b3          	xor	t0,gp,gp
    fb80:	1fe6a1b7          	lui	gp,0x1fe6a
    fb84:	4a8b1097          	auipc	ra,0x4a8b1
    fb88:	8580a097          	auipc	ra,0x8580a
    fb8c:	0a917093          	andi	ra,sp,169
    fb90:	bb31e113          	ori	sp,gp,-1101
    fb94:	6e110197          	auipc	gp,0x6e110
    fb98:	00214133          	xor	sp,sp,sp
    fb9c:	d4300ae3          	beq	zero,gp,0xf8f0
    fba0:	d51ff16f          	jal	sp,0xf8f0
    fba4:	40320133          	sub	sp,tp,gp
    fba8:	001be0b3          	or	ra,s7,ra
    fbac:	3d508093          	addi	ra,ra,981 # 0xffffffff85819f5d
    fbb0:	c20e51b7          	lui	gp,0xc20e5
    fbb4:	004143b3          	xor	t2,sp,tp
    fbb8:	3de6b097          	auipc	ra,0x3de6b
    fbbc:	ab017197          	auipc	gp,0xab017
    fbc0:	c08b60b7          	lui	ra,0xc08b6
    fbc4:	2440c113          	xori	sp,ra,580
    fbc8:	40128133          	sub	sp,t0,ra
    fbcc:	003081b3          	add	gp,ra,gp
    fbd0:	c0ba1137          	lui	sp,0xc0ba1
    fbd4:	86e20293          	addi	t0,tp,-1938 # 0x566953c6
    fbd8:	de570097          	auipc	ra,0xde570
    fbdc:	0021f133          	and	sp,gp,sp
    fbe0:	002100b3          	add	ra,sp,sp
    fbe4:	486ca0b7          	lui	ra,0x486ca
    fbe8:	0022c3b3          	xor	t2,t0,sp
    fbec:	0a415137          	lui	sp,0xa415
    fbf0:	aa453117          	auipc	sp,0xaa453
    fbf4:	7fc1f113          	andi	sp,gp,2044
    fbf8:	001101b3          	add	gp,sp,ra
    fbfc:	bf518113          	addi	sp,gp,-1035 # 0xffffffffab0267b1
    fc00:	79a16137          	lui	sp,0x79a16
    fc04:	c460c113          	xori	sp,ra,-954
    fc08:	4c231297          	auipc	t0,0x4c231
    fc0c:	22869117          	auipc	sp,0x22869
    fc10:	db14c197          	auipc	gp,0xdb14c
    fc14:	e7f652b7          	lui	t0,0xe7f65
    fc18:	0050e133          	or	sp,ra,t0
    fc1c:	0031e1b3          	or	gp,gp,gp
    fc20:	12310263          	beq	sp,gp,0xfd44
    fc24:	1200016f          	jal	sp,0xfd44
    fc28:	9dd01097          	auipc	ra,0x9dd01
    fc2c:	4d718193          	addi	gp,gp,1239 # 0xffffffffdb15c0e7
    fc30:	e11b11b7          	lui	gp,0xe11b1
    fc34:	619ed137          	lui	sp,0x619ed
    fc38:	001061b3          	or	gp,zero,ra
    fc3c:	14791097          	auipc	ra,0x14791
    fc40:	813ed0b7          	lui	ra,0x813ed
    fc44:	002661b3          	or	gp,a2,sp
    fc48:	510ba237          	lui	tp,0x510ba
    fc4c:	2cc672b7          	lui	t0,0x2cc67
    fc50:	5eb14193          	xori	gp,sp,1515
    fc54:	cd108893          	addi	a7,ra,-815 # 0xffffffff813eccd1
    fc58:	46604093          	xori	ra,zero,1126
    fc5c:	506ca0b7          	lui	ra,0x506ca
    fc60:	005101b3          	add	gp,sp,t0
    fc64:	96d28237          	lui	tp,0x96d28
    fc68:	b0217313          	andi	t1,sp,-1278
    fc6c:	97316113          	ori	sp,sp,-1677
    fc70:	e88a71b7          	lui	gp,0xe88a7
    fc74:	402081b3          	sub	gp,ra,sp
    fc78:	8f817113          	andi	sp,sp,-1800
    fc7c:	cd237193          	andi	gp,t1,-814
    fc80:	24fd51b7          	lui	gp,0x24fd5
    fc84:	00628033          	add	zero,t0,t1
    fc88:	425c1237          	lui	tp,0x425c1
    fc8c:	001340b3          	xor	ra,t1,ra
    fc90:	002083b3          	add	t2,ra,sp
    fc94:	0010e0b3          	or	ra,ra,ra
    fc98:	002300b3          	add	ra,t1,sp
    fc9c:	b5e624b7          	lui	s1,0xb5e62
    fca0:	0010c0b3          	xor	ra,ra,ra
    fca4:	6b84e397          	auipc	t2,0x6b84e
    fca8:	f4b74197          	auipc	gp,0xf4b74
    fcac:	c95d5197          	auipc	gp,0xc95d5
    fcb0:	6a208113          	addi	sp,ra,1698 # 0x506ca6a2
    fcb4:	404180b3          	sub	ra,gp,tp
    fcb8:	00000317          	auipc	t1,0x0
    fcbc:	008301e7          	jalr	gp,8(t1) # 0xfcc0
    fcc0:	169b27b7          	lui	a5,0x169b2
    fcc4:	0034e133          	or	sp,s1,gp
    fcc8:	51b0c113          	xori	sp,ra,1307
    fccc:	f0a23237          	lui	tp,0xf0a23
    fcd0:	fb154117          	auipc	sp,0xfb154
    fcd4:	353d5117          	auipc	sp,0x353d5
    fcd8:	0f38c117          	auipc	sp,0xf38c
    fcdc:	9f1791b7          	lui	gp,0x9f179
    fce0:	0021f0b3          	and	ra,gp,sp
    fce4:	001081b3          	add	gp,ra,ra
    fce8:	76a91837          	lui	a6,0x76a91
    fcec:	9fa550b7          	lui	ra,0x9fa55
    fcf0:	c550c313          	xori	t1,ra,-939
    fcf4:	1ca43197          	auipc	gp,0x1ca43
    fcf8:	002a0633          	add	a2,s4,sp
    fcfc:	ce23c193          	xori	gp,t2,-798
    fd00:	263ef097          	auipc	ra,0x263ef
    fd04:	a02b9197          	auipc	gp,0xa02b9
    fd08:	43b290b7          	lui	ra,0x43b29
    fd0c:	00214133          	xor	sp,sp,sp
    fd10:	05637137          	lui	sp,0x5637
    fd14:	f6d9a117          	auipc	sp,0xf6d9a
    fd18:	9f1b20b7          	lui	ra,0x9f1b2
    fd1c:	402180b3          	sub	ra,gp,sp
    fd20:	0060c1b3          	xor	gp,ra,t1
    fd24:	98a43197          	auipc	gp,0x98a43
    fd28:	a3849497          	auipc	s1,0xa3849
    fd2c:	d93e5137          	lui	sp,0xd93e5
    fd30:	603ac017          	auipc	zero,0x603ac
    fd34:	ecb101b7          	lui	gp,0xecb10
    fd38:	0010f0b3          	and	ra,ra,ra
    fd3c:	942084e3          	beq	ra,sp,0xf684
    fd40:	945ff1ef          	jal	gp,0xf684
    fd44:	cad1e013          	ori	zero,gp,-851
    fd48:	35c1c193          	xori	gp,gp,860
    fd4c:	0073f133          	and	sp,t2,t2
    fd50:	00d1f133          	and	sp,gp,a3
    fd54:	2037b117          	auipc	sp,0x2037b
    fd58:	fc53f193          	andi	gp,t2,-59
    fd5c:	6422f117          	auipc	sp,0x6422f
    fd60:	0001e1b3          	or	gp,gp,zero
    fd64:	fa2b61b7          	lui	gp,0xfa2b6
    fd68:	0070c233          	xor	tp,ra,t2
    fd6c:	006162b3          	or	t0,sp,t1
    fd70:	e80000b7          	lui	ra,0xe8000
    fd74:	e6d08093          	addi	ra,ra,-403 # 0xffffffffe7fffe6d
    fd78:	aab60137          	lui	sp,0xaab60
    fd7c:	71b6a037          	lui	zero,0x71b6a
    fd80:	0070e1b3          	or	gp,ra,t2
    fd84:	00507033          	and	zero,zero,t0
    fd88:	00d2e0b3          	or	ra,t0,a3
    fd8c:	81e04093          	xori	ra,zero,-2018
    fd90:	37461017          	auipc	zero,0x37461
    fd94:	47f20297          	auipc	t0,0x47f20
    fd98:	d8c17093          	andi	ra,sp,-628
    fd9c:	60930137          	lui	sp,0x60930
    fda0:	fe03f093          	andi	ra,t2,-32
    fda4:	5566d0b7          	lui	ra,0x5566d
    fda8:	b0c36193          	ori	gp,t1,-1268
    fdac:	87b38d93          	addi	s11,t2,-1925 # 0x6b85d51f
    fdb0:	c8038193          	addi	gp,t2,-896
    fdb4:	002271b3          	and	gp,tp,sp
    fdb8:	0011c1b3          	xor	gp,gp,ra
    fdbc:	1e0e3237          	lui	tp,0x1e0e3
    fdc0:	8be29137          	lui	sp,0x8be29
    fdc4:	0030c033          	xor	zero,ra,gp
    fdc8:	00008113          	mv	sp,ra
    fdcc:	10110e63          	beq	sp,ra,0xfee8
    fdd0:	e28633b7          	lui	t2,0xe2863
    fdd4:	553a4197          	auipc	gp,0x553a4
    fdd8:	0021ea33          	or	s4,gp,sp
    fddc:	93e82137          	lui	sp,0x93e82
    fde0:	2af96097          	auipc	ra,0x2af96
    fde4:	efca70b7          	lui	ra,0xefca7
    fde8:	19568317          	auipc	t1,0x19568
    fdec:	006140b3          	xor	ra,sp,t1
    fdf0:	0010c0b3          	xor	ra,ra,ra
    fdf4:	2030f193          	andi	gp,ra,515
    fdf8:	c3d0e113          	ori	sp,ra,-963
    fdfc:	064e4397          	auipc	t2,0x64e4
    fe00:	48c16093          	ori	ra,sp,1164
    fe04:	be408113          	addi	sp,ra,-1052 # 0xffffffffefca6be4
    fe08:	d93c8117          	auipc	sp,0xd93c8
    fe0c:	c5f28193          	addi	gp,t0,-929 # 0x47f2f9f3
    fe10:	d011e113          	ori	sp,gp,-767
    fe14:	6013e237          	lui	tp,0x6013e
    fe18:	be617197          	auipc	gp,0xbe617
    fe1c:	f5316093          	ori	ra,sp,-173
    fe20:	28ae2317          	auipc	t1,0x28ae2
    fe24:	d72df117          	auipc	sp,0xd72df
    fe28:	5aa58037          	lui	zero,0x5aa58
    fe2c:	7c4111b7          	lui	gp,0x7c411
    fe30:	6aebb237          	lui	tp,0x6aebb
    fe34:	001171b3          	and	gp,sp,ra
    fe38:	8562f093          	andi	ra,t0,-1962
    fe3c:	a9af9137          	lui	sp,0xa9af9
    fe40:	dacc41b7          	lui	gp,0xdacc4
    fe44:	0021c233          	xor	tp,gp,sp
    fe48:	6e472117          	auipc	sp,0x6e472
    fe4c:	dc608ee3          	beq	ra,t1,0xfc28
    fe50:	dd9ff06f          	j	0xfc28
    fe54:	0ca2a017          	auipc	zero,0xca2a
    fe58:	1801e193          	ori	gp,gp,384
    fe5c:	c6aec0b7          	lui	ra,0xc6aec
    fe60:	ba6480b7          	lui	ra,0xba648
    fe64:	ff87a597          	auipc	a1,0xff87a
    fe68:	0020c133          	xor	sp,ra,sp
    fe6c:	e9b3f293          	andi	t0,t2,-357
    fe70:	dc204193          	xori	gp,zero,-574
    fe74:	bdcdd097          	auipc	ra,0xbdcdd
    fe78:	37214113          	xori	sp,sp,882
    fe7c:	2d86c193          	xori	gp,a3,728
    fe80:	c85e30b7          	lui	ra,0xc85e3
    fe84:	6a3a8137          	lui	sp,0x6a3a8
    fe88:	ab816197          	auipc	gp,0xab816
    fe8c:	83a003b7          	lui	t2,0x83a00
    fe90:	d191c093          	xori	ra,gp,-743
    fe94:	007201b3          	add	gp,tp,t2
    fe98:	9c4c3217          	auipc	tp,0x9c4c3
    fe9c:	72135137          	lui	sp,0x72135
    fea0:	ff648193          	addi	gp,s1,-10 # 0xffffffffa3858d1e
    fea4:	ade100b7          	lui	ra,0xade10
    fea8:	7b395097          	auipc	ra,0x7b395
    feac:	dfec70b7          	lui	ra,0xdfec7
    feb0:	929190b7          	lui	ra,0x92919
    feb4:	40308233          	sub	tp,ra,gp
    feb8:	64e10193          	addi	gp,sp,1614 # 0x7213564e
    febc:	f5e97097          	auipc	ra,0xf5e97
    fec0:	20514093          	xori	ra,sp,517
    fec4:	cfe1f093          	andi	ra,gp,-770
    fec8:	dc9b4117          	auipc	sp,0xdc9b4
    fecc:	f98f9117          	auipc	sp,0xf98f9
    fed0:	a751e093          	ori	ra,gp,-1419
    fed4:	5e8c4137          	lui	sp,0x5e8c4
    fed8:	d6f860b7          	lui	ra,0xd6f86
    fedc:	4940c213          	xori	tp,ra,1172
    fee0:	a81388e3          	beq	t2,ra,0xf970
    fee4:	a8dff1ef          	jal	gp,0xf970
    fee8:	6862d1b7          	lui	gp,0x6862d
    feec:	2c3b5197          	auipc	gp,0x2c3b5
    fef0:	00226133          	or	sp,tp,sp
    fef4:	37703217          	auipc	tp,0x37703
    fef8:	49c34297          	auipc	t0,0x49c34
    fefc:	a5658117          	auipc	sp,0xa5658
    ff00:	fee93037          	lui	zero,0xfee93
    ff04:	ebad9197          	auipc	gp,0xebad9
    ff08:	487ea137          	lui	sp,0x487ea
    ff0c:	225ea197          	auipc	gp,0x225ea
    ff10:	b443e337          	lui	t1,0xb443e
    ff14:	00306133          	or	sp,zero,gp
    ff18:	b3714037          	lui	zero,0xb3714
    ff1c:	44cf1197          	auipc	gp,0x44cf1
    ff20:	f28dc3b7          	lui	t2,0xf28dc
    ff24:	31b51117          	auipc	sp,0x31b51
    ff28:	4ee2c117          	auipc	sp,0x4ee2c
    ff2c:	00f340b3          	xor	ra,t1,a5
    ff30:	2c11e293          	ori	t0,gp,705
    ff34:	fbdd50b7          	lui	ra,0xfbdd5
    ff38:	001160b3          	or	ra,sp,ra
    ff3c:	dcfc0097          	auipc	ra,0xdcfc0
    ff40:	218d90b7          	lui	ra,0x218d9
    ff44:	bc124093          	xori	ra,tp,-1087
    ff48:	00218263          	beq	gp,sp,0xff4c
    ff4c:	e9cff06f          	j	0xf5e8
    ff50:	deadbeef          	jal	t4,0xfffffffffffeb53a
    ff54:	deadbeef          	jal	t4,0xfffffffffffeb53e
    ff58:	deadbeef          	jal	t4,0xfffffffffffeb542
    ff5c:	deadbeef          	jal	t4,0xfffffffffffeb546
    ff60:	deadbeef          	jal	t4,0xfffffffffffeb54a
    ff64:	deadbeef          	jal	t4,0xfffffffffffeb54e
    ff68:	deadbeef          	jal	t4,0xfffffffffffeb552
    ff6c:	deadbeef          	jal	t4,0xfffffffffffeb556
    ff70:	deadbeef          	jal	t4,0xfffffffffffeb55a
    ff74:	deadbeef          	jal	t4,0xfffffffffffeb55e
    ff78:	deadbeef          	jal	t4,0xfffffffffffeb562
    ff7c:	deadbeef          	jal	t4,0xfffffffffffeb566
    ff80:	deadbeef          	jal	t4,0xfffffffffffeb56a
    ff84:	deadbeef          	jal	t4,0xfffffffffffeb56e
    ff88:	deadbeef          	jal	t4,0xfffffffffffeb572
    ff8c:	deadbeef          	jal	t4,0xfffffffffffeb576
    ff90:	deadbeef          	jal	t4,0xfffffffffffeb57a
    ff94:	deadbeef          	jal	t4,0xfffffffffffeb57e
    ff98:	deadbeef          	jal	t4,0xfffffffffffeb582
    ff9c:	deadbeef          	jal	t4,0xfffffffffffeb586
    ffa0:	deadbeef          	jal	t4,0xfffffffffffeb58a
    ffa4:	deadbeef          	jal	t4,0xfffffffffffeb58e
    ffa8:	deadbeef          	jal	t4,0xfffffffffffeb592
    ffac:	deadbeef          	jal	t4,0xfffffffffffeb596
    ffb0:	deadbeef          	jal	t4,0xfffffffffffeb59a
    ffb4:	deadbeef          	jal	t4,0xfffffffffffeb59e
    ffb8:	deadbeef          	jal	t4,0xfffffffffffeb5a2
    ffbc:	deadbeef          	jal	t4,0xfffffffffffeb5a6
    ffc0:	deadbeef          	jal	t4,0xfffffffffffeb5aa
    ffc4:	deadbeef          	jal	t4,0xfffffffffffeb5ae
    ffc8:	deadbeef          	jal	t4,0xfffffffffffeb5b2
    ffcc:	deadbeef          	jal	t4,0xfffffffffffeb5b6
